
Modbus_Project_Slave.elf:     file format elf32-littlearm

Sections:
Idx Name          Size      VMA       LMA       File off  Algn
  0 .isr_vector   00000188  08000000  08000000  00010000  2**0
                  CONTENTS, ALLOC, LOAD, READONLY, DATA
  1 .text         00007e48  08000188  08000188  00010188  2**3
                  CONTENTS, ALLOC, LOAD, READONLY, CODE
  2 .rodata       00003020  08007fd0  08007fd0  00017fd0  2**2
                  CONTENTS, ALLOC, LOAD, READONLY, DATA
  3 .ARM.extab    00000000  0800aff0  0800aff0  00020214  2**0
                  CONTENTS
  4 .ARM          00000008  0800aff0  0800aff0  0001aff0  2**2
                  CONTENTS, ALLOC, LOAD, READONLY, DATA
  5 .preinit_array 00000000  0800aff8  0800aff8  00020214  2**0
                  CONTENTS, ALLOC, LOAD, DATA
  6 .init_array   00000004  0800aff8  0800aff8  0001aff8  2**2
                  CONTENTS, ALLOC, LOAD, DATA
  7 .fini_array   00000004  0800affc  0800affc  0001affc  2**2
                  CONTENTS, ALLOC, LOAD, DATA
  8 .data         00000214  20000000  0800b000  00020000  2**2
                  CONTENTS, ALLOC, LOAD, DATA
  9 .ccmram       00000000  10000000  10000000  00020214  2**0
                  CONTENTS
 10 .bss          0000058c  20000214  20000214  00020214  2**2
                  ALLOC
 11 ._user_heap_stack 00000600  200007a0  200007a0  00020214  2**0
                  ALLOC
 12 .ARM.attributes 00000030  00000000  00000000  00020214  2**0
                  CONTENTS, READONLY
 13 .comment      00000043  00000000  00000000  00020244  2**0
                  CONTENTS, READONLY
 14 .debug_info   0001a6df  00000000  00000000  00020287  2**0
                  CONTENTS, READONLY, DEBUGGING, OCTETS
 15 .debug_abbrev 000045c9  00000000  00000000  0003a966  2**0
                  CONTENTS, READONLY, DEBUGGING, OCTETS
 16 .debug_aranges 00001768  00000000  00000000  0003ef30  2**3
                  CONTENTS, READONLY, DEBUGGING, OCTETS
 17 .debug_rnglists 00001220  00000000  00000000  00040698  2**0
                  CONTENTS, READONLY, DEBUGGING, OCTETS
 18 .debug_macro  0002652b  00000000  00000000  000418b8  2**0
                  CONTENTS, READONLY, DEBUGGING, OCTETS
 19 .debug_line   00020c7b  00000000  00000000  00067de3  2**0
                  CONTENTS, READONLY, DEBUGGING, OCTETS
 20 .debug_str    000dff14  00000000  00000000  00088a5e  2**0
                  CONTENTS, READONLY, DEBUGGING, OCTETS
 21 .debug_frame  000060fc  00000000  00000000  00168974  2**2
                  CONTENTS, READONLY, DEBUGGING, OCTETS
 22 .debug_line_str 0000007a  00000000  00000000  0016ea70  2**0
                  CONTENTS, READONLY, DEBUGGING, OCTETS

Disassembly of section .text:

08000188 <__do_global_dtors_aux>:
 8000188:	b510      	push	{r4, lr}
 800018a:	4c05      	ldr	r4, [pc, #20]	; (80001a0 <__do_global_dtors_aux+0x18>)
 800018c:	7823      	ldrb	r3, [r4, #0]
 800018e:	b933      	cbnz	r3, 800019e <__do_global_dtors_aux+0x16>
 8000190:	4b04      	ldr	r3, [pc, #16]	; (80001a4 <__do_global_dtors_aux+0x1c>)
 8000192:	b113      	cbz	r3, 800019a <__do_global_dtors_aux+0x12>
 8000194:	4804      	ldr	r0, [pc, #16]	; (80001a8 <__do_global_dtors_aux+0x20>)
 8000196:	f3af 8000 	nop.w
 800019a:	2301      	movs	r3, #1
 800019c:	7023      	strb	r3, [r4, #0]
 800019e:	bd10      	pop	{r4, pc}
 80001a0:	20000214 	.word	0x20000214
 80001a4:	00000000 	.word	0x00000000
 80001a8:	08007fb8 	.word	0x08007fb8

080001ac <frame_dummy>:
 80001ac:	b508      	push	{r3, lr}
 80001ae:	4b03      	ldr	r3, [pc, #12]	; (80001bc <frame_dummy+0x10>)
 80001b0:	b11b      	cbz	r3, 80001ba <frame_dummy+0xe>
 80001b2:	4903      	ldr	r1, [pc, #12]	; (80001c0 <frame_dummy+0x14>)
 80001b4:	4803      	ldr	r0, [pc, #12]	; (80001c4 <frame_dummy+0x18>)
 80001b6:	f3af 8000 	nop.w
 80001ba:	bd08      	pop	{r3, pc}
 80001bc:	00000000 	.word	0x00000000
 80001c0:	20000218 	.word	0x20000218
 80001c4:	08007fb8 	.word	0x08007fb8

080001c8 <__aeabi_drsub>:
 80001c8:	f081 4100 	eor.w	r1, r1, #2147483648	; 0x80000000
 80001cc:	e002      	b.n	80001d4 <__adddf3>
 80001ce:	bf00      	nop

080001d0 <__aeabi_dsub>:
 80001d0:	f083 4300 	eor.w	r3, r3, #2147483648	; 0x80000000

080001d4 <__adddf3>:
 80001d4:	b530      	push	{r4, r5, lr}
 80001d6:	ea4f 0441 	mov.w	r4, r1, lsl #1
 80001da:	ea4f 0543 	mov.w	r5, r3, lsl #1
 80001de:	ea94 0f05 	teq	r4, r5
 80001e2:	bf08      	it	eq
 80001e4:	ea90 0f02 	teqeq	r0, r2
 80001e8:	bf1f      	itttt	ne
 80001ea:	ea54 0c00 	orrsne.w	ip, r4, r0
 80001ee:	ea55 0c02 	orrsne.w	ip, r5, r2
 80001f2:	ea7f 5c64 	mvnsne.w	ip, r4, asr #21
 80001f6:	ea7f 5c65 	mvnsne.w	ip, r5, asr #21
 80001fa:	f000 80e2 	beq.w	80003c2 <__adddf3+0x1ee>
 80001fe:	ea4f 5454 	mov.w	r4, r4, lsr #21
 8000202:	ebd4 5555 	rsbs	r5, r4, r5, lsr #21
 8000206:	bfb8      	it	lt
 8000208:	426d      	neglt	r5, r5
 800020a:	dd0c      	ble.n	8000226 <__adddf3+0x52>
 800020c:	442c      	add	r4, r5
 800020e:	ea80 0202 	eor.w	r2, r0, r2
 8000212:	ea81 0303 	eor.w	r3, r1, r3
 8000216:	ea82 0000 	eor.w	r0, r2, r0
 800021a:	ea83 0101 	eor.w	r1, r3, r1
 800021e:	ea80 0202 	eor.w	r2, r0, r2
 8000222:	ea81 0303 	eor.w	r3, r1, r3
 8000226:	2d36      	cmp	r5, #54	; 0x36
 8000228:	bf88      	it	hi
 800022a:	bd30      	pophi	{r4, r5, pc}
 800022c:	f011 4f00 	tst.w	r1, #2147483648	; 0x80000000
 8000230:	ea4f 3101 	mov.w	r1, r1, lsl #12
 8000234:	f44f 1c80 	mov.w	ip, #1048576	; 0x100000
 8000238:	ea4c 3111 	orr.w	r1, ip, r1, lsr #12
 800023c:	d002      	beq.n	8000244 <__adddf3+0x70>
 800023e:	4240      	negs	r0, r0
 8000240:	eb61 0141 	sbc.w	r1, r1, r1, lsl #1
 8000244:	f013 4f00 	tst.w	r3, #2147483648	; 0x80000000
 8000248:	ea4f 3303 	mov.w	r3, r3, lsl #12
 800024c:	ea4c 3313 	orr.w	r3, ip, r3, lsr #12
 8000250:	d002      	beq.n	8000258 <__adddf3+0x84>
 8000252:	4252      	negs	r2, r2
 8000254:	eb63 0343 	sbc.w	r3, r3, r3, lsl #1
 8000258:	ea94 0f05 	teq	r4, r5
 800025c:	f000 80a7 	beq.w	80003ae <__adddf3+0x1da>
 8000260:	f1a4 0401 	sub.w	r4, r4, #1
 8000264:	f1d5 0e20 	rsbs	lr, r5, #32
 8000268:	db0d      	blt.n	8000286 <__adddf3+0xb2>
 800026a:	fa02 fc0e 	lsl.w	ip, r2, lr
 800026e:	fa22 f205 	lsr.w	r2, r2, r5
 8000272:	1880      	adds	r0, r0, r2
 8000274:	f141 0100 	adc.w	r1, r1, #0
 8000278:	fa03 f20e 	lsl.w	r2, r3, lr
 800027c:	1880      	adds	r0, r0, r2
 800027e:	fa43 f305 	asr.w	r3, r3, r5
 8000282:	4159      	adcs	r1, r3
 8000284:	e00e      	b.n	80002a4 <__adddf3+0xd0>
 8000286:	f1a5 0520 	sub.w	r5, r5, #32
 800028a:	f10e 0e20 	add.w	lr, lr, #32
 800028e:	2a01      	cmp	r2, #1
 8000290:	fa03 fc0e 	lsl.w	ip, r3, lr
 8000294:	bf28      	it	cs
 8000296:	f04c 0c02 	orrcs.w	ip, ip, #2
 800029a:	fa43 f305 	asr.w	r3, r3, r5
 800029e:	18c0      	adds	r0, r0, r3
 80002a0:	eb51 71e3 	adcs.w	r1, r1, r3, asr #31
 80002a4:	f001 4500 	and.w	r5, r1, #2147483648	; 0x80000000
 80002a8:	d507      	bpl.n	80002ba <__adddf3+0xe6>
 80002aa:	f04f 0e00 	mov.w	lr, #0
 80002ae:	f1dc 0c00 	rsbs	ip, ip, #0
 80002b2:	eb7e 0000 	sbcs.w	r0, lr, r0
 80002b6:	eb6e 0101 	sbc.w	r1, lr, r1
 80002ba:	f5b1 1f80 	cmp.w	r1, #1048576	; 0x100000
 80002be:	d31b      	bcc.n	80002f8 <__adddf3+0x124>
 80002c0:	f5b1 1f00 	cmp.w	r1, #2097152	; 0x200000
 80002c4:	d30c      	bcc.n	80002e0 <__adddf3+0x10c>
 80002c6:	0849      	lsrs	r1, r1, #1
 80002c8:	ea5f 0030 	movs.w	r0, r0, rrx
 80002cc:	ea4f 0c3c 	mov.w	ip, ip, rrx
 80002d0:	f104 0401 	add.w	r4, r4, #1
 80002d4:	ea4f 5244 	mov.w	r2, r4, lsl #21
 80002d8:	f512 0f80 	cmn.w	r2, #4194304	; 0x400000
 80002dc:	f080 809a 	bcs.w	8000414 <__adddf3+0x240>
 80002e0:	f1bc 4f00 	cmp.w	ip, #2147483648	; 0x80000000
 80002e4:	bf08      	it	eq
 80002e6:	ea5f 0c50 	movseq.w	ip, r0, lsr #1
 80002ea:	f150 0000 	adcs.w	r0, r0, #0
 80002ee:	eb41 5104 	adc.w	r1, r1, r4, lsl #20
 80002f2:	ea41 0105 	orr.w	r1, r1, r5
 80002f6:	bd30      	pop	{r4, r5, pc}
 80002f8:	ea5f 0c4c 	movs.w	ip, ip, lsl #1
 80002fc:	4140      	adcs	r0, r0
 80002fe:	eb41 0101 	adc.w	r1, r1, r1
 8000302:	3c01      	subs	r4, #1
 8000304:	bf28      	it	cs
 8000306:	f5b1 1f80 	cmpcs.w	r1, #1048576	; 0x100000
 800030a:	d2e9      	bcs.n	80002e0 <__adddf3+0x10c>
 800030c:	f091 0f00 	teq	r1, #0
 8000310:	bf04      	itt	eq
 8000312:	4601      	moveq	r1, r0
 8000314:	2000      	moveq	r0, #0
 8000316:	fab1 f381 	clz	r3, r1
 800031a:	bf08      	it	eq
 800031c:	3320      	addeq	r3, #32
 800031e:	f1a3 030b 	sub.w	r3, r3, #11
 8000322:	f1b3 0220 	subs.w	r2, r3, #32
 8000326:	da0c      	bge.n	8000342 <__adddf3+0x16e>
 8000328:	320c      	adds	r2, #12
 800032a:	dd08      	ble.n	800033e <__adddf3+0x16a>
 800032c:	f102 0c14 	add.w	ip, r2, #20
 8000330:	f1c2 020c 	rsb	r2, r2, #12
 8000334:	fa01 f00c 	lsl.w	r0, r1, ip
 8000338:	fa21 f102 	lsr.w	r1, r1, r2
 800033c:	e00c      	b.n	8000358 <__adddf3+0x184>
 800033e:	f102 0214 	add.w	r2, r2, #20
 8000342:	bfd8      	it	le
 8000344:	f1c2 0c20 	rsble	ip, r2, #32
 8000348:	fa01 f102 	lsl.w	r1, r1, r2
 800034c:	fa20 fc0c 	lsr.w	ip, r0, ip
 8000350:	bfdc      	itt	le
 8000352:	ea41 010c 	orrle.w	r1, r1, ip
 8000356:	4090      	lslle	r0, r2
 8000358:	1ae4      	subs	r4, r4, r3
 800035a:	bfa2      	ittt	ge
 800035c:	eb01 5104 	addge.w	r1, r1, r4, lsl #20
 8000360:	4329      	orrge	r1, r5
 8000362:	bd30      	popge	{r4, r5, pc}
 8000364:	ea6f 0404 	mvn.w	r4, r4
 8000368:	3c1f      	subs	r4, #31
 800036a:	da1c      	bge.n	80003a6 <__adddf3+0x1d2>
 800036c:	340c      	adds	r4, #12
 800036e:	dc0e      	bgt.n	800038e <__adddf3+0x1ba>
 8000370:	f104 0414 	add.w	r4, r4, #20
 8000374:	f1c4 0220 	rsb	r2, r4, #32
 8000378:	fa20 f004 	lsr.w	r0, r0, r4
 800037c:	fa01 f302 	lsl.w	r3, r1, r2
 8000380:	ea40 0003 	orr.w	r0, r0, r3
 8000384:	fa21 f304 	lsr.w	r3, r1, r4
 8000388:	ea45 0103 	orr.w	r1, r5, r3
 800038c:	bd30      	pop	{r4, r5, pc}
 800038e:	f1c4 040c 	rsb	r4, r4, #12
 8000392:	f1c4 0220 	rsb	r2, r4, #32
 8000396:	fa20 f002 	lsr.w	r0, r0, r2
 800039a:	fa01 f304 	lsl.w	r3, r1, r4
 800039e:	ea40 0003 	orr.w	r0, r0, r3
 80003a2:	4629      	mov	r1, r5
 80003a4:	bd30      	pop	{r4, r5, pc}
 80003a6:	fa21 f004 	lsr.w	r0, r1, r4
 80003aa:	4629      	mov	r1, r5
 80003ac:	bd30      	pop	{r4, r5, pc}
 80003ae:	f094 0f00 	teq	r4, #0
 80003b2:	f483 1380 	eor.w	r3, r3, #1048576	; 0x100000
 80003b6:	bf06      	itte	eq
 80003b8:	f481 1180 	eoreq.w	r1, r1, #1048576	; 0x100000
 80003bc:	3401      	addeq	r4, #1
 80003be:	3d01      	subne	r5, #1
 80003c0:	e74e      	b.n	8000260 <__adddf3+0x8c>
 80003c2:	ea7f 5c64 	mvns.w	ip, r4, asr #21
 80003c6:	bf18      	it	ne
 80003c8:	ea7f 5c65 	mvnsne.w	ip, r5, asr #21
 80003cc:	d029      	beq.n	8000422 <__adddf3+0x24e>
 80003ce:	ea94 0f05 	teq	r4, r5
 80003d2:	bf08      	it	eq
 80003d4:	ea90 0f02 	teqeq	r0, r2
 80003d8:	d005      	beq.n	80003e6 <__adddf3+0x212>
 80003da:	ea54 0c00 	orrs.w	ip, r4, r0
 80003de:	bf04      	itt	eq
 80003e0:	4619      	moveq	r1, r3
 80003e2:	4610      	moveq	r0, r2
 80003e4:	bd30      	pop	{r4, r5, pc}
 80003e6:	ea91 0f03 	teq	r1, r3
 80003ea:	bf1e      	ittt	ne
 80003ec:	2100      	movne	r1, #0
 80003ee:	2000      	movne	r0, #0
 80003f0:	bd30      	popne	{r4, r5, pc}
 80003f2:	ea5f 5c54 	movs.w	ip, r4, lsr #21
 80003f6:	d105      	bne.n	8000404 <__adddf3+0x230>
 80003f8:	0040      	lsls	r0, r0, #1
 80003fa:	4149      	adcs	r1, r1
 80003fc:	bf28      	it	cs
 80003fe:	f041 4100 	orrcs.w	r1, r1, #2147483648	; 0x80000000
 8000402:	bd30      	pop	{r4, r5, pc}
 8000404:	f514 0480 	adds.w	r4, r4, #4194304	; 0x400000
 8000408:	bf3c      	itt	cc
 800040a:	f501 1180 	addcc.w	r1, r1, #1048576	; 0x100000
 800040e:	bd30      	popcc	{r4, r5, pc}
 8000410:	f001 4500 	and.w	r5, r1, #2147483648	; 0x80000000
 8000414:	f045 41fe 	orr.w	r1, r5, #2130706432	; 0x7f000000
 8000418:	f441 0170 	orr.w	r1, r1, #15728640	; 0xf00000
 800041c:	f04f 0000 	mov.w	r0, #0
 8000420:	bd30      	pop	{r4, r5, pc}
 8000422:	ea7f 5c64 	mvns.w	ip, r4, asr #21
 8000426:	bf1a      	itte	ne
 8000428:	4619      	movne	r1, r3
 800042a:	4610      	movne	r0, r2
 800042c:	ea7f 5c65 	mvnseq.w	ip, r5, asr #21
 8000430:	bf1c      	itt	ne
 8000432:	460b      	movne	r3, r1
 8000434:	4602      	movne	r2, r0
 8000436:	ea50 3401 	orrs.w	r4, r0, r1, lsl #12
 800043a:	bf06      	itte	eq
 800043c:	ea52 3503 	orrseq.w	r5, r2, r3, lsl #12
 8000440:	ea91 0f03 	teqeq	r1, r3
 8000444:	f441 2100 	orrne.w	r1, r1, #524288	; 0x80000
 8000448:	bd30      	pop	{r4, r5, pc}
 800044a:	bf00      	nop

0800044c <__aeabi_ui2d>:
 800044c:	f090 0f00 	teq	r0, #0
 8000450:	bf04      	itt	eq
 8000452:	2100      	moveq	r1, #0
 8000454:	4770      	bxeq	lr
 8000456:	b530      	push	{r4, r5, lr}
 8000458:	f44f 6480 	mov.w	r4, #1024	; 0x400
 800045c:	f104 0432 	add.w	r4, r4, #50	; 0x32
 8000460:	f04f 0500 	mov.w	r5, #0
 8000464:	f04f 0100 	mov.w	r1, #0
 8000468:	e750      	b.n	800030c <__adddf3+0x138>
 800046a:	bf00      	nop

0800046c <__aeabi_i2d>:
 800046c:	f090 0f00 	teq	r0, #0
 8000470:	bf04      	itt	eq
 8000472:	2100      	moveq	r1, #0
 8000474:	4770      	bxeq	lr
 8000476:	b530      	push	{r4, r5, lr}
 8000478:	f44f 6480 	mov.w	r4, #1024	; 0x400
 800047c:	f104 0432 	add.w	r4, r4, #50	; 0x32
 8000480:	f010 4500 	ands.w	r5, r0, #2147483648	; 0x80000000
 8000484:	bf48      	it	mi
 8000486:	4240      	negmi	r0, r0
 8000488:	f04f 0100 	mov.w	r1, #0
 800048c:	e73e      	b.n	800030c <__adddf3+0x138>
 800048e:	bf00      	nop

08000490 <__aeabi_f2d>:
 8000490:	0042      	lsls	r2, r0, #1
 8000492:	ea4f 01e2 	mov.w	r1, r2, asr #3
 8000496:	ea4f 0131 	mov.w	r1, r1, rrx
 800049a:	ea4f 7002 	mov.w	r0, r2, lsl #28
 800049e:	bf1f      	itttt	ne
 80004a0:	f012 437f 	andsne.w	r3, r2, #4278190080	; 0xff000000
 80004a4:	f093 4f7f 	teqne	r3, #4278190080	; 0xff000000
 80004a8:	f081 5160 	eorne.w	r1, r1, #939524096	; 0x38000000
 80004ac:	4770      	bxne	lr
 80004ae:	f032 427f 	bics.w	r2, r2, #4278190080	; 0xff000000
 80004b2:	bf08      	it	eq
 80004b4:	4770      	bxeq	lr
 80004b6:	f093 4f7f 	teq	r3, #4278190080	; 0xff000000
 80004ba:	bf04      	itt	eq
 80004bc:	f441 2100 	orreq.w	r1, r1, #524288	; 0x80000
 80004c0:	4770      	bxeq	lr
 80004c2:	b530      	push	{r4, r5, lr}
 80004c4:	f44f 7460 	mov.w	r4, #896	; 0x380
 80004c8:	f001 4500 	and.w	r5, r1, #2147483648	; 0x80000000
 80004cc:	f021 4100 	bic.w	r1, r1, #2147483648	; 0x80000000
 80004d0:	e71c      	b.n	800030c <__adddf3+0x138>
 80004d2:	bf00      	nop

080004d4 <__aeabi_ul2d>:
 80004d4:	ea50 0201 	orrs.w	r2, r0, r1
 80004d8:	bf08      	it	eq
 80004da:	4770      	bxeq	lr
 80004dc:	b530      	push	{r4, r5, lr}
 80004de:	f04f 0500 	mov.w	r5, #0
 80004e2:	e00a      	b.n	80004fa <__aeabi_l2d+0x16>

080004e4 <__aeabi_l2d>:
 80004e4:	ea50 0201 	orrs.w	r2, r0, r1
 80004e8:	bf08      	it	eq
 80004ea:	4770      	bxeq	lr
 80004ec:	b530      	push	{r4, r5, lr}
 80004ee:	f011 4500 	ands.w	r5, r1, #2147483648	; 0x80000000
 80004f2:	d502      	bpl.n	80004fa <__aeabi_l2d+0x16>
 80004f4:	4240      	negs	r0, r0
 80004f6:	eb61 0141 	sbc.w	r1, r1, r1, lsl #1
 80004fa:	f44f 6480 	mov.w	r4, #1024	; 0x400
 80004fe:	f104 0432 	add.w	r4, r4, #50	; 0x32
 8000502:	ea5f 5c91 	movs.w	ip, r1, lsr #22
 8000506:	f43f aed8 	beq.w	80002ba <__adddf3+0xe6>
 800050a:	f04f 0203 	mov.w	r2, #3
 800050e:	ea5f 0cdc 	movs.w	ip, ip, lsr #3
 8000512:	bf18      	it	ne
 8000514:	3203      	addne	r2, #3
 8000516:	ea5f 0cdc 	movs.w	ip, ip, lsr #3
 800051a:	bf18      	it	ne
 800051c:	3203      	addne	r2, #3
 800051e:	eb02 02dc 	add.w	r2, r2, ip, lsr #3
 8000522:	f1c2 0320 	rsb	r3, r2, #32
 8000526:	fa00 fc03 	lsl.w	ip, r0, r3
 800052a:	fa20 f002 	lsr.w	r0, r0, r2
 800052e:	fa01 fe03 	lsl.w	lr, r1, r3
 8000532:	ea40 000e 	orr.w	r0, r0, lr
 8000536:	fa21 f102 	lsr.w	r1, r1, r2
 800053a:	4414      	add	r4, r2
 800053c:	e6bd      	b.n	80002ba <__adddf3+0xe6>
 800053e:	bf00      	nop

08000540 <__aeabi_dmul>:
 8000540:	b570      	push	{r4, r5, r6, lr}
 8000542:	f04f 0cff 	mov.w	ip, #255	; 0xff
 8000546:	f44c 6ce0 	orr.w	ip, ip, #1792	; 0x700
 800054a:	ea1c 5411 	ands.w	r4, ip, r1, lsr #20
 800054e:	bf1d      	ittte	ne
 8000550:	ea1c 5513 	andsne.w	r5, ip, r3, lsr #20
 8000554:	ea94 0f0c 	teqne	r4, ip
 8000558:	ea95 0f0c 	teqne	r5, ip
 800055c:	f000 f8de 	bleq	800071c <__aeabi_dmul+0x1dc>
 8000560:	442c      	add	r4, r5
 8000562:	ea81 0603 	eor.w	r6, r1, r3
 8000566:	ea21 514c 	bic.w	r1, r1, ip, lsl #21
 800056a:	ea23 534c 	bic.w	r3, r3, ip, lsl #21
 800056e:	ea50 3501 	orrs.w	r5, r0, r1, lsl #12
 8000572:	bf18      	it	ne
 8000574:	ea52 3503 	orrsne.w	r5, r2, r3, lsl #12
 8000578:	f441 1180 	orr.w	r1, r1, #1048576	; 0x100000
 800057c:	f443 1380 	orr.w	r3, r3, #1048576	; 0x100000
 8000580:	d038      	beq.n	80005f4 <__aeabi_dmul+0xb4>
 8000582:	fba0 ce02 	umull	ip, lr, r0, r2
 8000586:	f04f 0500 	mov.w	r5, #0
 800058a:	fbe1 e502 	umlal	lr, r5, r1, r2
 800058e:	f006 4200 	and.w	r2, r6, #2147483648	; 0x80000000
 8000592:	fbe0 e503 	umlal	lr, r5, r0, r3
 8000596:	f04f 0600 	mov.w	r6, #0
 800059a:	fbe1 5603 	umlal	r5, r6, r1, r3
 800059e:	f09c 0f00 	teq	ip, #0
 80005a2:	bf18      	it	ne
 80005a4:	f04e 0e01 	orrne.w	lr, lr, #1
 80005a8:	f1a4 04ff 	sub.w	r4, r4, #255	; 0xff
 80005ac:	f5b6 7f00 	cmp.w	r6, #512	; 0x200
 80005b0:	f564 7440 	sbc.w	r4, r4, #768	; 0x300
 80005b4:	d204      	bcs.n	80005c0 <__aeabi_dmul+0x80>
 80005b6:	ea5f 0e4e 	movs.w	lr, lr, lsl #1
 80005ba:	416d      	adcs	r5, r5
 80005bc:	eb46 0606 	adc.w	r6, r6, r6
 80005c0:	ea42 21c6 	orr.w	r1, r2, r6, lsl #11
 80005c4:	ea41 5155 	orr.w	r1, r1, r5, lsr #21
 80005c8:	ea4f 20c5 	mov.w	r0, r5, lsl #11
 80005cc:	ea40 505e 	orr.w	r0, r0, lr, lsr #21
 80005d0:	ea4f 2ece 	mov.w	lr, lr, lsl #11
 80005d4:	f1b4 0cfd 	subs.w	ip, r4, #253	; 0xfd
 80005d8:	bf88      	it	hi
 80005da:	f5bc 6fe0 	cmphi.w	ip, #1792	; 0x700
 80005de:	d81e      	bhi.n	800061e <__aeabi_dmul+0xde>
 80005e0:	f1be 4f00 	cmp.w	lr, #2147483648	; 0x80000000
 80005e4:	bf08      	it	eq
 80005e6:	ea5f 0e50 	movseq.w	lr, r0, lsr #1
 80005ea:	f150 0000 	adcs.w	r0, r0, #0
 80005ee:	eb41 5104 	adc.w	r1, r1, r4, lsl #20
 80005f2:	bd70      	pop	{r4, r5, r6, pc}
 80005f4:	f006 4600 	and.w	r6, r6, #2147483648	; 0x80000000
 80005f8:	ea46 0101 	orr.w	r1, r6, r1
 80005fc:	ea40 0002 	orr.w	r0, r0, r2
 8000600:	ea81 0103 	eor.w	r1, r1, r3
 8000604:	ebb4 045c 	subs.w	r4, r4, ip, lsr #1
 8000608:	bfc2      	ittt	gt
 800060a:	ebd4 050c 	rsbsgt	r5, r4, ip
 800060e:	ea41 5104 	orrgt.w	r1, r1, r4, lsl #20
 8000612:	bd70      	popgt	{r4, r5, r6, pc}
 8000614:	f441 1180 	orr.w	r1, r1, #1048576	; 0x100000
 8000618:	f04f 0e00 	mov.w	lr, #0
 800061c:	3c01      	subs	r4, #1
 800061e:	f300 80ab 	bgt.w	8000778 <__aeabi_dmul+0x238>
 8000622:	f114 0f36 	cmn.w	r4, #54	; 0x36
 8000626:	bfde      	ittt	le
 8000628:	2000      	movle	r0, #0
 800062a:	f001 4100 	andle.w	r1, r1, #2147483648	; 0x80000000
 800062e:	bd70      	pople	{r4, r5, r6, pc}
 8000630:	f1c4 0400 	rsb	r4, r4, #0
 8000634:	3c20      	subs	r4, #32
 8000636:	da35      	bge.n	80006a4 <__aeabi_dmul+0x164>
 8000638:	340c      	adds	r4, #12
 800063a:	dc1b      	bgt.n	8000674 <__aeabi_dmul+0x134>
 800063c:	f104 0414 	add.w	r4, r4, #20
 8000640:	f1c4 0520 	rsb	r5, r4, #32
 8000644:	fa00 f305 	lsl.w	r3, r0, r5
 8000648:	fa20 f004 	lsr.w	r0, r0, r4
 800064c:	fa01 f205 	lsl.w	r2, r1, r5
 8000650:	ea40 0002 	orr.w	r0, r0, r2
 8000654:	f001 4200 	and.w	r2, r1, #2147483648	; 0x80000000
 8000658:	f021 4100 	bic.w	r1, r1, #2147483648	; 0x80000000
 800065c:	eb10 70d3 	adds.w	r0, r0, r3, lsr #31
 8000660:	fa21 f604 	lsr.w	r6, r1, r4
 8000664:	eb42 0106 	adc.w	r1, r2, r6
 8000668:	ea5e 0e43 	orrs.w	lr, lr, r3, lsl #1
 800066c:	bf08      	it	eq
 800066e:	ea20 70d3 	biceq.w	r0, r0, r3, lsr #31
 8000672:	bd70      	pop	{r4, r5, r6, pc}
 8000674:	f1c4 040c 	rsb	r4, r4, #12
 8000678:	f1c4 0520 	rsb	r5, r4, #32
 800067c:	fa00 f304 	lsl.w	r3, r0, r4
 8000680:	fa20 f005 	lsr.w	r0, r0, r5
 8000684:	fa01 f204 	lsl.w	r2, r1, r4
 8000688:	ea40 0002 	orr.w	r0, r0, r2
 800068c:	f001 4100 	and.w	r1, r1, #2147483648	; 0x80000000
 8000690:	eb10 70d3 	adds.w	r0, r0, r3, lsr #31
 8000694:	f141 0100 	adc.w	r1, r1, #0
 8000698:	ea5e 0e43 	orrs.w	lr, lr, r3, lsl #1
 800069c:	bf08      	it	eq
 800069e:	ea20 70d3 	biceq.w	r0, r0, r3, lsr #31
 80006a2:	bd70      	pop	{r4, r5, r6, pc}
 80006a4:	f1c4 0520 	rsb	r5, r4, #32
 80006a8:	fa00 f205 	lsl.w	r2, r0, r5
 80006ac:	ea4e 0e02 	orr.w	lr, lr, r2
 80006b0:	fa20 f304 	lsr.w	r3, r0, r4
 80006b4:	fa01 f205 	lsl.w	r2, r1, r5
 80006b8:	ea43 0302 	orr.w	r3, r3, r2
 80006bc:	fa21 f004 	lsr.w	r0, r1, r4
 80006c0:	f001 4100 	and.w	r1, r1, #2147483648	; 0x80000000
 80006c4:	fa21 f204 	lsr.w	r2, r1, r4
 80006c8:	ea20 0002 	bic.w	r0, r0, r2
 80006cc:	eb00 70d3 	add.w	r0, r0, r3, lsr #31
 80006d0:	ea5e 0e43 	orrs.w	lr, lr, r3, lsl #1
 80006d4:	bf08      	it	eq
 80006d6:	ea20 70d3 	biceq.w	r0, r0, r3, lsr #31
 80006da:	bd70      	pop	{r4, r5, r6, pc}
 80006dc:	f094 0f00 	teq	r4, #0
 80006e0:	d10f      	bne.n	8000702 <__aeabi_dmul+0x1c2>
 80006e2:	f001 4600 	and.w	r6, r1, #2147483648	; 0x80000000
 80006e6:	0040      	lsls	r0, r0, #1
 80006e8:	eb41 0101 	adc.w	r1, r1, r1
 80006ec:	f411 1f80 	tst.w	r1, #1048576	; 0x100000
 80006f0:	bf08      	it	eq
 80006f2:	3c01      	subeq	r4, #1
 80006f4:	d0f7      	beq.n	80006e6 <__aeabi_dmul+0x1a6>
 80006f6:	ea41 0106 	orr.w	r1, r1, r6
 80006fa:	f095 0f00 	teq	r5, #0
 80006fe:	bf18      	it	ne
 8000700:	4770      	bxne	lr
 8000702:	f003 4600 	and.w	r6, r3, #2147483648	; 0x80000000
 8000706:	0052      	lsls	r2, r2, #1
 8000708:	eb43 0303 	adc.w	r3, r3, r3
 800070c:	f413 1f80 	tst.w	r3, #1048576	; 0x100000
 8000710:	bf08      	it	eq
 8000712:	3d01      	subeq	r5, #1
 8000714:	d0f7      	beq.n	8000706 <__aeabi_dmul+0x1c6>
 8000716:	ea43 0306 	orr.w	r3, r3, r6
 800071a:	4770      	bx	lr
 800071c:	ea94 0f0c 	teq	r4, ip
 8000720:	ea0c 5513 	and.w	r5, ip, r3, lsr #20
 8000724:	bf18      	it	ne
 8000726:	ea95 0f0c 	teqne	r5, ip
 800072a:	d00c      	beq.n	8000746 <__aeabi_dmul+0x206>
 800072c:	ea50 0641 	orrs.w	r6, r0, r1, lsl #1
 8000730:	bf18      	it	ne
 8000732:	ea52 0643 	orrsne.w	r6, r2, r3, lsl #1
 8000736:	d1d1      	bne.n	80006dc <__aeabi_dmul+0x19c>
 8000738:	ea81 0103 	eor.w	r1, r1, r3
 800073c:	f001 4100 	and.w	r1, r1, #2147483648	; 0x80000000
 8000740:	f04f 0000 	mov.w	r0, #0
 8000744:	bd70      	pop	{r4, r5, r6, pc}
 8000746:	ea50 0641 	orrs.w	r6, r0, r1, lsl #1
 800074a:	bf06      	itte	eq
 800074c:	4610      	moveq	r0, r2
 800074e:	4619      	moveq	r1, r3
 8000750:	ea52 0643 	orrsne.w	r6, r2, r3, lsl #1
 8000754:	d019      	beq.n	800078a <__aeabi_dmul+0x24a>
 8000756:	ea94 0f0c 	teq	r4, ip
 800075a:	d102      	bne.n	8000762 <__aeabi_dmul+0x222>
 800075c:	ea50 3601 	orrs.w	r6, r0, r1, lsl #12
 8000760:	d113      	bne.n	800078a <__aeabi_dmul+0x24a>
 8000762:	ea95 0f0c 	teq	r5, ip
 8000766:	d105      	bne.n	8000774 <__aeabi_dmul+0x234>
 8000768:	ea52 3603 	orrs.w	r6, r2, r3, lsl #12
 800076c:	bf1c      	itt	ne
 800076e:	4610      	movne	r0, r2
 8000770:	4619      	movne	r1, r3
 8000772:	d10a      	bne.n	800078a <__aeabi_dmul+0x24a>
 8000774:	ea81 0103 	eor.w	r1, r1, r3
 8000778:	f001 4100 	and.w	r1, r1, #2147483648	; 0x80000000
 800077c:	f041 41fe 	orr.w	r1, r1, #2130706432	; 0x7f000000
 8000780:	f441 0170 	orr.w	r1, r1, #15728640	; 0xf00000
 8000784:	f04f 0000 	mov.w	r0, #0
 8000788:	bd70      	pop	{r4, r5, r6, pc}
 800078a:	f041 41fe 	orr.w	r1, r1, #2130706432	; 0x7f000000
 800078e:	f441 0178 	orr.w	r1, r1, #16252928	; 0xf80000
 8000792:	bd70      	pop	{r4, r5, r6, pc}

08000794 <__aeabi_ddiv>:
 8000794:	b570      	push	{r4, r5, r6, lr}
 8000796:	f04f 0cff 	mov.w	ip, #255	; 0xff
 800079a:	f44c 6ce0 	orr.w	ip, ip, #1792	; 0x700
 800079e:	ea1c 5411 	ands.w	r4, ip, r1, lsr #20
 80007a2:	bf1d      	ittte	ne
 80007a4:	ea1c 5513 	andsne.w	r5, ip, r3, lsr #20
 80007a8:	ea94 0f0c 	teqne	r4, ip
 80007ac:	ea95 0f0c 	teqne	r5, ip
 80007b0:	f000 f8a7 	bleq	8000902 <__aeabi_ddiv+0x16e>
 80007b4:	eba4 0405 	sub.w	r4, r4, r5
 80007b8:	ea81 0e03 	eor.w	lr, r1, r3
 80007bc:	ea52 3503 	orrs.w	r5, r2, r3, lsl #12
 80007c0:	ea4f 3101 	mov.w	r1, r1, lsl #12
 80007c4:	f000 8088 	beq.w	80008d8 <__aeabi_ddiv+0x144>
 80007c8:	ea4f 3303 	mov.w	r3, r3, lsl #12
 80007cc:	f04f 5580 	mov.w	r5, #268435456	; 0x10000000
 80007d0:	ea45 1313 	orr.w	r3, r5, r3, lsr #4
 80007d4:	ea43 6312 	orr.w	r3, r3, r2, lsr #24
 80007d8:	ea4f 2202 	mov.w	r2, r2, lsl #8
 80007dc:	ea45 1511 	orr.w	r5, r5, r1, lsr #4
 80007e0:	ea45 6510 	orr.w	r5, r5, r0, lsr #24
 80007e4:	ea4f 2600 	mov.w	r6, r0, lsl #8
 80007e8:	f00e 4100 	and.w	r1, lr, #2147483648	; 0x80000000
 80007ec:	429d      	cmp	r5, r3
 80007ee:	bf08      	it	eq
 80007f0:	4296      	cmpeq	r6, r2
 80007f2:	f144 04fd 	adc.w	r4, r4, #253	; 0xfd
 80007f6:	f504 7440 	add.w	r4, r4, #768	; 0x300
 80007fa:	d202      	bcs.n	8000802 <__aeabi_ddiv+0x6e>
 80007fc:	085b      	lsrs	r3, r3, #1
 80007fe:	ea4f 0232 	mov.w	r2, r2, rrx
 8000802:	1ab6      	subs	r6, r6, r2
 8000804:	eb65 0503 	sbc.w	r5, r5, r3
 8000808:	085b      	lsrs	r3, r3, #1
 800080a:	ea4f 0232 	mov.w	r2, r2, rrx
 800080e:	f44f 1080 	mov.w	r0, #1048576	; 0x100000
 8000812:	f44f 2c00 	mov.w	ip, #524288	; 0x80000
 8000816:	ebb6 0e02 	subs.w	lr, r6, r2
 800081a:	eb75 0e03 	sbcs.w	lr, r5, r3
 800081e:	bf22      	ittt	cs
 8000820:	1ab6      	subcs	r6, r6, r2
 8000822:	4675      	movcs	r5, lr
 8000824:	ea40 000c 	orrcs.w	r0, r0, ip
 8000828:	085b      	lsrs	r3, r3, #1
 800082a:	ea4f 0232 	mov.w	r2, r2, rrx
 800082e:	ebb6 0e02 	subs.w	lr, r6, r2
 8000832:	eb75 0e03 	sbcs.w	lr, r5, r3
 8000836:	bf22      	ittt	cs
 8000838:	1ab6      	subcs	r6, r6, r2
 800083a:	4675      	movcs	r5, lr
 800083c:	ea40 005c 	orrcs.w	r0, r0, ip, lsr #1
 8000840:	085b      	lsrs	r3, r3, #1
 8000842:	ea4f 0232 	mov.w	r2, r2, rrx
 8000846:	ebb6 0e02 	subs.w	lr, r6, r2
 800084a:	eb75 0e03 	sbcs.w	lr, r5, r3
 800084e:	bf22      	ittt	cs
 8000850:	1ab6      	subcs	r6, r6, r2
 8000852:	4675      	movcs	r5, lr
 8000854:	ea40 009c 	orrcs.w	r0, r0, ip, lsr #2
 8000858:	085b      	lsrs	r3, r3, #1
 800085a:	ea4f 0232 	mov.w	r2, r2, rrx
 800085e:	ebb6 0e02 	subs.w	lr, r6, r2
 8000862:	eb75 0e03 	sbcs.w	lr, r5, r3
 8000866:	bf22      	ittt	cs
 8000868:	1ab6      	subcs	r6, r6, r2
 800086a:	4675      	movcs	r5, lr
 800086c:	ea40 00dc 	orrcs.w	r0, r0, ip, lsr #3
 8000870:	ea55 0e06 	orrs.w	lr, r5, r6
 8000874:	d018      	beq.n	80008a8 <__aeabi_ddiv+0x114>
 8000876:	ea4f 1505 	mov.w	r5, r5, lsl #4
 800087a:	ea45 7516 	orr.w	r5, r5, r6, lsr #28
 800087e:	ea4f 1606 	mov.w	r6, r6, lsl #4
 8000882:	ea4f 03c3 	mov.w	r3, r3, lsl #3
 8000886:	ea43 7352 	orr.w	r3, r3, r2, lsr #29
 800088a:	ea4f 02c2 	mov.w	r2, r2, lsl #3
 800088e:	ea5f 1c1c 	movs.w	ip, ip, lsr #4
 8000892:	d1c0      	bne.n	8000816 <__aeabi_ddiv+0x82>
 8000894:	f411 1f80 	tst.w	r1, #1048576	; 0x100000
 8000898:	d10b      	bne.n	80008b2 <__aeabi_ddiv+0x11e>
 800089a:	ea41 0100 	orr.w	r1, r1, r0
 800089e:	f04f 0000 	mov.w	r0, #0
 80008a2:	f04f 4c00 	mov.w	ip, #2147483648	; 0x80000000
 80008a6:	e7b6      	b.n	8000816 <__aeabi_ddiv+0x82>
 80008a8:	f411 1f80 	tst.w	r1, #1048576	; 0x100000
 80008ac:	bf04      	itt	eq
 80008ae:	4301      	orreq	r1, r0
 80008b0:	2000      	moveq	r0, #0
 80008b2:	f1b4 0cfd 	subs.w	ip, r4, #253	; 0xfd
 80008b6:	bf88      	it	hi
 80008b8:	f5bc 6fe0 	cmphi.w	ip, #1792	; 0x700
 80008bc:	f63f aeaf 	bhi.w	800061e <__aeabi_dmul+0xde>
 80008c0:	ebb5 0c03 	subs.w	ip, r5, r3
 80008c4:	bf04      	itt	eq
 80008c6:	ebb6 0c02 	subseq.w	ip, r6, r2
 80008ca:	ea5f 0c50 	movseq.w	ip, r0, lsr #1
 80008ce:	f150 0000 	adcs.w	r0, r0, #0
 80008d2:	eb41 5104 	adc.w	r1, r1, r4, lsl #20
 80008d6:	bd70      	pop	{r4, r5, r6, pc}
 80008d8:	f00e 4e00 	and.w	lr, lr, #2147483648	; 0x80000000
 80008dc:	ea4e 3111 	orr.w	r1, lr, r1, lsr #12
 80008e0:	eb14 045c 	adds.w	r4, r4, ip, lsr #1
 80008e4:	bfc2      	ittt	gt
 80008e6:	ebd4 050c 	rsbsgt	r5, r4, ip
 80008ea:	ea41 5104 	orrgt.w	r1, r1, r4, lsl #20
 80008ee:	bd70      	popgt	{r4, r5, r6, pc}
 80008f0:	f441 1180 	orr.w	r1, r1, #1048576	; 0x100000
 80008f4:	f04f 0e00 	mov.w	lr, #0
 80008f8:	3c01      	subs	r4, #1
 80008fa:	e690      	b.n	800061e <__aeabi_dmul+0xde>
 80008fc:	ea45 0e06 	orr.w	lr, r5, r6
 8000900:	e68d      	b.n	800061e <__aeabi_dmul+0xde>
 8000902:	ea0c 5513 	and.w	r5, ip, r3, lsr #20
 8000906:	ea94 0f0c 	teq	r4, ip
 800090a:	bf08      	it	eq
 800090c:	ea95 0f0c 	teqeq	r5, ip
 8000910:	f43f af3b 	beq.w	800078a <__aeabi_dmul+0x24a>
 8000914:	ea94 0f0c 	teq	r4, ip
 8000918:	d10a      	bne.n	8000930 <__aeabi_ddiv+0x19c>
 800091a:	ea50 3401 	orrs.w	r4, r0, r1, lsl #12
 800091e:	f47f af34 	bne.w	800078a <__aeabi_dmul+0x24a>
 8000922:	ea95 0f0c 	teq	r5, ip
 8000926:	f47f af25 	bne.w	8000774 <__aeabi_dmul+0x234>
 800092a:	4610      	mov	r0, r2
 800092c:	4619      	mov	r1, r3
 800092e:	e72c      	b.n	800078a <__aeabi_dmul+0x24a>
 8000930:	ea95 0f0c 	teq	r5, ip
 8000934:	d106      	bne.n	8000944 <__aeabi_ddiv+0x1b0>
 8000936:	ea52 3503 	orrs.w	r5, r2, r3, lsl #12
 800093a:	f43f aefd 	beq.w	8000738 <__aeabi_dmul+0x1f8>
 800093e:	4610      	mov	r0, r2
 8000940:	4619      	mov	r1, r3
 8000942:	e722      	b.n	800078a <__aeabi_dmul+0x24a>
 8000944:	ea50 0641 	orrs.w	r6, r0, r1, lsl #1
 8000948:	bf18      	it	ne
 800094a:	ea52 0643 	orrsne.w	r6, r2, r3, lsl #1
 800094e:	f47f aec5 	bne.w	80006dc <__aeabi_dmul+0x19c>
 8000952:	ea50 0441 	orrs.w	r4, r0, r1, lsl #1
 8000956:	f47f af0d 	bne.w	8000774 <__aeabi_dmul+0x234>
 800095a:	ea52 0543 	orrs.w	r5, r2, r3, lsl #1
 800095e:	f47f aeeb 	bne.w	8000738 <__aeabi_dmul+0x1f8>
 8000962:	e712      	b.n	800078a <__aeabi_dmul+0x24a>

08000964 <__aeabi_d2f>:
 8000964:	ea4f 0241 	mov.w	r2, r1, lsl #1
 8000968:	f1b2 43e0 	subs.w	r3, r2, #1879048192	; 0x70000000
 800096c:	bf24      	itt	cs
 800096e:	f5b3 1c00 	subscs.w	ip, r3, #2097152	; 0x200000
 8000972:	f1dc 5cfe 	rsbscs	ip, ip, #532676608	; 0x1fc00000
 8000976:	d90d      	bls.n	8000994 <__aeabi_d2f+0x30>
 8000978:	f001 4c00 	and.w	ip, r1, #2147483648	; 0x80000000
 800097c:	ea4f 02c0 	mov.w	r2, r0, lsl #3
 8000980:	ea4c 7050 	orr.w	r0, ip, r0, lsr #29
 8000984:	f1b2 4f00 	cmp.w	r2, #2147483648	; 0x80000000
 8000988:	eb40 0083 	adc.w	r0, r0, r3, lsl #2
 800098c:	bf08      	it	eq
 800098e:	f020 0001 	biceq.w	r0, r0, #1
 8000992:	4770      	bx	lr
 8000994:	f011 4f80 	tst.w	r1, #1073741824	; 0x40000000
 8000998:	d121      	bne.n	80009de <__aeabi_d2f+0x7a>
 800099a:	f113 7238 	adds.w	r2, r3, #48234496	; 0x2e00000
 800099e:	bfbc      	itt	lt
 80009a0:	f001 4000 	andlt.w	r0, r1, #2147483648	; 0x80000000
 80009a4:	4770      	bxlt	lr
 80009a6:	f441 1180 	orr.w	r1, r1, #1048576	; 0x100000
 80009aa:	ea4f 5252 	mov.w	r2, r2, lsr #21
 80009ae:	f1c2 0218 	rsb	r2, r2, #24
 80009b2:	f1c2 0c20 	rsb	ip, r2, #32
 80009b6:	fa10 f30c 	lsls.w	r3, r0, ip
 80009ba:	fa20 f002 	lsr.w	r0, r0, r2
 80009be:	bf18      	it	ne
 80009c0:	f040 0001 	orrne.w	r0, r0, #1
 80009c4:	ea4f 23c1 	mov.w	r3, r1, lsl #11
 80009c8:	ea4f 23d3 	mov.w	r3, r3, lsr #11
 80009cc:	fa03 fc0c 	lsl.w	ip, r3, ip
 80009d0:	ea40 000c 	orr.w	r0, r0, ip
 80009d4:	fa23 f302 	lsr.w	r3, r3, r2
 80009d8:	ea4f 0343 	mov.w	r3, r3, lsl #1
 80009dc:	e7cc      	b.n	8000978 <__aeabi_d2f+0x14>
 80009de:	ea7f 5362 	mvns.w	r3, r2, asr #21
 80009e2:	d107      	bne.n	80009f4 <__aeabi_d2f+0x90>
 80009e4:	ea50 3301 	orrs.w	r3, r0, r1, lsl #12
 80009e8:	bf1e      	ittt	ne
 80009ea:	f04f 40fe 	movne.w	r0, #2130706432	; 0x7f000000
 80009ee:	f440 0040 	orrne.w	r0, r0, #12582912	; 0xc00000
 80009f2:	4770      	bxne	lr
 80009f4:	f001 4000 	and.w	r0, r1, #2147483648	; 0x80000000
 80009f8:	f040 40fe 	orr.w	r0, r0, #2130706432	; 0x7f000000
 80009fc:	f440 0000 	orr.w	r0, r0, #8388608	; 0x800000
 8000a00:	4770      	bx	lr
 8000a02:	bf00      	nop

08000a04 <__aeabi_uldivmod>:
 8000a04:	b953      	cbnz	r3, 8000a1c <__aeabi_uldivmod+0x18>
 8000a06:	b94a      	cbnz	r2, 8000a1c <__aeabi_uldivmod+0x18>
 8000a08:	2900      	cmp	r1, #0
 8000a0a:	bf08      	it	eq
 8000a0c:	2800      	cmpeq	r0, #0
 8000a0e:	bf1c      	itt	ne
 8000a10:	f04f 31ff 	movne.w	r1, #4294967295
 8000a14:	f04f 30ff 	movne.w	r0, #4294967295
 8000a18:	f000 b970 	b.w	8000cfc <__aeabi_idiv0>
 8000a1c:	f1ad 0c08 	sub.w	ip, sp, #8
 8000a20:	e96d ce04 	strd	ip, lr, [sp, #-16]!
 8000a24:	f000 f806 	bl	8000a34 <__udivmoddi4>
 8000a28:	f8dd e004 	ldr.w	lr, [sp, #4]
 8000a2c:	e9dd 2302 	ldrd	r2, r3, [sp, #8]
 8000a30:	b004      	add	sp, #16
 8000a32:	4770      	bx	lr

08000a34 <__udivmoddi4>:
 8000a34:	e92d 47f0 	stmdb	sp!, {r4, r5, r6, r7, r8, r9, sl, lr}
 8000a38:	9e08      	ldr	r6, [sp, #32]
 8000a3a:	460d      	mov	r5, r1
 8000a3c:	4604      	mov	r4, r0
 8000a3e:	460f      	mov	r7, r1
 8000a40:	2b00      	cmp	r3, #0
 8000a42:	d14a      	bne.n	8000ada <__udivmoddi4+0xa6>
 8000a44:	428a      	cmp	r2, r1
 8000a46:	4694      	mov	ip, r2
 8000a48:	d965      	bls.n	8000b16 <__udivmoddi4+0xe2>
 8000a4a:	fab2 f382 	clz	r3, r2
 8000a4e:	b143      	cbz	r3, 8000a62 <__udivmoddi4+0x2e>
 8000a50:	fa02 fc03 	lsl.w	ip, r2, r3
 8000a54:	f1c3 0220 	rsb	r2, r3, #32
 8000a58:	409f      	lsls	r7, r3
 8000a5a:	fa20 f202 	lsr.w	r2, r0, r2
 8000a5e:	4317      	orrs	r7, r2
 8000a60:	409c      	lsls	r4, r3
 8000a62:	ea4f 4e1c 	mov.w	lr, ip, lsr #16
 8000a66:	fa1f f58c 	uxth.w	r5, ip
 8000a6a:	fbb7 f1fe 	udiv	r1, r7, lr
 8000a6e:	0c22      	lsrs	r2, r4, #16
 8000a70:	fb0e 7711 	mls	r7, lr, r1, r7
 8000a74:	ea42 4207 	orr.w	r2, r2, r7, lsl #16
 8000a78:	fb01 f005 	mul.w	r0, r1, r5
 8000a7c:	4290      	cmp	r0, r2
 8000a7e:	d90a      	bls.n	8000a96 <__udivmoddi4+0x62>
 8000a80:	eb1c 0202 	adds.w	r2, ip, r2
 8000a84:	f101 37ff 	add.w	r7, r1, #4294967295
 8000a88:	f080 811c 	bcs.w	8000cc4 <__udivmoddi4+0x290>
 8000a8c:	4290      	cmp	r0, r2
 8000a8e:	f240 8119 	bls.w	8000cc4 <__udivmoddi4+0x290>
 8000a92:	3902      	subs	r1, #2
 8000a94:	4462      	add	r2, ip
 8000a96:	1a12      	subs	r2, r2, r0
 8000a98:	b2a4      	uxth	r4, r4
 8000a9a:	fbb2 f0fe 	udiv	r0, r2, lr
 8000a9e:	fb0e 2210 	mls	r2, lr, r0, r2
 8000aa2:	ea44 4402 	orr.w	r4, r4, r2, lsl #16
 8000aa6:	fb00 f505 	mul.w	r5, r0, r5
 8000aaa:	42a5      	cmp	r5, r4
 8000aac:	d90a      	bls.n	8000ac4 <__udivmoddi4+0x90>
 8000aae:	eb1c 0404 	adds.w	r4, ip, r4
 8000ab2:	f100 32ff 	add.w	r2, r0, #4294967295
 8000ab6:	f080 8107 	bcs.w	8000cc8 <__udivmoddi4+0x294>
 8000aba:	42a5      	cmp	r5, r4
 8000abc:	f240 8104 	bls.w	8000cc8 <__udivmoddi4+0x294>
 8000ac0:	4464      	add	r4, ip
 8000ac2:	3802      	subs	r0, #2
 8000ac4:	ea40 4001 	orr.w	r0, r0, r1, lsl #16
 8000ac8:	1b64      	subs	r4, r4, r5
 8000aca:	2100      	movs	r1, #0
 8000acc:	b11e      	cbz	r6, 8000ad6 <__udivmoddi4+0xa2>
 8000ace:	40dc      	lsrs	r4, r3
 8000ad0:	2300      	movs	r3, #0
 8000ad2:	e9c6 4300 	strd	r4, r3, [r6]
 8000ad6:	e8bd 87f0 	ldmia.w	sp!, {r4, r5, r6, r7, r8, r9, sl, pc}
 8000ada:	428b      	cmp	r3, r1
 8000adc:	d908      	bls.n	8000af0 <__udivmoddi4+0xbc>
 8000ade:	2e00      	cmp	r6, #0
 8000ae0:	f000 80ed 	beq.w	8000cbe <__udivmoddi4+0x28a>
 8000ae4:	2100      	movs	r1, #0
 8000ae6:	e9c6 0500 	strd	r0, r5, [r6]
 8000aea:	4608      	mov	r0, r1
 8000aec:	e8bd 87f0 	ldmia.w	sp!, {r4, r5, r6, r7, r8, r9, sl, pc}
 8000af0:	fab3 f183 	clz	r1, r3
 8000af4:	2900      	cmp	r1, #0
 8000af6:	d149      	bne.n	8000b8c <__udivmoddi4+0x158>
 8000af8:	42ab      	cmp	r3, r5
 8000afa:	d302      	bcc.n	8000b02 <__udivmoddi4+0xce>
 8000afc:	4282      	cmp	r2, r0
 8000afe:	f200 80f8 	bhi.w	8000cf2 <__udivmoddi4+0x2be>
 8000b02:	1a84      	subs	r4, r0, r2
 8000b04:	eb65 0203 	sbc.w	r2, r5, r3
 8000b08:	2001      	movs	r0, #1
 8000b0a:	4617      	mov	r7, r2
 8000b0c:	2e00      	cmp	r6, #0
 8000b0e:	d0e2      	beq.n	8000ad6 <__udivmoddi4+0xa2>
 8000b10:	e9c6 4700 	strd	r4, r7, [r6]
 8000b14:	e7df      	b.n	8000ad6 <__udivmoddi4+0xa2>
 8000b16:	b902      	cbnz	r2, 8000b1a <__udivmoddi4+0xe6>
 8000b18:	deff      	udf	#255	; 0xff
 8000b1a:	fab2 f382 	clz	r3, r2
 8000b1e:	2b00      	cmp	r3, #0
 8000b20:	f040 8090 	bne.w	8000c44 <__udivmoddi4+0x210>
 8000b24:	1a8a      	subs	r2, r1, r2
 8000b26:	ea4f 471c 	mov.w	r7, ip, lsr #16
 8000b2a:	fa1f fe8c 	uxth.w	lr, ip
 8000b2e:	2101      	movs	r1, #1
 8000b30:	fbb2 f5f7 	udiv	r5, r2, r7
 8000b34:	fb07 2015 	mls	r0, r7, r5, r2
 8000b38:	0c22      	lsrs	r2, r4, #16
 8000b3a:	ea42 4200 	orr.w	r2, r2, r0, lsl #16
 8000b3e:	fb0e f005 	mul.w	r0, lr, r5
 8000b42:	4290      	cmp	r0, r2
 8000b44:	d908      	bls.n	8000b58 <__udivmoddi4+0x124>
 8000b46:	eb1c 0202 	adds.w	r2, ip, r2
 8000b4a:	f105 38ff 	add.w	r8, r5, #4294967295
 8000b4e:	d202      	bcs.n	8000b56 <__udivmoddi4+0x122>
 8000b50:	4290      	cmp	r0, r2
 8000b52:	f200 80cb 	bhi.w	8000cec <__udivmoddi4+0x2b8>
 8000b56:	4645      	mov	r5, r8
 8000b58:	1a12      	subs	r2, r2, r0
 8000b5a:	b2a4      	uxth	r4, r4
 8000b5c:	fbb2 f0f7 	udiv	r0, r2, r7
 8000b60:	fb07 2210 	mls	r2, r7, r0, r2
 8000b64:	ea44 4402 	orr.w	r4, r4, r2, lsl #16
 8000b68:	fb0e fe00 	mul.w	lr, lr, r0
 8000b6c:	45a6      	cmp	lr, r4
 8000b6e:	d908      	bls.n	8000b82 <__udivmoddi4+0x14e>
 8000b70:	eb1c 0404 	adds.w	r4, ip, r4
 8000b74:	f100 32ff 	add.w	r2, r0, #4294967295
 8000b78:	d202      	bcs.n	8000b80 <__udivmoddi4+0x14c>
 8000b7a:	45a6      	cmp	lr, r4
 8000b7c:	f200 80bb 	bhi.w	8000cf6 <__udivmoddi4+0x2c2>
 8000b80:	4610      	mov	r0, r2
 8000b82:	eba4 040e 	sub.w	r4, r4, lr
 8000b86:	ea40 4005 	orr.w	r0, r0, r5, lsl #16
 8000b8a:	e79f      	b.n	8000acc <__udivmoddi4+0x98>
 8000b8c:	f1c1 0720 	rsb	r7, r1, #32
 8000b90:	408b      	lsls	r3, r1
 8000b92:	fa22 fc07 	lsr.w	ip, r2, r7
 8000b96:	ea4c 0c03 	orr.w	ip, ip, r3
 8000b9a:	fa05 f401 	lsl.w	r4, r5, r1
 8000b9e:	fa20 f307 	lsr.w	r3, r0, r7
 8000ba2:	40fd      	lsrs	r5, r7
 8000ba4:	ea4f 491c 	mov.w	r9, ip, lsr #16
 8000ba8:	4323      	orrs	r3, r4
 8000baa:	fbb5 f8f9 	udiv	r8, r5, r9
 8000bae:	fa1f fe8c 	uxth.w	lr, ip
 8000bb2:	fb09 5518 	mls	r5, r9, r8, r5
 8000bb6:	0c1c      	lsrs	r4, r3, #16
 8000bb8:	ea44 4405 	orr.w	r4, r4, r5, lsl #16
 8000bbc:	fb08 f50e 	mul.w	r5, r8, lr
 8000bc0:	42a5      	cmp	r5, r4
 8000bc2:	fa02 f201 	lsl.w	r2, r2, r1
 8000bc6:	fa00 f001 	lsl.w	r0, r0, r1
 8000bca:	d90b      	bls.n	8000be4 <__udivmoddi4+0x1b0>
 8000bcc:	eb1c 0404 	adds.w	r4, ip, r4
 8000bd0:	f108 3aff 	add.w	sl, r8, #4294967295
 8000bd4:	f080 8088 	bcs.w	8000ce8 <__udivmoddi4+0x2b4>
 8000bd8:	42a5      	cmp	r5, r4
 8000bda:	f240 8085 	bls.w	8000ce8 <__udivmoddi4+0x2b4>
 8000bde:	f1a8 0802 	sub.w	r8, r8, #2
 8000be2:	4464      	add	r4, ip
 8000be4:	1b64      	subs	r4, r4, r5
 8000be6:	b29d      	uxth	r5, r3
 8000be8:	fbb4 f3f9 	udiv	r3, r4, r9
 8000bec:	fb09 4413 	mls	r4, r9, r3, r4
 8000bf0:	ea45 4404 	orr.w	r4, r5, r4, lsl #16
 8000bf4:	fb03 fe0e 	mul.w	lr, r3, lr
 8000bf8:	45a6      	cmp	lr, r4
 8000bfa:	d908      	bls.n	8000c0e <__udivmoddi4+0x1da>
 8000bfc:	eb1c 0404 	adds.w	r4, ip, r4
 8000c00:	f103 35ff 	add.w	r5, r3, #4294967295
 8000c04:	d26c      	bcs.n	8000ce0 <__udivmoddi4+0x2ac>
 8000c06:	45a6      	cmp	lr, r4
 8000c08:	d96a      	bls.n	8000ce0 <__udivmoddi4+0x2ac>
 8000c0a:	3b02      	subs	r3, #2
 8000c0c:	4464      	add	r4, ip
 8000c0e:	ea43 4308 	orr.w	r3, r3, r8, lsl #16
 8000c12:	fba3 9502 	umull	r9, r5, r3, r2
 8000c16:	eba4 040e 	sub.w	r4, r4, lr
 8000c1a:	42ac      	cmp	r4, r5
 8000c1c:	46c8      	mov	r8, r9
 8000c1e:	46ae      	mov	lr, r5
 8000c20:	d356      	bcc.n	8000cd0 <__udivmoddi4+0x29c>
 8000c22:	d053      	beq.n	8000ccc <__udivmoddi4+0x298>
 8000c24:	b156      	cbz	r6, 8000c3c <__udivmoddi4+0x208>
 8000c26:	ebb0 0208 	subs.w	r2, r0, r8
 8000c2a:	eb64 040e 	sbc.w	r4, r4, lr
 8000c2e:	fa04 f707 	lsl.w	r7, r4, r7
 8000c32:	40ca      	lsrs	r2, r1
 8000c34:	40cc      	lsrs	r4, r1
 8000c36:	4317      	orrs	r7, r2
 8000c38:	e9c6 7400 	strd	r7, r4, [r6]
 8000c3c:	4618      	mov	r0, r3
 8000c3e:	2100      	movs	r1, #0
 8000c40:	e8bd 87f0 	ldmia.w	sp!, {r4, r5, r6, r7, r8, r9, sl, pc}
 8000c44:	f1c3 0120 	rsb	r1, r3, #32
 8000c48:	fa02 fc03 	lsl.w	ip, r2, r3
 8000c4c:	fa20 f201 	lsr.w	r2, r0, r1
 8000c50:	fa25 f101 	lsr.w	r1, r5, r1
 8000c54:	409d      	lsls	r5, r3
 8000c56:	432a      	orrs	r2, r5
 8000c58:	ea4f 471c 	mov.w	r7, ip, lsr #16
 8000c5c:	fa1f fe8c 	uxth.w	lr, ip
 8000c60:	fbb1 f0f7 	udiv	r0, r1, r7
 8000c64:	fb07 1510 	mls	r5, r7, r0, r1
 8000c68:	0c11      	lsrs	r1, r2, #16
 8000c6a:	ea41 4105 	orr.w	r1, r1, r5, lsl #16
 8000c6e:	fb00 f50e 	mul.w	r5, r0, lr
 8000c72:	428d      	cmp	r5, r1
 8000c74:	fa04 f403 	lsl.w	r4, r4, r3
 8000c78:	d908      	bls.n	8000c8c <__udivmoddi4+0x258>
 8000c7a:	eb1c 0101 	adds.w	r1, ip, r1
 8000c7e:	f100 38ff 	add.w	r8, r0, #4294967295
 8000c82:	d22f      	bcs.n	8000ce4 <__udivmoddi4+0x2b0>
 8000c84:	428d      	cmp	r5, r1
 8000c86:	d92d      	bls.n	8000ce4 <__udivmoddi4+0x2b0>
 8000c88:	3802      	subs	r0, #2
 8000c8a:	4461      	add	r1, ip
 8000c8c:	1b49      	subs	r1, r1, r5
 8000c8e:	b292      	uxth	r2, r2
 8000c90:	fbb1 f5f7 	udiv	r5, r1, r7
 8000c94:	fb07 1115 	mls	r1, r7, r5, r1
 8000c98:	ea42 4201 	orr.w	r2, r2, r1, lsl #16
 8000c9c:	fb05 f10e 	mul.w	r1, r5, lr
 8000ca0:	4291      	cmp	r1, r2
 8000ca2:	d908      	bls.n	8000cb6 <__udivmoddi4+0x282>
 8000ca4:	eb1c 0202 	adds.w	r2, ip, r2
 8000ca8:	f105 38ff 	add.w	r8, r5, #4294967295
 8000cac:	d216      	bcs.n	8000cdc <__udivmoddi4+0x2a8>
 8000cae:	4291      	cmp	r1, r2
 8000cb0:	d914      	bls.n	8000cdc <__udivmoddi4+0x2a8>
 8000cb2:	3d02      	subs	r5, #2
 8000cb4:	4462      	add	r2, ip
 8000cb6:	1a52      	subs	r2, r2, r1
 8000cb8:	ea45 4100 	orr.w	r1, r5, r0, lsl #16
 8000cbc:	e738      	b.n	8000b30 <__udivmoddi4+0xfc>
 8000cbe:	4631      	mov	r1, r6
 8000cc0:	4630      	mov	r0, r6
 8000cc2:	e708      	b.n	8000ad6 <__udivmoddi4+0xa2>
 8000cc4:	4639      	mov	r1, r7
 8000cc6:	e6e6      	b.n	8000a96 <__udivmoddi4+0x62>
 8000cc8:	4610      	mov	r0, r2
 8000cca:	e6fb      	b.n	8000ac4 <__udivmoddi4+0x90>
 8000ccc:	4548      	cmp	r0, r9
 8000cce:	d2a9      	bcs.n	8000c24 <__udivmoddi4+0x1f0>
 8000cd0:	ebb9 0802 	subs.w	r8, r9, r2
 8000cd4:	eb65 0e0c 	sbc.w	lr, r5, ip
 8000cd8:	3b01      	subs	r3, #1
 8000cda:	e7a3      	b.n	8000c24 <__udivmoddi4+0x1f0>
 8000cdc:	4645      	mov	r5, r8
 8000cde:	e7ea      	b.n	8000cb6 <__udivmoddi4+0x282>
 8000ce0:	462b      	mov	r3, r5
 8000ce2:	e794      	b.n	8000c0e <__udivmoddi4+0x1da>
 8000ce4:	4640      	mov	r0, r8
 8000ce6:	e7d1      	b.n	8000c8c <__udivmoddi4+0x258>
 8000ce8:	46d0      	mov	r8, sl
 8000cea:	e77b      	b.n	8000be4 <__udivmoddi4+0x1b0>
 8000cec:	3d02      	subs	r5, #2
 8000cee:	4462      	add	r2, ip
 8000cf0:	e732      	b.n	8000b58 <__udivmoddi4+0x124>
 8000cf2:	4608      	mov	r0, r1
 8000cf4:	e70a      	b.n	8000b0c <__udivmoddi4+0xd8>
 8000cf6:	4464      	add	r4, ip
 8000cf8:	3802      	subs	r0, #2
 8000cfa:	e742      	b.n	8000b82 <__udivmoddi4+0x14e>

08000cfc <__aeabi_idiv0>:
 8000cfc:	4770      	bx	lr
 8000cfe:	bf00      	nop

08000d00 <InitSlave>:
#include "lcd.h"

Slave_Device BKIT01;


void InitSlave(Slave_Device* hDev){
 8000d00:	b580      	push	{r7, lr}
 8000d02:	b082      	sub	sp, #8
 8000d04:	af00      	add	r7, sp, #0
 8000d06:	6078      	str	r0, [r7, #4]
	hDev->signal = IDLE;
 8000d08:	687b      	ldr	r3, [r7, #4]
 8000d0a:	2200      	movs	r2, #0
 8000d0c:	705a      	strb	r2, [r3, #1]
	hDev->subsignal.s = 0;
 8000d0e:	687b      	ldr	r3, [r7, #4]
 8000d10:	2200      	movs	r2, #0
 8000d12:	701a      	strb	r2, [r3, #0]
	hDev->Address = SLAVE_ADDRESS;
 8000d14:	687b      	ldr	r3, [r7, #4]
 8000d16:	2201      	movs	r2, #1
 8000d18:	731a      	strb	r2, [r3, #12]
	memset(hDev->Register, 0, sizeof(hDev->Register));
 8000d1a:	687b      	ldr	r3, [r7, #4]
 8000d1c:	3302      	adds	r3, #2
 8000d1e:	220a      	movs	r2, #10
 8000d20:	2100      	movs	r1, #0
 8000d22:	4618      	mov	r0, r3
 8000d24:	f007 f91c 	bl	8007f60 <memset>
	Modbus_Init(&slave, &huart3);
 8000d28:	4903      	ldr	r1, [pc, #12]	; (8000d38 <InitSlave+0x38>)
 8000d2a:	4804      	ldr	r0, [pc, #16]	; (8000d3c <InitSlave+0x3c>)
 8000d2c:	f001 fd76 	bl	800281c <Modbus_Init>
}
 8000d30:	bf00      	nop
 8000d32:	3708      	adds	r7, #8
 8000d34:	46bd      	mov	sp, r7
 8000d36:	bd80      	pop	{r7, pc}
 8000d38:	20000754 	.word	0x20000754
 8000d3c:	2000039c 	.word	0x2000039c

08000d40 <CommandParser_handler>:

void CommandParser_handler(Slave_Device* hDev){
 8000d40:	b580      	push	{r7, lr}
 8000d42:	b082      	sub	sp, #8
 8000d44:	af00      	add	r7, sp, #0
 8000d46:	6078      	str	r0, [r7, #4]
	if((slave.Rx_buf[0] != hDev->Address) || !Modbus_CheckData(&slave)){
 8000d48:	4b23      	ldr	r3, [pc, #140]	; (8000dd8 <CommandParser_handler+0x98>)
 8000d4a:	f893 2108 	ldrb.w	r2, [r3, #264]	; 0x108
 8000d4e:	687b      	ldr	r3, [r7, #4]
 8000d50:	7b1b      	ldrb	r3, [r3, #12]
 8000d52:	429a      	cmp	r2, r3
 8000d54:	d105      	bne.n	8000d62 <CommandParser_handler+0x22>
 8000d56:	4820      	ldr	r0, [pc, #128]	; (8000dd8 <CommandParser_handler+0x98>)
 8000d58:	f001 fc76 	bl	8002648 <Modbus_CheckData>
 8000d5c:	4603      	mov	r3, r0
 8000d5e:	2b00      	cmp	r3, #0
 8000d60:	d103      	bne.n	8000d6a <CommandParser_handler+0x2a>
		hDev->signal = IDLE;
 8000d62:	687b      	ldr	r3, [r7, #4]
 8000d64:	2200      	movs	r2, #0
 8000d66:	705a      	strb	r2, [r3, #1]
		return;
 8000d68:	e032      	b.n	8000dd0 <CommandParser_handler+0x90>
	}

	switch(slave.Rx_buf[1]){
 8000d6a:	4b1b      	ldr	r3, [pc, #108]	; (8000dd8 <CommandParser_handler+0x98>)
 8000d6c:	f893 3109 	ldrb.w	r3, [r3, #265]	; 0x109
 8000d70:	3b01      	subs	r3, #1
 8000d72:	2b0f      	cmp	r3, #15
 8000d74:	d82b      	bhi.n	8000dce <CommandParser_handler+0x8e>
 8000d76:	a201      	add	r2, pc, #4	; (adr r2, 8000d7c <CommandParser_handler+0x3c>)
 8000d78:	f852 f023 	ldr.w	pc, [r2, r3, lsl #2]
 8000d7c:	08000dcd 	.word	0x08000dcd
 8000d80:	08000dcd 	.word	0x08000dcd
 8000d84:	08000dbd 	.word	0x08000dbd
 8000d88:	08000dcd 	.word	0x08000dcd
 8000d8c:	08000dcd 	.word	0x08000dcd
 8000d90:	08000dcd 	.word	0x08000dcd
 8000d94:	08000dcf 	.word	0x08000dcf
 8000d98:	08000dcf 	.word	0x08000dcf
 8000d9c:	08000dcf 	.word	0x08000dcf
 8000da0:	08000dcf 	.word	0x08000dcf
 8000da4:	08000dcf 	.word	0x08000dcf
 8000da8:	08000dcf 	.word	0x08000dcf
 8000dac:	08000dcf 	.word	0x08000dcf
 8000db0:	08000dcf 	.word	0x08000dcf
 8000db4:	08000dcd 	.word	0x08000dcd
 8000db8:	08000dc5 	.word	0x08000dc5
	}
	case READ_DISCRETE_INPUT:{
		break;
	}
	case READ_HOLDING_REGISTER:{
		hDev->signal = READ_SINGLE_REGISTER_HANDLER;
 8000dbc:	687b      	ldr	r3, [r7, #4]
 8000dbe:	2204      	movs	r2, #4
 8000dc0:	705a      	strb	r2, [r3, #1]
		break;
 8000dc2:	e004      	b.n	8000dce <CommandParser_handler+0x8e>
	}
	case WRITE_MULTIPLE_COIL:{
		break;
	}
	case WRITE_MULTIPLE_HOLDING_REGISTER:{
		hDev->signal = READ_MULTIPLE_HOLDING_REGISTER_HANDLER;
 8000dc4:	687b      	ldr	r3, [r7, #4]
 8000dc6:	2203      	movs	r2, #3
 8000dc8:	705a      	strb	r2, [r3, #1]
		break;
 8000dca:	e000      	b.n	8000dce <CommandParser_handler+0x8e>
		break;
 8000dcc:	bf00      	nop
	}
	}
	return;
 8000dce:	bf00      	nop
}
 8000dd0:	3708      	adds	r7, #8
 8000dd2:	46bd      	mov	sp, r7
 8000dd4:	bd80      	pop	{r7, pc}
 8000dd6:	bf00      	nop
 8000dd8:	2000039c 	.word	0x2000039c

08000ddc <splitFloat>:

void splitFloat(float input, uint8_t *integerPart, uint8_t *decimalPart) {
 8000ddc:	b480      	push	{r7}
 8000dde:	b087      	sub	sp, #28
 8000de0:	af00      	add	r7, sp, #0
 8000de2:	ed87 0a03 	vstr	s0, [r7, #12]
 8000de6:	60b8      	str	r0, [r7, #8]
 8000de8:	6079      	str	r1, [r7, #4]
    // Lấy phần nguyên
    *integerPart = (uint8_t)input;
 8000dea:	edd7 7a03 	vldr	s15, [r7, #12]
 8000dee:	eefc 7ae7 	vcvt.u32.f32	s15, s15
 8000df2:	edc7 7a00 	vstr	s15, [r7]
 8000df6:	783b      	ldrb	r3, [r7, #0]
 8000df8:	b2da      	uxtb	r2, r3
 8000dfa:	68bb      	ldr	r3, [r7, #8]
 8000dfc:	701a      	strb	r2, [r3, #0]

    // Lấy phần thập phân
    float fractional = input - *integerPart; // Tính phần thập phân
 8000dfe:	68bb      	ldr	r3, [r7, #8]
 8000e00:	781b      	ldrb	r3, [r3, #0]
 8000e02:	ee07 3a90 	vmov	s15, r3
 8000e06:	eef8 7ae7 	vcvt.f32.s32	s15, s15
 8000e0a:	ed97 7a03 	vldr	s14, [r7, #12]
 8000e0e:	ee77 7a67 	vsub.f32	s15, s14, s15
 8000e12:	edc7 7a05 	vstr	s15, [r7, #20]
    *decimalPart = (uint8_t)(fractional * 100); // Chuyển thành số nguyên trong khoảng 0-99
 8000e16:	edd7 7a05 	vldr	s15, [r7, #20]
 8000e1a:	ed9f 7a09 	vldr	s14, [pc, #36]	; 8000e40 <splitFloat+0x64>
 8000e1e:	ee67 7a87 	vmul.f32	s15, s15, s14
 8000e22:	eefc 7ae7 	vcvt.u32.f32	s15, s15
 8000e26:	edc7 7a00 	vstr	s15, [r7]
 8000e2a:	783b      	ldrb	r3, [r7, #0]
 8000e2c:	b2da      	uxtb	r2, r3
 8000e2e:	687b      	ldr	r3, [r7, #4]
 8000e30:	701a      	strb	r2, [r3, #0]
}
 8000e32:	bf00      	nop
 8000e34:	371c      	adds	r7, #28
 8000e36:	46bd      	mov	sp, r7
 8000e38:	f85d 7b04 	ldr.w	r7, [sp], #4
 8000e3c:	4770      	bx	lr
 8000e3e:	bf00      	nop
 8000e40:	42c80000 	.word	0x42c80000

08000e44 <splitUint16>:

void splitUint16(uint16_t input, uint8_t *higherByte, uint8_t *lowerByte) {
 8000e44:	b480      	push	{r7}
 8000e46:	b085      	sub	sp, #20
 8000e48:	af00      	add	r7, sp, #0
 8000e4a:	4603      	mov	r3, r0
 8000e4c:	60b9      	str	r1, [r7, #8]
 8000e4e:	607a      	str	r2, [r7, #4]
 8000e50:	81fb      	strh	r3, [r7, #14]
    *higherByte = (input >> 8) & 0xFF; // Lấy 8 bit cao
 8000e52:	89fb      	ldrh	r3, [r7, #14]
 8000e54:	0a1b      	lsrs	r3, r3, #8
 8000e56:	b29b      	uxth	r3, r3
 8000e58:	b2da      	uxtb	r2, r3
 8000e5a:	68bb      	ldr	r3, [r7, #8]
 8000e5c:	701a      	strb	r2, [r3, #0]
    *lowerByte = input & 0xFF;        // Lấy 8 bit thấp
 8000e5e:	89fb      	ldrh	r3, [r7, #14]
 8000e60:	b2da      	uxtb	r2, r3
 8000e62:	687b      	ldr	r3, [r7, #4]
 8000e64:	701a      	strb	r2, [r3, #0]
}
 8000e66:	bf00      	nop
 8000e68:	3714      	adds	r7, #20
 8000e6a:	46bd      	mov	sp, r7
 8000e6c:	f85d 7b04 	ldr.w	r7, [sp], #4
 8000e70:	4770      	bx	lr
	...

08000e74 <Read_multiple_holding_register_handler>:


void Read_multiple_holding_register_handler(Slave_Device* hDev){
 8000e74:	b590      	push	{r4, r7, lr}
 8000e76:	b085      	sub	sp, #20
 8000e78:	af02      	add	r7, sp, #8
 8000e7a:	6078      	str	r0, [r7, #4]
	Modbus_Transmit_Slave(&slave, hDev->Address, slave.Rx_buf[1], &hDev->Register[slave.Rx_buf[2]], slave.Rx_buf[3] * 2, 100);
 8000e7c:	687b      	ldr	r3, [r7, #4]
 8000e7e:	7b19      	ldrb	r1, [r3, #12]
 8000e80:	4b0c      	ldr	r3, [pc, #48]	; (8000eb4 <Read_multiple_holding_register_handler+0x40>)
 8000e82:	f893 2109 	ldrb.w	r2, [r3, #265]	; 0x109
 8000e86:	4b0b      	ldr	r3, [pc, #44]	; (8000eb4 <Read_multiple_holding_register_handler+0x40>)
 8000e88:	f893 310a 	ldrb.w	r3, [r3, #266]	; 0x10a
 8000e8c:	4618      	mov	r0, r3
 8000e8e:	687b      	ldr	r3, [r7, #4]
 8000e90:	4403      	add	r3, r0
 8000e92:	1c98      	adds	r0, r3, #2
 8000e94:	4b07      	ldr	r3, [pc, #28]	; (8000eb4 <Read_multiple_holding_register_handler+0x40>)
 8000e96:	f893 310b 	ldrb.w	r3, [r3, #267]	; 0x10b
 8000e9a:	005b      	lsls	r3, r3, #1
 8000e9c:	b2db      	uxtb	r3, r3
 8000e9e:	2464      	movs	r4, #100	; 0x64
 8000ea0:	9401      	str	r4, [sp, #4]
 8000ea2:	9300      	str	r3, [sp, #0]
 8000ea4:	4603      	mov	r3, r0
 8000ea6:	4803      	ldr	r0, [pc, #12]	; (8000eb4 <Read_multiple_holding_register_handler+0x40>)
 8000ea8:	f001 fc05 	bl	80026b6 <Modbus_Transmit_Slave>
	return;
 8000eac:	bf00      	nop
}
 8000eae:	370c      	adds	r7, #12
 8000eb0:	46bd      	mov	sp, r7
 8000eb2:	bd90      	pop	{r4, r7, pc}
 8000eb4:	2000039c 	.word	0x2000039c

08000eb8 <Read_single_register_handler>:

void Read_single_register_handler(Slave_Device* hDev){
 8000eb8:	b580      	push	{r7, lr}
 8000eba:	b086      	sub	sp, #24
 8000ebc:	af02      	add	r7, sp, #8
 8000ebe:	6078      	str	r0, [r7, #4]
	uint8_t data[3];
	data[0] = 3;
 8000ec0:	2303      	movs	r3, #3
 8000ec2:	733b      	strb	r3, [r7, #12]
	data[1] = hDev->Register[slave.Rx_buf[2]];
 8000ec4:	4b10      	ldr	r3, [pc, #64]	; (8000f08 <Read_single_register_handler+0x50>)
 8000ec6:	f893 310a 	ldrb.w	r3, [r3, #266]	; 0x10a
 8000eca:	461a      	mov	r2, r3
 8000ecc:	687b      	ldr	r3, [r7, #4]
 8000ece:	4413      	add	r3, r2
 8000ed0:	789b      	ldrb	r3, [r3, #2]
 8000ed2:	737b      	strb	r3, [r7, #13]
	data[2] = hDev->Register[slave.Rx_buf[2] + 1];
 8000ed4:	4b0c      	ldr	r3, [pc, #48]	; (8000f08 <Read_single_register_handler+0x50>)
 8000ed6:	f893 310a 	ldrb.w	r3, [r3, #266]	; 0x10a
 8000eda:	3301      	adds	r3, #1
 8000edc:	687a      	ldr	r2, [r7, #4]
 8000ede:	4413      	add	r3, r2
 8000ee0:	789b      	ldrb	r3, [r3, #2]
 8000ee2:	73bb      	strb	r3, [r7, #14]
	Modbus_Transmit_Slave(&slave, hDev->Address, slave.Rx_buf[1], data, 3, 100);
 8000ee4:	687b      	ldr	r3, [r7, #4]
 8000ee6:	7b19      	ldrb	r1, [r3, #12]
 8000ee8:	4b07      	ldr	r3, [pc, #28]	; (8000f08 <Read_single_register_handler+0x50>)
 8000eea:	f893 2109 	ldrb.w	r2, [r3, #265]	; 0x109
 8000eee:	f107 030c 	add.w	r3, r7, #12
 8000ef2:	2064      	movs	r0, #100	; 0x64
 8000ef4:	9001      	str	r0, [sp, #4]
 8000ef6:	2003      	movs	r0, #3
 8000ef8:	9000      	str	r0, [sp, #0]
 8000efa:	4803      	ldr	r0, [pc, #12]	; (8000f08 <Read_single_register_handler+0x50>)
 8000efc:	f001 fbdb 	bl	80026b6 <Modbus_Transmit_Slave>
	return;
 8000f00:	bf00      	nop
}
 8000f02:	3710      	adds	r7, #16
 8000f04:	46bd      	mov	sp, r7
 8000f06:	bd80      	pop	{r7, pc}
 8000f08:	2000039c 	.word	0x2000039c

08000f0c <ReadData>:

static void ReadData(Slave_Device* hDev){
 8000f0c:	b580      	push	{r7, lr}
 8000f0e:	b086      	sub	sp, #24
 8000f10:	af00      	add	r7, sp, #0
 8000f12:	6078      	str	r0, [r7, #4]
	float tempCur = sensor_get_current();
 8000f14:	f001 fd3c 	bl	8002990 <sensor_get_current>
 8000f18:	ed87 0a05 	vstr	s0, [r7, #20]
	uint16_t tempLt = sensor_get_light();
 8000f1c:	f001 fce4 	bl	80028e8 <sensor_get_light>
 8000f20:	4603      	mov	r3, r0
 8000f22:	827b      	strh	r3, [r7, #18]
	uint16_t tempPt =sensor_get_potentiometer();
 8000f24:	f001 fcec 	bl	8002900 <sensor_get_potentiometer>
 8000f28:	4603      	mov	r3, r0
 8000f2a:	823b      	strh	r3, [r7, #16]
	float tempT = sensor_get_temperature();
 8000f2c:	f001 fd8c 	bl	8002a48 <sensor_get_temperature>
 8000f30:	ed87 0a03 	vstr	s0, [r7, #12]
	float tempVol = sensor_get_voltage();
 8000f34:	f001 fcf0 	bl	8002918 <sensor_get_voltage>
 8000f38:	ed87 0a02 	vstr	s0, [r7, #8]

	// Current
	splitFloat(tempCur, &hDev->Register[CURRENT_REGISTER_ADDRESS], &hDev->Register[CURRENT_REGISTER_ADDRESS + 1]);
 8000f3c:	687b      	ldr	r3, [r7, #4]
 8000f3e:	1d9a      	adds	r2, r3, #6
 8000f40:	687b      	ldr	r3, [r7, #4]
 8000f42:	3307      	adds	r3, #7
 8000f44:	4619      	mov	r1, r3
 8000f46:	4610      	mov	r0, r2
 8000f48:	ed97 0a05 	vldr	s0, [r7, #20]
 8000f4c:	f7ff ff46 	bl	8000ddc <splitFloat>
	// Temperature
	splitFloat(tempT, &hDev->Register[TEMPERATURE_REGISTER_ADDRESS], &hDev->Register[TEMPERATURE_REGISTER_ADDRESS + 1]);
 8000f50:	687b      	ldr	r3, [r7, #4]
 8000f52:	1c9a      	adds	r2, r3, #2
 8000f54:	687b      	ldr	r3, [r7, #4]
 8000f56:	3303      	adds	r3, #3
 8000f58:	4619      	mov	r1, r3
 8000f5a:	4610      	mov	r0, r2
 8000f5c:	ed97 0a03 	vldr	s0, [r7, #12]
 8000f60:	f7ff ff3c 	bl	8000ddc <splitFloat>
	// Voltage
	splitFloat(tempVol, &hDev->Register[VOLTAGE_REGISTER_ADDRESS], &hDev->Register[VOLTAGE_REGISTER_ADDRESS + 1]);
 8000f64:	687b      	ldr	r3, [r7, #4]
 8000f66:	f103 0208 	add.w	r2, r3, #8
 8000f6a:	687b      	ldr	r3, [r7, #4]
 8000f6c:	3309      	adds	r3, #9
 8000f6e:	4619      	mov	r1, r3
 8000f70:	4610      	mov	r0, r2
 8000f72:	ed97 0a02 	vldr	s0, [r7, #8]
 8000f76:	f7ff ff31 	bl	8000ddc <splitFloat>
	// Light
	splitUint16(tempLt, &hDev->Register[LIGHT_REGISTER_ADDRESS], &hDev->Register[LIGHT_REGISTER_ADDRESS + 1]);
 8000f7a:	687b      	ldr	r3, [r7, #4]
 8000f7c:	1d19      	adds	r1, r3, #4
 8000f7e:	687b      	ldr	r3, [r7, #4]
 8000f80:	1d5a      	adds	r2, r3, #5
 8000f82:	8a7b      	ldrh	r3, [r7, #18]
 8000f84:	4618      	mov	r0, r3
 8000f86:	f7ff ff5d 	bl	8000e44 <splitUint16>
	// Potentiometer
	splitUint16(tempPt, &hDev->Register[POTENTIOMETER_REGISTER_ADDRESS], &hDev->Register[POTENTIOMETER_REGISTER_ADDRESS + 1]);
 8000f8a:	687b      	ldr	r3, [r7, #4]
 8000f8c:	f103 010a 	add.w	r1, r3, #10
 8000f90:	687b      	ldr	r3, [r7, #4]
 8000f92:	f103 020b 	add.w	r2, r3, #11
 8000f96:	8a3b      	ldrh	r3, [r7, #16]
 8000f98:	4618      	mov	r0, r3
 8000f9a:	f7ff ff53 	bl	8000e44 <splitUint16>

}
 8000f9e:	bf00      	nop
 8000fa0:	3718      	adds	r7, #24
 8000fa2:	46bd      	mov	sp, r7
 8000fa4:	bd80      	pop	{r7, pc}
	...

08000fa8 <slave_behavior>:

void slave_behavior(Slave_Device* hDev){
 8000fa8:	b580      	push	{r7, lr}
 8000faa:	b086      	sub	sp, #24
 8000fac:	af04      	add	r7, sp, #16
 8000fae:	6078      	str	r0, [r7, #4]
	switch(hDev->signal){
 8000fb0:	687b      	ldr	r3, [r7, #4]
 8000fb2:	785b      	ldrb	r3, [r3, #1]
 8000fb4:	2b04      	cmp	r3, #4
 8000fb6:	f200 8080 	bhi.w	80010ba <slave_behavior+0x112>
 8000fba:	a201      	add	r2, pc, #4	; (adr r2, 8000fc0 <slave_behavior+0x18>)
 8000fbc:	f852 f023 	ldr.w	pc, [r2, r3, lsl #2]
 8000fc0:	08000fd5 	.word	0x08000fd5
 8000fc4:	08001011 	.word	0x08001011
 8000fc8:	08001097 	.word	0x08001097
 8000fcc:	080010ad 	.word	0x080010ad
 8000fd0:	0800109f 	.word	0x0800109f
	case IDLE:{
		lcd_show_string(10, 10, "                      ", RED, BLACK, 16, 0);
 8000fd4:	2300      	movs	r3, #0
 8000fd6:	9302      	str	r3, [sp, #8]
 8000fd8:	2310      	movs	r3, #16
 8000fda:	9301      	str	r3, [sp, #4]
 8000fdc:	2300      	movs	r3, #0
 8000fde:	9300      	str	r3, [sp, #0]
 8000fe0:	f44f 4378 	mov.w	r3, #63488	; 0xf800
 8000fe4:	4a37      	ldr	r2, [pc, #220]	; (80010c4 <slave_behavior+0x11c>)
 8000fe6:	210a      	movs	r1, #10
 8000fe8:	200a      	movs	r0, #10
 8000fea:	f001 f883 	bl	80020f4 <lcd_show_string>
		lcd_show_string(10, 10, "watting for cmd", RED, BLACK, 16, 0);
 8000fee:	2300      	movs	r3, #0
 8000ff0:	9302      	str	r3, [sp, #8]
 8000ff2:	2310      	movs	r3, #16
 8000ff4:	9301      	str	r3, [sp, #4]
 8000ff6:	2300      	movs	r3, #0
 8000ff8:	9300      	str	r3, [sp, #0]
 8000ffa:	f44f 4378 	mov.w	r3, #63488	; 0xf800
 8000ffe:	4a32      	ldr	r2, [pc, #200]	; (80010c8 <slave_behavior+0x120>)
 8001000:	210a      	movs	r1, #10
 8001002:	200a      	movs	r0, #10
 8001004:	f001 f876 	bl	80020f4 <lcd_show_string>
		hDev->signal = WAITTING_FOR_CMD;
 8001008:	687b      	ldr	r3, [r7, #4]
 800100a:	2201      	movs	r2, #1
 800100c:	705a      	strb	r2, [r3, #1]
		break;
 800100e:	e054      	b.n	80010ba <slave_behavior+0x112>
	}
	case WAITTING_FOR_CMD:{
		ReadData(hDev);
 8001010:	6878      	ldr	r0, [r7, #4]
 8001012:	f7ff ff7b 	bl	8000f0c <ReadData>
		if(Receive_Flag){
 8001016:	4b2d      	ldr	r3, [pc, #180]	; (80010cc <slave_behavior+0x124>)
 8001018:	781b      	ldrb	r3, [r3, #0]
 800101a:	2b00      	cmp	r3, #0
 800101c:	d020      	beq.n	8001060 <slave_behavior+0xb8>
			lcd_show_string(10, 10, "                      ", RED, BLACK, 16, 0);
 800101e:	2300      	movs	r3, #0
 8001020:	9302      	str	r3, [sp, #8]
 8001022:	2310      	movs	r3, #16
 8001024:	9301      	str	r3, [sp, #4]
 8001026:	2300      	movs	r3, #0
 8001028:	9300      	str	r3, [sp, #0]
 800102a:	f44f 4378 	mov.w	r3, #63488	; 0xf800
 800102e:	4a25      	ldr	r2, [pc, #148]	; (80010c4 <slave_behavior+0x11c>)
 8001030:	210a      	movs	r1, #10
 8001032:	200a      	movs	r0, #10
 8001034:	f001 f85e 	bl	80020f4 <lcd_show_string>
			lcd_show_string(10, 10, "valid cmd", RED, BLACK, 16, 0);
 8001038:	2300      	movs	r3, #0
 800103a:	9302      	str	r3, [sp, #8]
 800103c:	2310      	movs	r3, #16
 800103e:	9301      	str	r3, [sp, #4]
 8001040:	2300      	movs	r3, #0
 8001042:	9300      	str	r3, [sp, #0]
 8001044:	f44f 4378 	mov.w	r3, #63488	; 0xf800
 8001048:	4a21      	ldr	r2, [pc, #132]	; (80010d0 <slave_behavior+0x128>)
 800104a:	210a      	movs	r1, #10
 800104c:	200a      	movs	r0, #10
 800104e:	f001 f851 	bl	80020f4 <lcd_show_string>
			hDev->signal = COMMAND_PARSER;
 8001052:	687b      	ldr	r3, [r7, #4]
 8001054:	2202      	movs	r2, #2
 8001056:	705a      	strb	r2, [r3, #1]
			Receive_Flag = 0;
 8001058:	4b1c      	ldr	r3, [pc, #112]	; (80010cc <slave_behavior+0x124>)
 800105a:	2200      	movs	r2, #0
 800105c:	701a      	strb	r2, [r3, #0]
			break;
 800105e:	e02c      	b.n	80010ba <slave_behavior+0x112>
		}
		else{
			lcd_show_string(10, 10, "                      ", RED, BLACK, 16, 0);
 8001060:	2300      	movs	r3, #0
 8001062:	9302      	str	r3, [sp, #8]
 8001064:	2310      	movs	r3, #16
 8001066:	9301      	str	r3, [sp, #4]
 8001068:	2300      	movs	r3, #0
 800106a:	9300      	str	r3, [sp, #0]
 800106c:	f44f 4378 	mov.w	r3, #63488	; 0xf800
 8001070:	4a14      	ldr	r2, [pc, #80]	; (80010c4 <slave_behavior+0x11c>)
 8001072:	210a      	movs	r1, #10
 8001074:	200a      	movs	r0, #10
 8001076:	f001 f83d 	bl	80020f4 <lcd_show_string>
			lcd_show_string(10, 10, "invalid cmd", RED, BLACK, 16, 0);
 800107a:	2300      	movs	r3, #0
 800107c:	9302      	str	r3, [sp, #8]
 800107e:	2310      	movs	r3, #16
 8001080:	9301      	str	r3, [sp, #4]
 8001082:	2300      	movs	r3, #0
 8001084:	9300      	str	r3, [sp, #0]
 8001086:	f44f 4378 	mov.w	r3, #63488	; 0xf800
 800108a:	4a12      	ldr	r2, [pc, #72]	; (80010d4 <slave_behavior+0x12c>)
 800108c:	210a      	movs	r1, #10
 800108e:	200a      	movs	r0, #10
 8001090:	f001 f830 	bl	80020f4 <lcd_show_string>
		}
		break;
 8001094:	e011      	b.n	80010ba <slave_behavior+0x112>
	}
	case COMMAND_PARSER:{
		CommandParser_handler(hDev);
 8001096:	6878      	ldr	r0, [r7, #4]
 8001098:	f7ff fe52 	bl	8000d40 <CommandParser_handler>
		break;
 800109c:	e00d      	b.n	80010ba <slave_behavior+0x112>
	}
	case READ_SINGLE_REGISTER_HANDLER:{
		Read_single_register_handler(hDev);
 800109e:	6878      	ldr	r0, [r7, #4]
 80010a0:	f7ff ff0a 	bl	8000eb8 <Read_single_register_handler>
		hDev->signal = IDLE;
 80010a4:	687b      	ldr	r3, [r7, #4]
 80010a6:	2200      	movs	r2, #0
 80010a8:	705a      	strb	r2, [r3, #1]
		break;
 80010aa:	e006      	b.n	80010ba <slave_behavior+0x112>
	}
	case READ_MULTIPLE_HOLDING_REGISTER_HANDLER:{
		Read_multiple_holding_register_handler(hDev);
 80010ac:	6878      	ldr	r0, [r7, #4]
 80010ae:	f7ff fee1 	bl	8000e74 <Read_multiple_holding_register_handler>
		hDev->signal = IDLE;
 80010b2:	687b      	ldr	r3, [r7, #4]
 80010b4:	2200      	movs	r2, #0
 80010b6:	705a      	strb	r2, [r3, #1]
		break;
 80010b8:	bf00      	nop
	}
	}
}
 80010ba:	bf00      	nop
 80010bc:	3708      	adds	r7, #8
 80010be:	46bd      	mov	sp, r7
 80010c0:	bd80      	pop	{r7, pc}
 80010c2:	bf00      	nop
 80010c4:	08007fd0 	.word	0x08007fd0
 80010c8:	08007fe8 	.word	0x08007fe8
 80010cc:	20000399 	.word	0x20000399
 80010d0:	08007ff8 	.word	0x08007ff8
 80010d4:	08008004 	.word	0x08008004

080010d8 <MX_ADC1_Init>:
 80010d8:	b580      	push	{r7, lr}
 80010da:	b084      	sub	sp, #16
 80010dc:	af00      	add	r7, sp, #0
 80010de:	463b      	mov	r3, r7
 80010e0:	2200      	movs	r2, #0
 80010e2:	601a      	str	r2, [r3, #0]
 80010e4:	605a      	str	r2, [r3, #4]
 80010e6:	609a      	str	r2, [r3, #8]
 80010e8:	60da      	str	r2, [r3, #12]
 80010ea:	4b3d      	ldr	r3, [pc, #244]	; (80011e0 <MX_ADC1_Init+0x108>)
 80010ec:	4a3d      	ldr	r2, [pc, #244]	; (80011e4 <MX_ADC1_Init+0x10c>)
 80010ee:	601a      	str	r2, [r3, #0]
 80010f0:	4b3b      	ldr	r3, [pc, #236]	; (80011e0 <MX_ADC1_Init+0x108>)
 80010f2:	2200      	movs	r2, #0
 80010f4:	605a      	str	r2, [r3, #4]
 80010f6:	4b3a      	ldr	r3, [pc, #232]	; (80011e0 <MX_ADC1_Init+0x108>)
 80010f8:	2200      	movs	r2, #0
 80010fa:	609a      	str	r2, [r3, #8]
 80010fc:	4b38      	ldr	r3, [pc, #224]	; (80011e0 <MX_ADC1_Init+0x108>)
 80010fe:	2201      	movs	r2, #1
 8001100:	611a      	str	r2, [r3, #16]
 8001102:	4b37      	ldr	r3, [pc, #220]	; (80011e0 <MX_ADC1_Init+0x108>)
 8001104:	2200      	movs	r2, #0
 8001106:	761a      	strb	r2, [r3, #24]
 8001108:	4b35      	ldr	r3, [pc, #212]	; (80011e0 <MX_ADC1_Init+0x108>)
 800110a:	2200      	movs	r2, #0
 800110c:	f883 2020 	strb.w	r2, [r3, #32]
 8001110:	4b33      	ldr	r3, [pc, #204]	; (80011e0 <MX_ADC1_Init+0x108>)
 8001112:	2200      	movs	r2, #0
 8001114:	62da      	str	r2, [r3, #44]	; 0x2c
 8001116:	4b32      	ldr	r3, [pc, #200]	; (80011e0 <MX_ADC1_Init+0x108>)
 8001118:	4a33      	ldr	r2, [pc, #204]	; (80011e8 <MX_ADC1_Init+0x110>)
 800111a:	629a      	str	r2, [r3, #40]	; 0x28
 800111c:	4b30      	ldr	r3, [pc, #192]	; (80011e0 <MX_ADC1_Init+0x108>)
 800111e:	2200      	movs	r2, #0
 8001120:	60da      	str	r2, [r3, #12]
 8001122:	4b2f      	ldr	r3, [pc, #188]	; (80011e0 <MX_ADC1_Init+0x108>)
 8001124:	2205      	movs	r2, #5
 8001126:	61da      	str	r2, [r3, #28]
 8001128:	4b2d      	ldr	r3, [pc, #180]	; (80011e0 <MX_ADC1_Init+0x108>)
 800112a:	2200      	movs	r2, #0
 800112c:	f883 2030 	strb.w	r2, [r3, #48]	; 0x30
 8001130:	4b2b      	ldr	r3, [pc, #172]	; (80011e0 <MX_ADC1_Init+0x108>)
 8001132:	2201      	movs	r2, #1
 8001134:	615a      	str	r2, [r3, #20]
 8001136:	482a      	ldr	r0, [pc, #168]	; (80011e0 <MX_ADC1_Init+0x108>)
 8001138:	f002 f9ba 	bl	80034b0 <HAL_ADC_Init>
 800113c:	4603      	mov	r3, r0
 800113e:	2b00      	cmp	r3, #0
 8001140:	d001      	beq.n	8001146 <MX_ADC1_Init+0x6e>
 8001142:	f001 fa53 	bl	80025ec <Error_Handler>
 8001146:	2308      	movs	r3, #8
 8001148:	603b      	str	r3, [r7, #0]
 800114a:	2301      	movs	r3, #1
 800114c:	607b      	str	r3, [r7, #4]
 800114e:	2300      	movs	r3, #0
 8001150:	60bb      	str	r3, [r7, #8]
 8001152:	463b      	mov	r3, r7
 8001154:	4619      	mov	r1, r3
 8001156:	4822      	ldr	r0, [pc, #136]	; (80011e0 <MX_ADC1_Init+0x108>)
 8001158:	f002 fb1c 	bl	8003794 <HAL_ADC_ConfigChannel>
 800115c:	4603      	mov	r3, r0
 800115e:	2b00      	cmp	r3, #0
 8001160:	d001      	beq.n	8001166 <MX_ADC1_Init+0x8e>
 8001162:	f001 fa43 	bl	80025ec <Error_Handler>
 8001166:	2309      	movs	r3, #9
 8001168:	603b      	str	r3, [r7, #0]
 800116a:	2302      	movs	r3, #2
 800116c:	607b      	str	r3, [r7, #4]
 800116e:	463b      	mov	r3, r7
 8001170:	4619      	mov	r1, r3
 8001172:	481b      	ldr	r0, [pc, #108]	; (80011e0 <MX_ADC1_Init+0x108>)
 8001174:	f002 fb0e 	bl	8003794 <HAL_ADC_ConfigChannel>
 8001178:	4603      	mov	r3, r0
 800117a:	2b00      	cmp	r3, #0
 800117c:	d001      	beq.n	8001182 <MX_ADC1_Init+0xaa>
 800117e:	f001 fa35 	bl	80025ec <Error_Handler>
 8001182:	230a      	movs	r3, #10
 8001184:	603b      	str	r3, [r7, #0]
 8001186:	2303      	movs	r3, #3
 8001188:	607b      	str	r3, [r7, #4]
 800118a:	463b      	mov	r3, r7
 800118c:	4619      	mov	r1, r3
 800118e:	4814      	ldr	r0, [pc, #80]	; (80011e0 <MX_ADC1_Init+0x108>)
 8001190:	f002 fb00 	bl	8003794 <HAL_ADC_ConfigChannel>
 8001194:	4603      	mov	r3, r0
 8001196:	2b00      	cmp	r3, #0
 8001198:	d001      	beq.n	800119e <MX_ADC1_Init+0xc6>
 800119a:	f001 fa27 	bl	80025ec <Error_Handler>
 800119e:	230b      	movs	r3, #11
 80011a0:	603b      	str	r3, [r7, #0]
 80011a2:	2304      	movs	r3, #4
 80011a4:	607b      	str	r3, [r7, #4]
 80011a6:	463b      	mov	r3, r7
 80011a8:	4619      	mov	r1, r3
 80011aa:	480d      	ldr	r0, [pc, #52]	; (80011e0 <MX_ADC1_Init+0x108>)
 80011ac:	f002 faf2 	bl	8003794 <HAL_ADC_ConfigChannel>
 80011b0:	4603      	mov	r3, r0
 80011b2:	2b00      	cmp	r3, #0
 80011b4:	d001      	beq.n	80011ba <MX_ADC1_Init+0xe2>
 80011b6:	f001 fa19 	bl	80025ec <Error_Handler>
 80011ba:	230c      	movs	r3, #12
 80011bc:	603b      	str	r3, [r7, #0]
 80011be:	2305      	movs	r3, #5
 80011c0:	607b      	str	r3, [r7, #4]
 80011c2:	463b      	mov	r3, r7
 80011c4:	4619      	mov	r1, r3
 80011c6:	4806      	ldr	r0, [pc, #24]	; (80011e0 <MX_ADC1_Init+0x108>)
 80011c8:	f002 fae4 	bl	8003794 <HAL_ADC_ConfigChannel>
 80011cc:	4603      	mov	r3, r0
 80011ce:	2b00      	cmp	r3, #0
 80011d0:	d001      	beq.n	80011d6 <MX_ADC1_Init+0xfe>
 80011d2:	f001 fa0b 	bl	80025ec <Error_Handler>
 80011d6:	bf00      	nop
 80011d8:	3710      	adds	r7, #16
 80011da:	46bd      	mov	sp, r7
 80011dc:	bd80      	pop	{r7, pc}
 80011de:	bf00      	nop
 80011e0:	20000240 	.word	0x20000240
 80011e4:	40012000 	.word	0x40012000
 80011e8:	0f000001 	.word	0x0f000001

080011ec <HAL_ADC_MspInit>:
 80011ec:	b580      	push	{r7, lr}
 80011ee:	b08a      	sub	sp, #40	; 0x28
 80011f0:	af00      	add	r7, sp, #0
 80011f2:	6078      	str	r0, [r7, #4]
 80011f4:	f107 0314 	add.w	r3, r7, #20
 80011f8:	2200      	movs	r2, #0
 80011fa:	601a      	str	r2, [r3, #0]
 80011fc:	605a      	str	r2, [r3, #4]
 80011fe:	609a      	str	r2, [r3, #8]
 8001200:	60da      	str	r2, [r3, #12]
 8001202:	611a      	str	r2, [r3, #16]
 8001204:	687b      	ldr	r3, [r7, #4]
 8001206:	681b      	ldr	r3, [r3, #0]
 8001208:	4a3c      	ldr	r2, [pc, #240]	; (80012fc <HAL_ADC_MspInit+0x110>)
 800120a:	4293      	cmp	r3, r2
 800120c:	d171      	bne.n	80012f2 <HAL_ADC_MspInit+0x106>
 800120e:	2300      	movs	r3, #0
 8001210:	613b      	str	r3, [r7, #16]
 8001212:	4b3b      	ldr	r3, [pc, #236]	; (8001300 <HAL_ADC_MspInit+0x114>)
 8001214:	6c5b      	ldr	r3, [r3, #68]	; 0x44
 8001216:	4a3a      	ldr	r2, [pc, #232]	; (8001300 <HAL_ADC_MspInit+0x114>)
 8001218:	f443 7380 	orr.w	r3, r3, #256	; 0x100
 800121c:	6453      	str	r3, [r2, #68]	; 0x44
 800121e:	4b38      	ldr	r3, [pc, #224]	; (8001300 <HAL_ADC_MspInit+0x114>)
 8001220:	6c5b      	ldr	r3, [r3, #68]	; 0x44
 8001222:	f403 7380 	and.w	r3, r3, #256	; 0x100
 8001226:	613b      	str	r3, [r7, #16]
 8001228:	693b      	ldr	r3, [r7, #16]
 800122a:	2300      	movs	r3, #0
 800122c:	60fb      	str	r3, [r7, #12]
 800122e:	4b34      	ldr	r3, [pc, #208]	; (8001300 <HAL_ADC_MspInit+0x114>)
 8001230:	6b1b      	ldr	r3, [r3, #48]	; 0x30
 8001232:	4a33      	ldr	r2, [pc, #204]	; (8001300 <HAL_ADC_MspInit+0x114>)
 8001234:	f043 0304 	orr.w	r3, r3, #4
 8001238:	6313      	str	r3, [r2, #48]	; 0x30
 800123a:	4b31      	ldr	r3, [pc, #196]	; (8001300 <HAL_ADC_MspInit+0x114>)
 800123c:	6b1b      	ldr	r3, [r3, #48]	; 0x30
 800123e:	f003 0304 	and.w	r3, r3, #4
 8001242:	60fb      	str	r3, [r7, #12]
 8001244:	68fb      	ldr	r3, [r7, #12]
 8001246:	2300      	movs	r3, #0
 8001248:	60bb      	str	r3, [r7, #8]
 800124a:	4b2d      	ldr	r3, [pc, #180]	; (8001300 <HAL_ADC_MspInit+0x114>)
 800124c:	6b1b      	ldr	r3, [r3, #48]	; 0x30
 800124e:	4a2c      	ldr	r2, [pc, #176]	; (8001300 <HAL_ADC_MspInit+0x114>)
 8001250:	f043 0302 	orr.w	r3, r3, #2
 8001254:	6313      	str	r3, [r2, #48]	; 0x30
 8001256:	4b2a      	ldr	r3, [pc, #168]	; (8001300 <HAL_ADC_MspInit+0x114>)
 8001258:	6b1b      	ldr	r3, [r3, #48]	; 0x30
 800125a:	f003 0302 	and.w	r3, r3, #2
 800125e:	60bb      	str	r3, [r7, #8]
 8001260:	68bb      	ldr	r3, [r7, #8]
 8001262:	2307      	movs	r3, #7
 8001264:	617b      	str	r3, [r7, #20]
 8001266:	2303      	movs	r3, #3
 8001268:	61bb      	str	r3, [r7, #24]
 800126a:	2300      	movs	r3, #0
 800126c:	61fb      	str	r3, [r7, #28]
 800126e:	f107 0314 	add.w	r3, r7, #20
 8001272:	4619      	mov	r1, r3
 8001274:	4823      	ldr	r0, [pc, #140]	; (8001304 <HAL_ADC_MspInit+0x118>)
 8001276:	f003 fa41 	bl	80046fc <HAL_GPIO_Init>
 800127a:	2303      	movs	r3, #3
 800127c:	617b      	str	r3, [r7, #20]
 800127e:	2303      	movs	r3, #3
 8001280:	61bb      	str	r3, [r7, #24]
 8001282:	2300      	movs	r3, #0
 8001284:	61fb      	str	r3, [r7, #28]
 8001286:	f107 0314 	add.w	r3, r7, #20
 800128a:	4619      	mov	r1, r3
 800128c:	481e      	ldr	r0, [pc, #120]	; (8001308 <HAL_ADC_MspInit+0x11c>)
 800128e:	f003 fa35 	bl	80046fc <HAL_GPIO_Init>
 8001292:	4b1e      	ldr	r3, [pc, #120]	; (800130c <HAL_ADC_MspInit+0x120>)
 8001294:	4a1e      	ldr	r2, [pc, #120]	; (8001310 <HAL_ADC_MspInit+0x124>)
 8001296:	601a      	str	r2, [r3, #0]
 8001298:	4b1c      	ldr	r3, [pc, #112]	; (800130c <HAL_ADC_MspInit+0x120>)
 800129a:	2200      	movs	r2, #0
 800129c:	605a      	str	r2, [r3, #4]
 800129e:	4b1b      	ldr	r3, [pc, #108]	; (800130c <HAL_ADC_MspInit+0x120>)
 80012a0:	2200      	movs	r2, #0
 80012a2:	609a      	str	r2, [r3, #8]
 80012a4:	4b19      	ldr	r3, [pc, #100]	; (800130c <HAL_ADC_MspInit+0x120>)
 80012a6:	2200      	movs	r2, #0
 80012a8:	60da      	str	r2, [r3, #12]
 80012aa:	4b18      	ldr	r3, [pc, #96]	; (800130c <HAL_ADC_MspInit+0x120>)
 80012ac:	f44f 6280 	mov.w	r2, #1024	; 0x400
 80012b0:	611a      	str	r2, [r3, #16]
 80012b2:	4b16      	ldr	r3, [pc, #88]	; (800130c <HAL_ADC_MspInit+0x120>)
 80012b4:	f44f 6200 	mov.w	r2, #2048	; 0x800
 80012b8:	615a      	str	r2, [r3, #20]
 80012ba:	4b14      	ldr	r3, [pc, #80]	; (800130c <HAL_ADC_MspInit+0x120>)
 80012bc:	f44f 5200 	mov.w	r2, #8192	; 0x2000
 80012c0:	619a      	str	r2, [r3, #24]
 80012c2:	4b12      	ldr	r3, [pc, #72]	; (800130c <HAL_ADC_MspInit+0x120>)
 80012c4:	f44f 7280 	mov.w	r2, #256	; 0x100
 80012c8:	61da      	str	r2, [r3, #28]
 80012ca:	4b10      	ldr	r3, [pc, #64]	; (800130c <HAL_ADC_MspInit+0x120>)
 80012cc:	2200      	movs	r2, #0
 80012ce:	621a      	str	r2, [r3, #32]
 80012d0:	4b0e      	ldr	r3, [pc, #56]	; (800130c <HAL_ADC_MspInit+0x120>)
 80012d2:	2200      	movs	r2, #0
 80012d4:	625a      	str	r2, [r3, #36]	; 0x24
 80012d6:	480d      	ldr	r0, [pc, #52]	; (800130c <HAL_ADC_MspInit+0x120>)
 80012d8:	f002 fe0e 	bl	8003ef8 <HAL_DMA_Init>
 80012dc:	4603      	mov	r3, r0
 80012de:	2b00      	cmp	r3, #0
 80012e0:	d001      	beq.n	80012e6 <HAL_ADC_MspInit+0xfa>
 80012e2:	f001 f983 	bl	80025ec <Error_Handler>
 80012e6:	687b      	ldr	r3, [r7, #4]
 80012e8:	4a08      	ldr	r2, [pc, #32]	; (800130c <HAL_ADC_MspInit+0x120>)
 80012ea:	639a      	str	r2, [r3, #56]	; 0x38
 80012ec:	4a07      	ldr	r2, [pc, #28]	; (800130c <HAL_ADC_MspInit+0x120>)
 80012ee:	687b      	ldr	r3, [r7, #4]
 80012f0:	6393      	str	r3, [r2, #56]	; 0x38
 80012f2:	bf00      	nop
 80012f4:	3728      	adds	r7, #40	; 0x28
 80012f6:	46bd      	mov	sp, r7
 80012f8:	bd80      	pop	{r7, pc}
 80012fa:	bf00      	nop
 80012fc:	40012000 	.word	0x40012000
 8001300:	40023800 	.word	0x40023800
 8001304:	40020800 	.word	0x40020800
 8001308:	40020400 	.word	0x40020400
 800130c:	20000288 	.word	0x20000288
 8001310:	40026410 	.word	0x40026410

08001314 <button_init>:
 8001314:	b580      	push	{r7, lr}
 8001316:	af00      	add	r7, sp, #0
 8001318:	2201      	movs	r2, #1
 800131a:	2108      	movs	r1, #8
 800131c:	4802      	ldr	r0, [pc, #8]	; (8001328 <button_init+0x14>)
 800131e:	f003 fb89 	bl	8004a34 <HAL_GPIO_WritePin>
 8001322:	bf00      	nop
 8001324:	bd80      	pop	{r7, pc}
 8001326:	bf00      	nop
 8001328:	40020c00 	.word	0x40020c00

0800132c <buzzer_init>:
 800132c:	b580      	push	{r7, lr}
 800132e:	af00      	add	r7, sp, #0
 8001330:	2100      	movs	r1, #0
 8001332:	4802      	ldr	r0, [pc, #8]	; (800133c <buzzer_init+0x10>)
 8001334:	f004 fd9a 	bl	8005e6c <HAL_TIM_PWM_Start>
 8001338:	bf00      	nop
 800133a:	bd80      	pop	{r7, pc}
 800133c:	200006c4 	.word	0x200006c4

08001340 <crc16>:
 8001340:	b480      	push	{r7}
 8001342:	b087      	sub	sp, #28
 8001344:	af00      	add	r7, sp, #0
 8001346:	6078      	str	r0, [r7, #4]
 8001348:	460b      	mov	r3, r1
 800134a:	807b      	strh	r3, [r7, #2]
 800134c:	f64f 73ff 	movw	r3, #65535	; 0xffff
 8001350:	82fb      	strh	r3, [r7, #22]
 8001352:	687b      	ldr	r3, [r7, #4]
 8001354:	613b      	str	r3, [r7, #16]
 8001356:	693b      	ldr	r3, [r7, #16]
 8001358:	2b00      	cmp	r3, #0
 800135a:	d018      	beq.n	800138e <crc16+0x4e>
 800135c:	2300      	movs	r3, #0
 800135e:	81fb      	strh	r3, [r7, #14]
 8001360:	e011      	b.n	8001386 <crc16+0x46>
 8001362:	8afb      	ldrh	r3, [r7, #22]
 8001364:	0a1b      	lsrs	r3, r3, #8
 8001366:	b29a      	uxth	r2, r3
 8001368:	8af9      	ldrh	r1, [r7, #22]
 800136a:	693b      	ldr	r3, [r7, #16]
 800136c:	1c58      	adds	r0, r3, #1
 800136e:	6138      	str	r0, [r7, #16]
 8001370:	781b      	ldrb	r3, [r3, #0]
 8001372:	404b      	eors	r3, r1
 8001374:	b2db      	uxtb	r3, r3
 8001376:	4909      	ldr	r1, [pc, #36]	; (800139c <crc16+0x5c>)
 8001378:	f831 3013 	ldrh.w	r3, [r1, r3, lsl #1]
 800137c:	4053      	eors	r3, r2
 800137e:	82fb      	strh	r3, [r7, #22]
 8001380:	89fb      	ldrh	r3, [r7, #14]
 8001382:	3301      	adds	r3, #1
 8001384:	81fb      	strh	r3, [r7, #14]
 8001386:	89fa      	ldrh	r2, [r7, #14]
 8001388:	887b      	ldrh	r3, [r7, #2]
 800138a:	429a      	cmp	r2, r3
 800138c:	d3e9      	bcc.n	8001362 <crc16+0x22>
 800138e:	8afb      	ldrh	r3, [r7, #22]
 8001390:	4618      	mov	r0, r3
 8001392:	371c      	adds	r7, #28
 8001394:	46bd      	mov	sp, r7
 8001396:	f85d 7b04 	ldr.w	r7, [sp], #4
 800139a:	4770      	bx	lr
 800139c:	20000000 	.word	0x20000000

080013a0 <MX_DMA_Init>:
 80013a0:	b580      	push	{r7, lr}
 80013a2:	b082      	sub	sp, #8
 80013a4:	af00      	add	r7, sp, #0
 80013a6:	2300      	movs	r3, #0
 80013a8:	607b      	str	r3, [r7, #4]
 80013aa:	4b0c      	ldr	r3, [pc, #48]	; (80013dc <MX_DMA_Init+0x3c>)
 80013ac:	6b1b      	ldr	r3, [r3, #48]	; 0x30
 80013ae:	4a0b      	ldr	r2, [pc, #44]	; (80013dc <MX_DMA_Init+0x3c>)
 80013b0:	f443 0380 	orr.w	r3, r3, #4194304	; 0x400000
 80013b4:	6313      	str	r3, [r2, #48]	; 0x30
 80013b6:	4b09      	ldr	r3, [pc, #36]	; (80013dc <MX_DMA_Init+0x3c>)
 80013b8:	6b1b      	ldr	r3, [r3, #48]	; 0x30
 80013ba:	f403 0380 	and.w	r3, r3, #4194304	; 0x400000
 80013be:	607b      	str	r3, [r7, #4]
 80013c0:	687b      	ldr	r3, [r7, #4]
 80013c2:	2200      	movs	r2, #0
 80013c4:	2100      	movs	r1, #0
 80013c6:	2038      	movs	r0, #56	; 0x38
 80013c8:	f002 fd5f 	bl	8003e8a <HAL_NVIC_SetPriority>
 80013cc:	2038      	movs	r0, #56	; 0x38
 80013ce:	f002 fd78 	bl	8003ec2 <HAL_NVIC_EnableIRQ>
 80013d2:	bf00      	nop
 80013d4:	3708      	adds	r7, #8
 80013d6:	46bd      	mov	sp, r7
 80013d8:	bd80      	pop	{r7, pc}
 80013da:	bf00      	nop
 80013dc:	40023800 	.word	0x40023800

080013e0 <MX_FSMC_Init>:
 80013e0:	b580      	push	{r7, lr}
 80013e2:	b08e      	sub	sp, #56	; 0x38
 80013e4:	af00      	add	r7, sp, #0
 80013e6:	f107 031c 	add.w	r3, r7, #28
 80013ea:	2200      	movs	r2, #0
 80013ec:	601a      	str	r2, [r3, #0]
 80013ee:	605a      	str	r2, [r3, #4]
 80013f0:	609a      	str	r2, [r3, #8]
 80013f2:	60da      	str	r2, [r3, #12]
 80013f4:	611a      	str	r2, [r3, #16]
 80013f6:	615a      	str	r2, [r3, #20]
 80013f8:	619a      	str	r2, [r3, #24]
 80013fa:	463b      	mov	r3, r7
 80013fc:	2200      	movs	r2, #0
 80013fe:	601a      	str	r2, [r3, #0]
 8001400:	605a      	str	r2, [r3, #4]
 8001402:	609a      	str	r2, [r3, #8]
 8001404:	60da      	str	r2, [r3, #12]
 8001406:	611a      	str	r2, [r3, #16]
 8001408:	615a      	str	r2, [r3, #20]
 800140a:	619a      	str	r2, [r3, #24]
 800140c:	4b2f      	ldr	r3, [pc, #188]	; (80014cc <MX_FSMC_Init+0xec>)
 800140e:	f04f 4220 	mov.w	r2, #2684354560	; 0xa0000000
 8001412:	601a      	str	r2, [r3, #0]
 8001414:	4b2d      	ldr	r3, [pc, #180]	; (80014cc <MX_FSMC_Init+0xec>)
 8001416:	4a2e      	ldr	r2, [pc, #184]	; (80014d0 <MX_FSMC_Init+0xf0>)
 8001418:	605a      	str	r2, [r3, #4]
 800141a:	4b2c      	ldr	r3, [pc, #176]	; (80014cc <MX_FSMC_Init+0xec>)
 800141c:	2200      	movs	r2, #0
 800141e:	609a      	str	r2, [r3, #8]
 8001420:	4b2a      	ldr	r3, [pc, #168]	; (80014cc <MX_FSMC_Init+0xec>)
 8001422:	2200      	movs	r2, #0
 8001424:	60da      	str	r2, [r3, #12]
 8001426:	4b29      	ldr	r3, [pc, #164]	; (80014cc <MX_FSMC_Init+0xec>)
 8001428:	2200      	movs	r2, #0
 800142a:	611a      	str	r2, [r3, #16]
 800142c:	4b27      	ldr	r3, [pc, #156]	; (80014cc <MX_FSMC_Init+0xec>)
 800142e:	2210      	movs	r2, #16
 8001430:	615a      	str	r2, [r3, #20]
 8001432:	4b26      	ldr	r3, [pc, #152]	; (80014cc <MX_FSMC_Init+0xec>)
 8001434:	2200      	movs	r2, #0
 8001436:	619a      	str	r2, [r3, #24]
 8001438:	4b24      	ldr	r3, [pc, #144]	; (80014cc <MX_FSMC_Init+0xec>)
 800143a:	2200      	movs	r2, #0
 800143c:	61da      	str	r2, [r3, #28]
 800143e:	4b23      	ldr	r3, [pc, #140]	; (80014cc <MX_FSMC_Init+0xec>)
 8001440:	2200      	movs	r2, #0
 8001442:	621a      	str	r2, [r3, #32]
 8001444:	4b21      	ldr	r3, [pc, #132]	; (80014cc <MX_FSMC_Init+0xec>)
 8001446:	2200      	movs	r2, #0
 8001448:	625a      	str	r2, [r3, #36]	; 0x24
 800144a:	4b20      	ldr	r3, [pc, #128]	; (80014cc <MX_FSMC_Init+0xec>)
 800144c:	f44f 5280 	mov.w	r2, #4096	; 0x1000
 8001450:	629a      	str	r2, [r3, #40]	; 0x28
 8001452:	4b1e      	ldr	r3, [pc, #120]	; (80014cc <MX_FSMC_Init+0xec>)
 8001454:	2200      	movs	r2, #0
 8001456:	62da      	str	r2, [r3, #44]	; 0x2c
 8001458:	4b1c      	ldr	r3, [pc, #112]	; (80014cc <MX_FSMC_Init+0xec>)
 800145a:	f44f 4280 	mov.w	r2, #16384	; 0x4000
 800145e:	631a      	str	r2, [r3, #48]	; 0x30
 8001460:	4b1a      	ldr	r3, [pc, #104]	; (80014cc <MX_FSMC_Init+0xec>)
 8001462:	2200      	movs	r2, #0
 8001464:	635a      	str	r2, [r3, #52]	; 0x34
 8001466:	4b19      	ldr	r3, [pc, #100]	; (80014cc <MX_FSMC_Init+0xec>)
 8001468:	2200      	movs	r2, #0
 800146a:	639a      	str	r2, [r3, #56]	; 0x38
 800146c:	4b17      	ldr	r3, [pc, #92]	; (80014cc <MX_FSMC_Init+0xec>)
 800146e:	2200      	movs	r2, #0
 8001470:	645a      	str	r2, [r3, #68]	; 0x44
 8001472:	230f      	movs	r3, #15
 8001474:	61fb      	str	r3, [r7, #28]
 8001476:	230f      	movs	r3, #15
 8001478:	623b      	str	r3, [r7, #32]
 800147a:	233c      	movs	r3, #60	; 0x3c
 800147c:	627b      	str	r3, [r7, #36]	; 0x24
 800147e:	2300      	movs	r3, #0
 8001480:	62bb      	str	r3, [r7, #40]	; 0x28
 8001482:	2310      	movs	r3, #16
 8001484:	62fb      	str	r3, [r7, #44]	; 0x2c
 8001486:	2311      	movs	r3, #17
 8001488:	633b      	str	r3, [r7, #48]	; 0x30
 800148a:	2300      	movs	r3, #0
 800148c:	637b      	str	r3, [r7, #52]	; 0x34
 800148e:	2308      	movs	r3, #8
 8001490:	603b      	str	r3, [r7, #0]
 8001492:	230f      	movs	r3, #15
 8001494:	607b      	str	r3, [r7, #4]
 8001496:	2309      	movs	r3, #9
 8001498:	60bb      	str	r3, [r7, #8]
 800149a:	2300      	movs	r3, #0
 800149c:	60fb      	str	r3, [r7, #12]
 800149e:	2310      	movs	r3, #16
 80014a0:	613b      	str	r3, [r7, #16]
 80014a2:	2311      	movs	r3, #17
 80014a4:	617b      	str	r3, [r7, #20]
 80014a6:	2300      	movs	r3, #0
 80014a8:	61bb      	str	r3, [r7, #24]
 80014aa:	463a      	mov	r2, r7
 80014ac:	f107 031c 	add.w	r3, r7, #28
 80014b0:	4619      	mov	r1, r3
 80014b2:	4806      	ldr	r0, [pc, #24]	; (80014cc <MX_FSMC_Init+0xec>)
 80014b4:	f004 fb78 	bl	8005ba8 <HAL_SRAM_Init>
 80014b8:	4603      	mov	r3, r0
 80014ba:	2b00      	cmp	r3, #0
 80014bc:	d001      	beq.n	80014c2 <MX_FSMC_Init+0xe2>
 80014be:	f001 f895 	bl	80025ec <Error_Handler>
 80014c2:	bf00      	nop
 80014c4:	3738      	adds	r7, #56	; 0x38
 80014c6:	46bd      	mov	sp, r7
 80014c8:	bd80      	pop	{r7, pc}
 80014ca:	bf00      	nop
 80014cc:	200002e8 	.word	0x200002e8
 80014d0:	a0000104 	.word	0xa0000104

080014d4 <HAL_FSMC_MspInit>:
 80014d4:	b580      	push	{r7, lr}
 80014d6:	b086      	sub	sp, #24
 80014d8:	af00      	add	r7, sp, #0
 80014da:	1d3b      	adds	r3, r7, #4
 80014dc:	2200      	movs	r2, #0
 80014de:	601a      	str	r2, [r3, #0]
 80014e0:	605a      	str	r2, [r3, #4]
 80014e2:	609a      	str	r2, [r3, #8]
 80014e4:	60da      	str	r2, [r3, #12]
 80014e6:	611a      	str	r2, [r3, #16]
 80014e8:	4b1c      	ldr	r3, [pc, #112]	; (800155c <HAL_FSMC_MspInit+0x88>)
 80014ea:	681b      	ldr	r3, [r3, #0]
 80014ec:	2b00      	cmp	r3, #0
 80014ee:	d131      	bne.n	8001554 <HAL_FSMC_MspInit+0x80>
 80014f0:	4b1a      	ldr	r3, [pc, #104]	; (800155c <HAL_FSMC_MspInit+0x88>)
 80014f2:	2201      	movs	r2, #1
 80014f4:	601a      	str	r2, [r3, #0]
 80014f6:	2300      	movs	r3, #0
 80014f8:	603b      	str	r3, [r7, #0]
 80014fa:	4b19      	ldr	r3, [pc, #100]	; (8001560 <HAL_FSMC_MspInit+0x8c>)
 80014fc:	6b9b      	ldr	r3, [r3, #56]	; 0x38
 80014fe:	4a18      	ldr	r2, [pc, #96]	; (8001560 <HAL_FSMC_MspInit+0x8c>)
 8001500:	f043 0301 	orr.w	r3, r3, #1
 8001504:	6393      	str	r3, [r2, #56]	; 0x38
 8001506:	4b16      	ldr	r3, [pc, #88]	; (8001560 <HAL_FSMC_MspInit+0x8c>)
 8001508:	6b9b      	ldr	r3, [r3, #56]	; 0x38
 800150a:	f003 0301 	and.w	r3, r3, #1
 800150e:	603b      	str	r3, [r7, #0]
 8001510:	683b      	ldr	r3, [r7, #0]
 8001512:	f64f 7388 	movw	r3, #65416	; 0xff88
 8001516:	607b      	str	r3, [r7, #4]
 8001518:	2302      	movs	r3, #2
 800151a:	60bb      	str	r3, [r7, #8]
 800151c:	2300      	movs	r3, #0
 800151e:	60fb      	str	r3, [r7, #12]
 8001520:	2303      	movs	r3, #3
 8001522:	613b      	str	r3, [r7, #16]
 8001524:	230c      	movs	r3, #12
 8001526:	617b      	str	r3, [r7, #20]
 8001528:	1d3b      	adds	r3, r7, #4
 800152a:	4619      	mov	r1, r3
 800152c:	480d      	ldr	r0, [pc, #52]	; (8001564 <HAL_FSMC_MspInit+0x90>)
 800152e:	f003 f8e5 	bl	80046fc <HAL_GPIO_Init>
 8001532:	f24c 73b3 	movw	r3, #51123	; 0xc7b3
 8001536:	607b      	str	r3, [r7, #4]
 8001538:	2302      	movs	r3, #2
 800153a:	60bb      	str	r3, [r7, #8]
 800153c:	2300      	movs	r3, #0
 800153e:	60fb      	str	r3, [r7, #12]
 8001540:	2303      	movs	r3, #3
 8001542:	613b      	str	r3, [r7, #16]
 8001544:	230c      	movs	r3, #12
 8001546:	617b      	str	r3, [r7, #20]
 8001548:	1d3b      	adds	r3, r7, #4
 800154a:	4619      	mov	r1, r3
 800154c:	4806      	ldr	r0, [pc, #24]	; (8001568 <HAL_FSMC_MspInit+0x94>)
 800154e:	f003 f8d5 	bl	80046fc <HAL_GPIO_Init>
 8001552:	e000      	b.n	8001556 <HAL_FSMC_MspInit+0x82>
 8001554:	bf00      	nop
 8001556:	3718      	adds	r7, #24
 8001558:	46bd      	mov	sp, r7
 800155a:	bd80      	pop	{r7, pc}
 800155c:	20000338 	.word	0x20000338
 8001560:	40023800 	.word	0x40023800
 8001564:	40021000 	.word	0x40021000
 8001568:	40020c00 	.word	0x40020c00

0800156c <HAL_SRAM_MspInit>:
 800156c:	b580      	push	{r7, lr}
 800156e:	b082      	sub	sp, #8
 8001570:	af00      	add	r7, sp, #0
 8001572:	6078      	str	r0, [r7, #4]
 8001574:	f7ff ffae 	bl	80014d4 <HAL_FSMC_MspInit>
 8001578:	bf00      	nop
 800157a:	3708      	adds	r7, #8
 800157c:	46bd      	mov	sp, r7
 800157e:	bd80      	pop	{r7, pc}

08001580 <MX_GPIO_Init>:
 8001580:	b580      	push	{r7, lr}
 8001582:	b08e      	sub	sp, #56	; 0x38
 8001584:	af00      	add	r7, sp, #0
 8001586:	f107 0324 	add.w	r3, r7, #36	; 0x24
 800158a:	2200      	movs	r2, #0
 800158c:	601a      	str	r2, [r3, #0]
 800158e:	605a      	str	r2, [r3, #4]
 8001590:	609a      	str	r2, [r3, #8]
 8001592:	60da      	str	r2, [r3, #12]
 8001594:	611a      	str	r2, [r3, #16]
 8001596:	2300      	movs	r3, #0
 8001598:	623b      	str	r3, [r7, #32]
 800159a:	4b76      	ldr	r3, [pc, #472]	; (8001774 <MX_GPIO_Init+0x1f4>)
 800159c:	6b1b      	ldr	r3, [r3, #48]	; 0x30
 800159e:	4a75      	ldr	r2, [pc, #468]	; (8001774 <MX_GPIO_Init+0x1f4>)
 80015a0:	f043 0310 	orr.w	r3, r3, #16
 80015a4:	6313      	str	r3, [r2, #48]	; 0x30
 80015a6:	4b73      	ldr	r3, [pc, #460]	; (8001774 <MX_GPIO_Init+0x1f4>)
 80015a8:	6b1b      	ldr	r3, [r3, #48]	; 0x30
 80015aa:	f003 0310 	and.w	r3, r3, #16
 80015ae:	623b      	str	r3, [r7, #32]
 80015b0:	6a3b      	ldr	r3, [r7, #32]
 80015b2:	2300      	movs	r3, #0
 80015b4:	61fb      	str	r3, [r7, #28]
 80015b6:	4b6f      	ldr	r3, [pc, #444]	; (8001774 <MX_GPIO_Init+0x1f4>)
 80015b8:	6b1b      	ldr	r3, [r3, #48]	; 0x30
 80015ba:	4a6e      	ldr	r2, [pc, #440]	; (8001774 <MX_GPIO_Init+0x1f4>)
 80015bc:	f043 0304 	orr.w	r3, r3, #4
 80015c0:	6313      	str	r3, [r2, #48]	; 0x30
 80015c2:	4b6c      	ldr	r3, [pc, #432]	; (8001774 <MX_GPIO_Init+0x1f4>)
 80015c4:	6b1b      	ldr	r3, [r3, #48]	; 0x30
 80015c6:	f003 0304 	and.w	r3, r3, #4
 80015ca:	61fb      	str	r3, [r7, #28]
 80015cc:	69fb      	ldr	r3, [r7, #28]
 80015ce:	2300      	movs	r3, #0
 80015d0:	61bb      	str	r3, [r7, #24]
 80015d2:	4b68      	ldr	r3, [pc, #416]	; (8001774 <MX_GPIO_Init+0x1f4>)
 80015d4:	6b1b      	ldr	r3, [r3, #48]	; 0x30
 80015d6:	4a67      	ldr	r2, [pc, #412]	; (8001774 <MX_GPIO_Init+0x1f4>)
 80015d8:	f043 0320 	orr.w	r3, r3, #32
 80015dc:	6313      	str	r3, [r2, #48]	; 0x30
 80015de:	4b65      	ldr	r3, [pc, #404]	; (8001774 <MX_GPIO_Init+0x1f4>)
 80015e0:	6b1b      	ldr	r3, [r3, #48]	; 0x30
 80015e2:	f003 0320 	and.w	r3, r3, #32
 80015e6:	61bb      	str	r3, [r7, #24]
 80015e8:	69bb      	ldr	r3, [r7, #24]
 80015ea:	2300      	movs	r3, #0
 80015ec:	617b      	str	r3, [r7, #20]
 80015ee:	4b61      	ldr	r3, [pc, #388]	; (8001774 <MX_GPIO_Init+0x1f4>)
 80015f0:	6b1b      	ldr	r3, [r3, #48]	; 0x30
 80015f2:	4a60      	ldr	r2, [pc, #384]	; (8001774 <MX_GPIO_Init+0x1f4>)
 80015f4:	f043 0380 	orr.w	r3, r3, #128	; 0x80
 80015f8:	6313      	str	r3, [r2, #48]	; 0x30
 80015fa:	4b5e      	ldr	r3, [pc, #376]	; (8001774 <MX_GPIO_Init+0x1f4>)
 80015fc:	6b1b      	ldr	r3, [r3, #48]	; 0x30
 80015fe:	f003 0380 	and.w	r3, r3, #128	; 0x80
 8001602:	617b      	str	r3, [r7, #20]
 8001604:	697b      	ldr	r3, [r7, #20]
 8001606:	2300      	movs	r3, #0
 8001608:	613b      	str	r3, [r7, #16]
 800160a:	4b5a      	ldr	r3, [pc, #360]	; (8001774 <MX_GPIO_Init+0x1f4>)
 800160c:	6b1b      	ldr	r3, [r3, #48]	; 0x30
 800160e:	4a59      	ldr	r2, [pc, #356]	; (8001774 <MX_GPIO_Init+0x1f4>)
 8001610:	f043 0301 	orr.w	r3, r3, #1
 8001614:	6313      	str	r3, [r2, #48]	; 0x30
 8001616:	4b57      	ldr	r3, [pc, #348]	; (8001774 <MX_GPIO_Init+0x1f4>)
 8001618:	6b1b      	ldr	r3, [r3, #48]	; 0x30
 800161a:	f003 0301 	and.w	r3, r3, #1
 800161e:	613b      	str	r3, [r7, #16]
 8001620:	693b      	ldr	r3, [r7, #16]
 8001622:	2300      	movs	r3, #0
 8001624:	60fb      	str	r3, [r7, #12]
 8001626:	4b53      	ldr	r3, [pc, #332]	; (8001774 <MX_GPIO_Init+0x1f4>)
 8001628:	6b1b      	ldr	r3, [r3, #48]	; 0x30
 800162a:	4a52      	ldr	r2, [pc, #328]	; (8001774 <MX_GPIO_Init+0x1f4>)
 800162c:	f043 0302 	orr.w	r3, r3, #2
 8001630:	6313      	str	r3, [r2, #48]	; 0x30
 8001632:	4b50      	ldr	r3, [pc, #320]	; (8001774 <MX_GPIO_Init+0x1f4>)
 8001634:	6b1b      	ldr	r3, [r3, #48]	; 0x30
 8001636:	f003 0302 	and.w	r3, r3, #2
 800163a:	60fb      	str	r3, [r7, #12]
 800163c:	68fb      	ldr	r3, [r7, #12]
 800163e:	2300      	movs	r3, #0
 8001640:	60bb      	str	r3, [r7, #8]
 8001642:	4b4c      	ldr	r3, [pc, #304]	; (8001774 <MX_GPIO_Init+0x1f4>)
 8001644:	6b1b      	ldr	r3, [r3, #48]	; 0x30
 8001646:	4a4b      	ldr	r2, [pc, #300]	; (8001774 <MX_GPIO_Init+0x1f4>)
 8001648:	f043 0308 	orr.w	r3, r3, #8
 800164c:	6313      	str	r3, [r2, #48]	; 0x30
 800164e:	4b49      	ldr	r3, [pc, #292]	; (8001774 <MX_GPIO_Init+0x1f4>)
 8001650:	6b1b      	ldr	r3, [r3, #48]	; 0x30
 8001652:	f003 0308 	and.w	r3, r3, #8
 8001656:	60bb      	str	r3, [r7, #8]
 8001658:	68bb      	ldr	r3, [r7, #8]
 800165a:	2300      	movs	r3, #0
 800165c:	607b      	str	r3, [r7, #4]
 800165e:	4b45      	ldr	r3, [pc, #276]	; (8001774 <MX_GPIO_Init+0x1f4>)
 8001660:	6b1b      	ldr	r3, [r3, #48]	; 0x30
 8001662:	4a44      	ldr	r2, [pc, #272]	; (8001774 <MX_GPIO_Init+0x1f4>)
 8001664:	f043 0340 	orr.w	r3, r3, #64	; 0x40
 8001668:	6313      	str	r3, [r2, #48]	; 0x30
 800166a:	4b42      	ldr	r3, [pc, #264]	; (8001774 <MX_GPIO_Init+0x1f4>)
 800166c:	6b1b      	ldr	r3, [r3, #48]	; 0x30
 800166e:	f003 0340 	and.w	r3, r3, #64	; 0x40
 8001672:	607b      	str	r3, [r7, #4]
 8001674:	687b      	ldr	r3, [r7, #4]
 8001676:	2200      	movs	r2, #0
 8001678:	2170      	movs	r1, #112	; 0x70
 800167a:	483f      	ldr	r0, [pc, #252]	; (8001778 <MX_GPIO_Init+0x1f8>)
 800167c:	f003 f9da 	bl	8004a34 <HAL_GPIO_WritePin>
 8001680:	2200      	movs	r2, #0
 8001682:	f44f 5100 	mov.w	r1, #8192	; 0x2000
 8001686:	483d      	ldr	r0, [pc, #244]	; (800177c <MX_GPIO_Init+0x1fc>)
 8001688:	f003 f9d4 	bl	8004a34 <HAL_GPIO_WritePin>
 800168c:	2200      	movs	r2, #0
 800168e:	2140      	movs	r1, #64	; 0x40
 8001690:	483b      	ldr	r0, [pc, #236]	; (8001780 <MX_GPIO_Init+0x200>)
 8001692:	f003 f9cf 	bl	8004a34 <HAL_GPIO_WritePin>
 8001696:	2200      	movs	r2, #0
 8001698:	f44f 4101 	mov.w	r1, #33024	; 0x8100
 800169c:	4839      	ldr	r0, [pc, #228]	; (8001784 <MX_GPIO_Init+0x204>)
 800169e:	f003 f9c9 	bl	8004a34 <HAL_GPIO_WritePin>
 80016a2:	2200      	movs	r2, #0
 80016a4:	2108      	movs	r1, #8
 80016a6:	4838      	ldr	r0, [pc, #224]	; (8001788 <MX_GPIO_Init+0x208>)
 80016a8:	f003 f9c4 	bl	8004a34 <HAL_GPIO_WritePin>
 80016ac:	2370      	movs	r3, #112	; 0x70
 80016ae:	627b      	str	r3, [r7, #36]	; 0x24
 80016b0:	2301      	movs	r3, #1
 80016b2:	62bb      	str	r3, [r7, #40]	; 0x28
 80016b4:	2300      	movs	r3, #0
 80016b6:	62fb      	str	r3, [r7, #44]	; 0x2c
 80016b8:	2300      	movs	r3, #0
 80016ba:	633b      	str	r3, [r7, #48]	; 0x30
 80016bc:	f107 0324 	add.w	r3, r7, #36	; 0x24
 80016c0:	4619      	mov	r1, r3
 80016c2:	482d      	ldr	r0, [pc, #180]	; (8001778 <MX_GPIO_Init+0x1f8>)
 80016c4:	f003 f81a 	bl	80046fc <HAL_GPIO_Init>
 80016c8:	f44f 5300 	mov.w	r3, #8192	; 0x2000
 80016cc:	627b      	str	r3, [r7, #36]	; 0x24
 80016ce:	2301      	movs	r3, #1
 80016d0:	62bb      	str	r3, [r7, #40]	; 0x28
 80016d2:	2300      	movs	r3, #0
 80016d4:	62fb      	str	r3, [r7, #44]	; 0x2c
 80016d6:	2300      	movs	r3, #0
 80016d8:	633b      	str	r3, [r7, #48]	; 0x30
 80016da:	f107 0324 	add.w	r3, r7, #36	; 0x24
 80016de:	4619      	mov	r1, r3
 80016e0:	4826      	ldr	r0, [pc, #152]	; (800177c <MX_GPIO_Init+0x1fc>)
 80016e2:	f003 f80b 	bl	80046fc <HAL_GPIO_Init>
 80016e6:	23c0      	movs	r3, #192	; 0xc0
 80016e8:	627b      	str	r3, [r7, #36]	; 0x24
 80016ea:	2300      	movs	r3, #0
 80016ec:	62bb      	str	r3, [r7, #40]	; 0x28
 80016ee:	2300      	movs	r3, #0
 80016f0:	62fb      	str	r3, [r7, #44]	; 0x2c
 80016f2:	f107 0324 	add.w	r3, r7, #36	; 0x24
 80016f6:	4619      	mov	r1, r3
 80016f8:	4822      	ldr	r0, [pc, #136]	; (8001784 <MX_GPIO_Init+0x204>)
 80016fa:	f002 ffff 	bl	80046fc <HAL_GPIO_Init>
 80016fe:	2330      	movs	r3, #48	; 0x30
 8001700:	627b      	str	r3, [r7, #36]	; 0x24
 8001702:	2300      	movs	r3, #0
 8001704:	62bb      	str	r3, [r7, #40]	; 0x28
 8001706:	2300      	movs	r3, #0
 8001708:	62fb      	str	r3, [r7, #44]	; 0x2c
 800170a:	f107 0324 	add.w	r3, r7, #36	; 0x24
 800170e:	4619      	mov	r1, r3
 8001710:	481a      	ldr	r0, [pc, #104]	; (800177c <MX_GPIO_Init+0x1fc>)
 8001712:	f002 fff3 	bl	80046fc <HAL_GPIO_Init>
 8001716:	2340      	movs	r3, #64	; 0x40
 8001718:	627b      	str	r3, [r7, #36]	; 0x24
 800171a:	2301      	movs	r3, #1
 800171c:	62bb      	str	r3, [r7, #40]	; 0x28
 800171e:	2300      	movs	r3, #0
 8001720:	62fb      	str	r3, [r7, #44]	; 0x2c
 8001722:	2300      	movs	r3, #0
 8001724:	633b      	str	r3, [r7, #48]	; 0x30
 8001726:	f107 0324 	add.w	r3, r7, #36	; 0x24
 800172a:	4619      	mov	r1, r3
 800172c:	4814      	ldr	r0, [pc, #80]	; (8001780 <MX_GPIO_Init+0x200>)
 800172e:	f002 ffe5 	bl	80046fc <HAL_GPIO_Init>
 8001732:	f44f 4301 	mov.w	r3, #33024	; 0x8100
 8001736:	627b      	str	r3, [r7, #36]	; 0x24
 8001738:	2301      	movs	r3, #1
 800173a:	62bb      	str	r3, [r7, #40]	; 0x28
 800173c:	2300      	movs	r3, #0
 800173e:	62fb      	str	r3, [r7, #44]	; 0x2c
 8001740:	2300      	movs	r3, #0
 8001742:	633b      	str	r3, [r7, #48]	; 0x30
 8001744:	f107 0324 	add.w	r3, r7, #36	; 0x24
 8001748:	4619      	mov	r1, r3
 800174a:	480e      	ldr	r0, [pc, #56]	; (8001784 <MX_GPIO_Init+0x204>)
 800174c:	f002 ffd6 	bl	80046fc <HAL_GPIO_Init>
 8001750:	2308      	movs	r3, #8
 8001752:	627b      	str	r3, [r7, #36]	; 0x24
 8001754:	2301      	movs	r3, #1
 8001756:	62bb      	str	r3, [r7, #40]	; 0x28
 8001758:	2300      	movs	r3, #0
 800175a:	62fb      	str	r3, [r7, #44]	; 0x2c
 800175c:	2300      	movs	r3, #0
 800175e:	633b      	str	r3, [r7, #48]	; 0x30
 8001760:	f107 0324 	add.w	r3, r7, #36	; 0x24
 8001764:	4619      	mov	r1, r3
 8001766:	4808      	ldr	r0, [pc, #32]	; (8001788 <MX_GPIO_Init+0x208>)
 8001768:	f002 ffc8 	bl	80046fc <HAL_GPIO_Init>
 800176c:	bf00      	nop
 800176e:	3738      	adds	r7, #56	; 0x38
 8001770:	46bd      	mov	sp, r7
 8001772:	bd80      	pop	{r7, pc}
 8001774:	40023800 	.word	0x40023800
 8001778:	40021000 	.word	0x40021000
 800177c:	40020800 	.word	0x40020800
 8001780:	40021800 	.word	0x40021800
 8001784:	40020000 	.word	0x40020000
 8001788:	40020c00 	.word	0x40020c00

0800178c <MX_I2C1_Init>:
 800178c:	b580      	push	{r7, lr}
 800178e:	af00      	add	r7, sp, #0
 8001790:	4b12      	ldr	r3, [pc, #72]	; (80017dc <MX_I2C1_Init+0x50>)
 8001792:	4a13      	ldr	r2, [pc, #76]	; (80017e0 <MX_I2C1_Init+0x54>)
 8001794:	601a      	str	r2, [r3, #0]
 8001796:	4b11      	ldr	r3, [pc, #68]	; (80017dc <MX_I2C1_Init+0x50>)
 8001798:	4a12      	ldr	r2, [pc, #72]	; (80017e4 <MX_I2C1_Init+0x58>)
 800179a:	605a      	str	r2, [r3, #4]
 800179c:	4b0f      	ldr	r3, [pc, #60]	; (80017dc <MX_I2C1_Init+0x50>)
 800179e:	2200      	movs	r2, #0
 80017a0:	609a      	str	r2, [r3, #8]
 80017a2:	4b0e      	ldr	r3, [pc, #56]	; (80017dc <MX_I2C1_Init+0x50>)
 80017a4:	2200      	movs	r2, #0
 80017a6:	60da      	str	r2, [r3, #12]
 80017a8:	4b0c      	ldr	r3, [pc, #48]	; (80017dc <MX_I2C1_Init+0x50>)
 80017aa:	f44f 4280 	mov.w	r2, #16384	; 0x4000
 80017ae:	611a      	str	r2, [r3, #16]
 80017b0:	4b0a      	ldr	r3, [pc, #40]	; (80017dc <MX_I2C1_Init+0x50>)
 80017b2:	2200      	movs	r2, #0
 80017b4:	615a      	str	r2, [r3, #20]
 80017b6:	4b09      	ldr	r3, [pc, #36]	; (80017dc <MX_I2C1_Init+0x50>)
 80017b8:	2200      	movs	r2, #0
 80017ba:	619a      	str	r2, [r3, #24]
 80017bc:	4b07      	ldr	r3, [pc, #28]	; (80017dc <MX_I2C1_Init+0x50>)
 80017be:	2200      	movs	r2, #0
 80017c0:	61da      	str	r2, [r3, #28]
 80017c2:	4b06      	ldr	r3, [pc, #24]	; (80017dc <MX_I2C1_Init+0x50>)
 80017c4:	2200      	movs	r2, #0
 80017c6:	621a      	str	r2, [r3, #32]
 80017c8:	4804      	ldr	r0, [pc, #16]	; (80017dc <MX_I2C1_Init+0x50>)
 80017ca:	f003 f967 	bl	8004a9c <HAL_I2C_Init>
 80017ce:	4603      	mov	r3, r0
 80017d0:	2b00      	cmp	r3, #0
 80017d2:	d001      	beq.n	80017d8 <MX_I2C1_Init+0x4c>
 80017d4:	f000 ff0a 	bl	80025ec <Error_Handler>
 80017d8:	bf00      	nop
 80017da:	bd80      	pop	{r7, pc}
 80017dc:	2000033c 	.word	0x2000033c
 80017e0:	40005400 	.word	0x40005400
 80017e4:	000186a0 	.word	0x000186a0

080017e8 <HAL_I2C_MspInit>:
 80017e8:	b580      	push	{r7, lr}
 80017ea:	b08a      	sub	sp, #40	; 0x28
 80017ec:	af00      	add	r7, sp, #0
 80017ee:	6078      	str	r0, [r7, #4]
 80017f0:	f107 0314 	add.w	r3, r7, #20
 80017f4:	2200      	movs	r2, #0
 80017f6:	601a      	str	r2, [r3, #0]
 80017f8:	605a      	str	r2, [r3, #4]
 80017fa:	609a      	str	r2, [r3, #8]
 80017fc:	60da      	str	r2, [r3, #12]
 80017fe:	611a      	str	r2, [r3, #16]
 8001800:	687b      	ldr	r3, [r7, #4]
 8001802:	681b      	ldr	r3, [r3, #0]
 8001804:	4a19      	ldr	r2, [pc, #100]	; (800186c <HAL_I2C_MspInit+0x84>)
 8001806:	4293      	cmp	r3, r2
 8001808:	d12b      	bne.n	8001862 <HAL_I2C_MspInit+0x7a>
 800180a:	2300      	movs	r3, #0
 800180c:	613b      	str	r3, [r7, #16]
 800180e:	4b18      	ldr	r3, [pc, #96]	; (8001870 <HAL_I2C_MspInit+0x88>)
 8001810:	6b1b      	ldr	r3, [r3, #48]	; 0x30
 8001812:	4a17      	ldr	r2, [pc, #92]	; (8001870 <HAL_I2C_MspInit+0x88>)
 8001814:	f043 0302 	orr.w	r3, r3, #2
 8001818:	6313      	str	r3, [r2, #48]	; 0x30
 800181a:	4b15      	ldr	r3, [pc, #84]	; (8001870 <HAL_I2C_MspInit+0x88>)
 800181c:	6b1b      	ldr	r3, [r3, #48]	; 0x30
 800181e:	f003 0302 	and.w	r3, r3, #2
 8001822:	613b      	str	r3, [r7, #16]
 8001824:	693b      	ldr	r3, [r7, #16]
 8001826:	23c0      	movs	r3, #192	; 0xc0
 8001828:	617b      	str	r3, [r7, #20]
 800182a:	2312      	movs	r3, #18
 800182c:	61bb      	str	r3, [r7, #24]
 800182e:	2300      	movs	r3, #0
 8001830:	61fb      	str	r3, [r7, #28]
 8001832:	2303      	movs	r3, #3
 8001834:	623b      	str	r3, [r7, #32]
 8001836:	2304      	movs	r3, #4
 8001838:	627b      	str	r3, [r7, #36]	; 0x24
 800183a:	f107 0314 	add.w	r3, r7, #20
 800183e:	4619      	mov	r1, r3
 8001840:	480c      	ldr	r0, [pc, #48]	; (8001874 <HAL_I2C_MspInit+0x8c>)
 8001842:	f002 ff5b 	bl	80046fc <HAL_GPIO_Init>
 8001846:	2300      	movs	r3, #0
 8001848:	60fb      	str	r3, [r7, #12]
 800184a:	4b09      	ldr	r3, [pc, #36]	; (8001870 <HAL_I2C_MspInit+0x88>)
 800184c:	6c1b      	ldr	r3, [r3, #64]	; 0x40
 800184e:	4a08      	ldr	r2, [pc, #32]	; (8001870 <HAL_I2C_MspInit+0x88>)
 8001850:	f443 1300 	orr.w	r3, r3, #2097152	; 0x200000
 8001854:	6413      	str	r3, [r2, #64]	; 0x40
 8001856:	4b06      	ldr	r3, [pc, #24]	; (8001870 <HAL_I2C_MspInit+0x88>)
 8001858:	6c1b      	ldr	r3, [r3, #64]	; 0x40
 800185a:	f403 1300 	and.w	r3, r3, #2097152	; 0x200000
 800185e:	60fb      	str	r3, [r7, #12]
 8001860:	68fb      	ldr	r3, [r7, #12]
 8001862:	bf00      	nop
 8001864:	3728      	adds	r7, #40	; 0x28
 8001866:	46bd      	mov	sp, r7
 8001868:	bd80      	pop	{r7, pc}
 800186a:	bf00      	nop
 800186c:	40005400 	.word	0x40005400
 8001870:	40023800 	.word	0x40023800
 8001874:	40020400 	.word	0x40020400

08001878 <LCD_WR_REG>:
 8001878:	b480      	push	{r7}
 800187a:	b083      	sub	sp, #12
 800187c:	af00      	add	r7, sp, #0
 800187e:	4603      	mov	r3, r0
 8001880:	80fb      	strh	r3, [r7, #6]
 8001882:	4a04      	ldr	r2, [pc, #16]	; (8001894 <LCD_WR_REG+0x1c>)
 8001884:	88fb      	ldrh	r3, [r7, #6]
 8001886:	8013      	strh	r3, [r2, #0]
 8001888:	bf00      	nop
 800188a:	370c      	adds	r7, #12
 800188c:	46bd      	mov	sp, r7
 800188e:	f85d 7b04 	ldr.w	r7, [sp], #4
 8001892:	4770      	bx	lr
 8001894:	600ffffe 	.word	0x600ffffe

08001898 <LCD_WR_DATA>:
 8001898:	b480      	push	{r7}
 800189a:	b083      	sub	sp, #12
 800189c:	af00      	add	r7, sp, #0
 800189e:	4603      	mov	r3, r0
 80018a0:	80fb      	strh	r3, [r7, #6]
 80018a2:	4a04      	ldr	r2, [pc, #16]	; (80018b4 <LCD_WR_DATA+0x1c>)
 80018a4:	88fb      	ldrh	r3, [r7, #6]
 80018a6:	8053      	strh	r3, [r2, #2]
 80018a8:	bf00      	nop
 80018aa:	370c      	adds	r7, #12
 80018ac:	46bd      	mov	sp, r7
 80018ae:	f85d 7b04 	ldr.w	r7, [sp], #4
 80018b2:	4770      	bx	lr
 80018b4:	600ffffe 	.word	0x600ffffe

080018b8 <LCD_RD_DATA>:
 80018b8:	b480      	push	{r7}
 80018ba:	b083      	sub	sp, #12
 80018bc:	af00      	add	r7, sp, #0
 80018be:	4b06      	ldr	r3, [pc, #24]	; (80018d8 <LCD_RD_DATA+0x20>)
 80018c0:	885b      	ldrh	r3, [r3, #2]
 80018c2:	b29b      	uxth	r3, r3
 80018c4:	80fb      	strh	r3, [r7, #6]
 80018c6:	88fb      	ldrh	r3, [r7, #6]
 80018c8:	b29b      	uxth	r3, r3
 80018ca:	4618      	mov	r0, r3
 80018cc:	370c      	adds	r7, #12
 80018ce:	46bd      	mov	sp, r7
 80018d0:	f85d 7b04 	ldr.w	r7, [sp], #4
 80018d4:	4770      	bx	lr
 80018d6:	bf00      	nop
 80018d8:	600ffffe 	.word	0x600ffffe

080018dc <lcd_set_address>:
 80018dc:	b590      	push	{r4, r7, lr}
 80018de:	b083      	sub	sp, #12
 80018e0:	af00      	add	r7, sp, #0
 80018e2:	4604      	mov	r4, r0
 80018e4:	4608      	mov	r0, r1
 80018e6:	4611      	mov	r1, r2
 80018e8:	461a      	mov	r2, r3
 80018ea:	4623      	mov	r3, r4
 80018ec:	80fb      	strh	r3, [r7, #6]
 80018ee:	4603      	mov	r3, r0
 80018f0:	80bb      	strh	r3, [r7, #4]
 80018f2:	460b      	mov	r3, r1
 80018f4:	807b      	strh	r3, [r7, #2]
 80018f6:	4613      	mov	r3, r2
 80018f8:	803b      	strh	r3, [r7, #0]
 80018fa:	202a      	movs	r0, #42	; 0x2a
 80018fc:	f7ff ffbc 	bl	8001878 <LCD_WR_REG>
 8001900:	88fb      	ldrh	r3, [r7, #6]
 8001902:	0a1b      	lsrs	r3, r3, #8
 8001904:	b29b      	uxth	r3, r3
 8001906:	4618      	mov	r0, r3
 8001908:	f7ff ffc6 	bl	8001898 <LCD_WR_DATA>
 800190c:	88fb      	ldrh	r3, [r7, #6]
 800190e:	b2db      	uxtb	r3, r3
 8001910:	b29b      	uxth	r3, r3
 8001912:	4618      	mov	r0, r3
 8001914:	f7ff ffc0 	bl	8001898 <LCD_WR_DATA>
 8001918:	887b      	ldrh	r3, [r7, #2]
 800191a:	0a1b      	lsrs	r3, r3, #8
 800191c:	b29b      	uxth	r3, r3
 800191e:	4618      	mov	r0, r3
 8001920:	f7ff ffba 	bl	8001898 <LCD_WR_DATA>
 8001924:	887b      	ldrh	r3, [r7, #2]
 8001926:	b2db      	uxtb	r3, r3
 8001928:	b29b      	uxth	r3, r3
 800192a:	4618      	mov	r0, r3
 800192c:	f7ff ffb4 	bl	8001898 <LCD_WR_DATA>
 8001930:	202b      	movs	r0, #43	; 0x2b
 8001932:	f7ff ffa1 	bl	8001878 <LCD_WR_REG>
 8001936:	88bb      	ldrh	r3, [r7, #4]
 8001938:	0a1b      	lsrs	r3, r3, #8
 800193a:	b29b      	uxth	r3, r3
 800193c:	4618      	mov	r0, r3
 800193e:	f7ff ffab 	bl	8001898 <LCD_WR_DATA>
 8001942:	88bb      	ldrh	r3, [r7, #4]
 8001944:	b2db      	uxtb	r3, r3
 8001946:	b29b      	uxth	r3, r3
 8001948:	4618      	mov	r0, r3
 800194a:	f7ff ffa5 	bl	8001898 <LCD_WR_DATA>
 800194e:	883b      	ldrh	r3, [r7, #0]
 8001950:	0a1b      	lsrs	r3, r3, #8
 8001952:	b29b      	uxth	r3, r3
 8001954:	4618      	mov	r0, r3
 8001956:	f7ff ff9f 	bl	8001898 <LCD_WR_DATA>
 800195a:	883b      	ldrh	r3, [r7, #0]
 800195c:	b2db      	uxtb	r3, r3
 800195e:	b29b      	uxth	r3, r3
 8001960:	4618      	mov	r0, r3
 8001962:	f7ff ff99 	bl	8001898 <LCD_WR_DATA>
 8001966:	202c      	movs	r0, #44	; 0x2c
 8001968:	f7ff ff86 	bl	8001878 <LCD_WR_REG>
 800196c:	bf00      	nop
 800196e:	370c      	adds	r7, #12
 8001970:	46bd      	mov	sp, r7
 8001972:	bd90      	pop	{r4, r7, pc}

08001974 <lcd_clear>:
 8001974:	b580      	push	{r7, lr}
 8001976:	b084      	sub	sp, #16
 8001978:	af00      	add	r7, sp, #0
 800197a:	4603      	mov	r3, r0
 800197c:	80fb      	strh	r3, [r7, #6]
 800197e:	4b15      	ldr	r3, [pc, #84]	; (80019d4 <lcd_clear+0x60>)
 8001980:	881b      	ldrh	r3, [r3, #0]
 8001982:	3b01      	subs	r3, #1
 8001984:	b29a      	uxth	r2, r3
 8001986:	4b13      	ldr	r3, [pc, #76]	; (80019d4 <lcd_clear+0x60>)
 8001988:	885b      	ldrh	r3, [r3, #2]
 800198a:	3b01      	subs	r3, #1
 800198c:	b29b      	uxth	r3, r3
 800198e:	2100      	movs	r1, #0
 8001990:	2000      	movs	r0, #0
 8001992:	f7ff ffa3 	bl	80018dc <lcd_set_address>
 8001996:	2300      	movs	r3, #0
 8001998:	81fb      	strh	r3, [r7, #14]
 800199a:	e011      	b.n	80019c0 <lcd_clear+0x4c>
 800199c:	2300      	movs	r3, #0
 800199e:	81bb      	strh	r3, [r7, #12]
 80019a0:	e006      	b.n	80019b0 <lcd_clear+0x3c>
 80019a2:	88fb      	ldrh	r3, [r7, #6]
 80019a4:	4618      	mov	r0, r3
 80019a6:	f7ff ff77 	bl	8001898 <LCD_WR_DATA>
 80019aa:	89bb      	ldrh	r3, [r7, #12]
 80019ac:	3301      	adds	r3, #1
 80019ae:	81bb      	strh	r3, [r7, #12]
 80019b0:	4b08      	ldr	r3, [pc, #32]	; (80019d4 <lcd_clear+0x60>)
 80019b2:	885b      	ldrh	r3, [r3, #2]
 80019b4:	89ba      	ldrh	r2, [r7, #12]
 80019b6:	429a      	cmp	r2, r3
 80019b8:	d3f3      	bcc.n	80019a2 <lcd_clear+0x2e>
 80019ba:	89fb      	ldrh	r3, [r7, #14]
 80019bc:	3301      	adds	r3, #1
 80019be:	81fb      	strh	r3, [r7, #14]
 80019c0:	4b04      	ldr	r3, [pc, #16]	; (80019d4 <lcd_clear+0x60>)
 80019c2:	881b      	ldrh	r3, [r3, #0]
 80019c4:	89fa      	ldrh	r2, [r7, #14]
 80019c6:	429a      	cmp	r2, r3
 80019c8:	d3e8      	bcc.n	800199c <lcd_clear+0x28>
 80019ca:	bf00      	nop
 80019cc:	bf00      	nop
 80019ce:	3710      	adds	r7, #16
 80019d0:	46bd      	mov	sp, r7
 80019d2:	bd80      	pop	{r7, pc}
 80019d4:	20000390 	.word	0x20000390

080019d8 <lcd_draw_point>:
 80019d8:	b580      	push	{r7, lr}
 80019da:	b082      	sub	sp, #8
 80019dc:	af00      	add	r7, sp, #0
 80019de:	4603      	mov	r3, r0
 80019e0:	80fb      	strh	r3, [r7, #6]
 80019e2:	460b      	mov	r3, r1
 80019e4:	80bb      	strh	r3, [r7, #4]
 80019e6:	4613      	mov	r3, r2
 80019e8:	807b      	strh	r3, [r7, #2]
 80019ea:	88bb      	ldrh	r3, [r7, #4]
 80019ec:	88fa      	ldrh	r2, [r7, #6]
 80019ee:	88b9      	ldrh	r1, [r7, #4]
 80019f0:	88f8      	ldrh	r0, [r7, #6]
 80019f2:	f7ff ff73 	bl	80018dc <lcd_set_address>
 80019f6:	887b      	ldrh	r3, [r7, #2]
 80019f8:	4618      	mov	r0, r3
 80019fa:	f7ff ff4d 	bl	8001898 <LCD_WR_DATA>
 80019fe:	bf00      	nop
 8001a00:	3708      	adds	r7, #8
 8001a02:	46bd      	mov	sp, r7
 8001a04:	bd80      	pop	{r7, pc}
	...

08001a08 <lcd_show_char>:
 8001a08:	b590      	push	{r4, r7, lr}
 8001a0a:	b087      	sub	sp, #28
 8001a0c:	af00      	add	r7, sp, #0
 8001a0e:	4604      	mov	r4, r0
 8001a10:	4608      	mov	r0, r1
 8001a12:	4611      	mov	r1, r2
 8001a14:	461a      	mov	r2, r3
 8001a16:	4623      	mov	r3, r4
 8001a18:	80fb      	strh	r3, [r7, #6]
 8001a1a:	4603      	mov	r3, r0
 8001a1c:	80bb      	strh	r3, [r7, #4]
 8001a1e:	460b      	mov	r3, r1
 8001a20:	70fb      	strb	r3, [r7, #3]
 8001a22:	4613      	mov	r3, r2
 8001a24:	803b      	strh	r3, [r7, #0]
 8001a26:	2300      	movs	r3, #0
 8001a28:	757b      	strb	r3, [r7, #21]
 8001a2a:	88fb      	ldrh	r3, [r7, #6]
 8001a2c:	823b      	strh	r3, [r7, #16]
 8001a2e:	f897 302c 	ldrb.w	r3, [r7, #44]	; 0x2c
 8001a32:	085b      	lsrs	r3, r3, #1
 8001a34:	73fb      	strb	r3, [r7, #15]
 8001a36:	7bfb      	ldrb	r3, [r7, #15]
 8001a38:	08db      	lsrs	r3, r3, #3
 8001a3a:	b2db      	uxtb	r3, r3
 8001a3c:	461a      	mov	r2, r3
 8001a3e:	7bfb      	ldrb	r3, [r7, #15]
 8001a40:	f003 0307 	and.w	r3, r3, #7
 8001a44:	b2db      	uxtb	r3, r3
 8001a46:	2b00      	cmp	r3, #0
 8001a48:	bf14      	ite	ne
 8001a4a:	2301      	movne	r3, #1
 8001a4c:	2300      	moveq	r3, #0
 8001a4e:	b2db      	uxtb	r3, r3
 8001a50:	4413      	add	r3, r2
 8001a52:	b29a      	uxth	r2, r3
 8001a54:	f897 302c 	ldrb.w	r3, [r7, #44]	; 0x2c
 8001a58:	b29b      	uxth	r3, r3
 8001a5a:	fb12 f303 	smulbb	r3, r2, r3
 8001a5e:	81bb      	strh	r3, [r7, #12]
 8001a60:	78fb      	ldrb	r3, [r7, #3]
 8001a62:	3b20      	subs	r3, #32
 8001a64:	70fb      	strb	r3, [r7, #3]
 8001a66:	7bfb      	ldrb	r3, [r7, #15]
 8001a68:	b29a      	uxth	r2, r3
 8001a6a:	88fb      	ldrh	r3, [r7, #6]
 8001a6c:	4413      	add	r3, r2
 8001a6e:	b29b      	uxth	r3, r3
 8001a70:	3b01      	subs	r3, #1
 8001a72:	b29c      	uxth	r4, r3
 8001a74:	f897 302c 	ldrb.w	r3, [r7, #44]	; 0x2c
 8001a78:	b29a      	uxth	r2, r3
 8001a7a:	88bb      	ldrh	r3, [r7, #4]
 8001a7c:	4413      	add	r3, r2
 8001a7e:	b29b      	uxth	r3, r3
 8001a80:	3b01      	subs	r3, #1
 8001a82:	b29b      	uxth	r3, r3
 8001a84:	88b9      	ldrh	r1, [r7, #4]
 8001a86:	88f8      	ldrh	r0, [r7, #6]
 8001a88:	4622      	mov	r2, r4
 8001a8a:	f7ff ff27 	bl	80018dc <lcd_set_address>
 8001a8e:	2300      	movs	r3, #0
 8001a90:	827b      	strh	r3, [r7, #18]
 8001a92:	e07a      	b.n	8001b8a <lcd_show_char+0x182>
 8001a94:	f897 302c 	ldrb.w	r3, [r7, #44]	; 0x2c
 8001a98:	2b0c      	cmp	r3, #12
 8001a9a:	d028      	beq.n	8001aee <lcd_show_char+0xe6>
 8001a9c:	f897 302c 	ldrb.w	r3, [r7, #44]	; 0x2c
 8001aa0:	2b10      	cmp	r3, #16
 8001aa2:	d108      	bne.n	8001ab6 <lcd_show_char+0xae>
 8001aa4:	78fa      	ldrb	r2, [r7, #3]
 8001aa6:	8a7b      	ldrh	r3, [r7, #18]
 8001aa8:	493c      	ldr	r1, [pc, #240]	; (8001b9c <lcd_show_char+0x194>)
 8001aaa:	0112      	lsls	r2, r2, #4
 8001aac:	440a      	add	r2, r1
 8001aae:	4413      	add	r3, r2
 8001ab0:	781b      	ldrb	r3, [r3, #0]
 8001ab2:	75fb      	strb	r3, [r7, #23]
 8001ab4:	e01b      	b.n	8001aee <lcd_show_char+0xe6>
 8001ab6:	f897 302c 	ldrb.w	r3, [r7, #44]	; 0x2c
 8001aba:	2b18      	cmp	r3, #24
 8001abc:	d10b      	bne.n	8001ad6 <lcd_show_char+0xce>
 8001abe:	78fa      	ldrb	r2, [r7, #3]
 8001ac0:	8a79      	ldrh	r1, [r7, #18]
 8001ac2:	4837      	ldr	r0, [pc, #220]	; (8001ba0 <lcd_show_char+0x198>)
 8001ac4:	4613      	mov	r3, r2
 8001ac6:	005b      	lsls	r3, r3, #1
 8001ac8:	4413      	add	r3, r2
 8001aca:	011b      	lsls	r3, r3, #4
 8001acc:	4403      	add	r3, r0
 8001ace:	440b      	add	r3, r1
 8001ad0:	781b      	ldrb	r3, [r3, #0]
 8001ad2:	75fb      	strb	r3, [r7, #23]
 8001ad4:	e00b      	b.n	8001aee <lcd_show_char+0xe6>
 8001ad6:	f897 302c 	ldrb.w	r3, [r7, #44]	; 0x2c
 8001ada:	2b20      	cmp	r3, #32
 8001adc:	d15a      	bne.n	8001b94 <lcd_show_char+0x18c>
 8001ade:	78fa      	ldrb	r2, [r7, #3]
 8001ae0:	8a7b      	ldrh	r3, [r7, #18]
 8001ae2:	4930      	ldr	r1, [pc, #192]	; (8001ba4 <lcd_show_char+0x19c>)
 8001ae4:	0192      	lsls	r2, r2, #6
 8001ae6:	440a      	add	r2, r1
 8001ae8:	4413      	add	r3, r2
 8001aea:	781b      	ldrb	r3, [r3, #0]
 8001aec:	75fb      	strb	r3, [r7, #23]
 8001aee:	2300      	movs	r3, #0
 8001af0:	75bb      	strb	r3, [r7, #22]
 8001af2:	e044      	b.n	8001b7e <lcd_show_char+0x176>
 8001af4:	f897 3030 	ldrb.w	r3, [r7, #48]	; 0x30
 8001af8:	2b00      	cmp	r3, #0
 8001afa:	d120      	bne.n	8001b3e <lcd_show_char+0x136>
 8001afc:	7dfa      	ldrb	r2, [r7, #23]
 8001afe:	7dbb      	ldrb	r3, [r7, #22]
 8001b00:	fa42 f303 	asr.w	r3, r2, r3
 8001b04:	f003 0301 	and.w	r3, r3, #1
 8001b08:	2b00      	cmp	r3, #0
 8001b0a:	d004      	beq.n	8001b16 <lcd_show_char+0x10e>
 8001b0c:	883b      	ldrh	r3, [r7, #0]
 8001b0e:	4618      	mov	r0, r3
 8001b10:	f7ff fec2 	bl	8001898 <LCD_WR_DATA>
 8001b14:	e003      	b.n	8001b1e <lcd_show_char+0x116>
 8001b16:	8d3b      	ldrh	r3, [r7, #40]	; 0x28
 8001b18:	4618      	mov	r0, r3
 8001b1a:	f7ff febd 	bl	8001898 <LCD_WR_DATA>
 8001b1e:	7d7b      	ldrb	r3, [r7, #21]
 8001b20:	3301      	adds	r3, #1
 8001b22:	757b      	strb	r3, [r7, #21]
 8001b24:	7d7b      	ldrb	r3, [r7, #21]
 8001b26:	7bfa      	ldrb	r2, [r7, #15]
 8001b28:	fbb3 f1f2 	udiv	r1, r3, r2
 8001b2c:	fb01 f202 	mul.w	r2, r1, r2
 8001b30:	1a9b      	subs	r3, r3, r2
 8001b32:	b2db      	uxtb	r3, r3
 8001b34:	2b00      	cmp	r3, #0
 8001b36:	d11f      	bne.n	8001b78 <lcd_show_char+0x170>
 8001b38:	2300      	movs	r3, #0
 8001b3a:	757b      	strb	r3, [r7, #21]
 8001b3c:	e022      	b.n	8001b84 <lcd_show_char+0x17c>
 8001b3e:	7dfa      	ldrb	r2, [r7, #23]
 8001b40:	7dbb      	ldrb	r3, [r7, #22]
 8001b42:	fa42 f303 	asr.w	r3, r2, r3
 8001b46:	f003 0301 	and.w	r3, r3, #1
 8001b4a:	2b00      	cmp	r3, #0
 8001b4c:	d005      	beq.n	8001b5a <lcd_show_char+0x152>
 8001b4e:	883a      	ldrh	r2, [r7, #0]
 8001b50:	88b9      	ldrh	r1, [r7, #4]
 8001b52:	88fb      	ldrh	r3, [r7, #6]
 8001b54:	4618      	mov	r0, r3
 8001b56:	f7ff ff3f 	bl	80019d8 <lcd_draw_point>
 8001b5a:	88fb      	ldrh	r3, [r7, #6]
 8001b5c:	3301      	adds	r3, #1
 8001b5e:	80fb      	strh	r3, [r7, #6]
 8001b60:	88fa      	ldrh	r2, [r7, #6]
 8001b62:	8a3b      	ldrh	r3, [r7, #16]
 8001b64:	1ad2      	subs	r2, r2, r3
 8001b66:	7bfb      	ldrb	r3, [r7, #15]
 8001b68:	429a      	cmp	r2, r3
 8001b6a:	d105      	bne.n	8001b78 <lcd_show_char+0x170>
 8001b6c:	8a3b      	ldrh	r3, [r7, #16]
 8001b6e:	80fb      	strh	r3, [r7, #6]
 8001b70:	88bb      	ldrh	r3, [r7, #4]
 8001b72:	3301      	adds	r3, #1
 8001b74:	80bb      	strh	r3, [r7, #4]
 8001b76:	e005      	b.n	8001b84 <lcd_show_char+0x17c>
 8001b78:	7dbb      	ldrb	r3, [r7, #22]
 8001b7a:	3301      	adds	r3, #1
 8001b7c:	75bb      	strb	r3, [r7, #22]
 8001b7e:	7dbb      	ldrb	r3, [r7, #22]
 8001b80:	2b07      	cmp	r3, #7
 8001b82:	d9b7      	bls.n	8001af4 <lcd_show_char+0xec>
 8001b84:	8a7b      	ldrh	r3, [r7, #18]
 8001b86:	3301      	adds	r3, #1
 8001b88:	827b      	strh	r3, [r7, #18]
 8001b8a:	8a7a      	ldrh	r2, [r7, #18]
 8001b8c:	89bb      	ldrh	r3, [r7, #12]
 8001b8e:	429a      	cmp	r2, r3
 8001b90:	d380      	bcc.n	8001a94 <lcd_show_char+0x8c>
 8001b92:	e000      	b.n	8001b96 <lcd_show_char+0x18e>
 8001b94:	bf00      	nop
 8001b96:	371c      	adds	r7, #28
 8001b98:	46bd      	mov	sp, r7
 8001b9a:	bd90      	pop	{r4, r7, pc}
 8001b9c:	08008050 	.word	0x08008050
 8001ba0:	08008640 	.word	0x08008640
 8001ba4:	08009810 	.word	0x08009810

08001ba8 <mypow>:
 8001ba8:	b480      	push	{r7}
 8001baa:	b085      	sub	sp, #20
 8001bac:	af00      	add	r7, sp, #0
 8001bae:	4603      	mov	r3, r0
 8001bb0:	460a      	mov	r2, r1
 8001bb2:	71fb      	strb	r3, [r7, #7]
 8001bb4:	4613      	mov	r3, r2
 8001bb6:	71bb      	strb	r3, [r7, #6]
 8001bb8:	2301      	movs	r3, #1
 8001bba:	60fb      	str	r3, [r7, #12]
 8001bbc:	e004      	b.n	8001bc8 <mypow+0x20>
 8001bbe:	79fa      	ldrb	r2, [r7, #7]
 8001bc0:	68fb      	ldr	r3, [r7, #12]
 8001bc2:	fb02 f303 	mul.w	r3, r2, r3
 8001bc6:	60fb      	str	r3, [r7, #12]
 8001bc8:	79bb      	ldrb	r3, [r7, #6]
 8001bca:	1e5a      	subs	r2, r3, #1
 8001bcc:	71ba      	strb	r2, [r7, #6]
 8001bce:	2b00      	cmp	r3, #0
 8001bd0:	d1f5      	bne.n	8001bbe <mypow+0x16>
 8001bd2:	68fb      	ldr	r3, [r7, #12]
 8001bd4:	4618      	mov	r0, r3
 8001bd6:	3714      	adds	r7, #20
 8001bd8:	46bd      	mov	sp, r7
 8001bda:	f85d 7b04 	ldr.w	r7, [sp], #4
 8001bde:	4770      	bx	lr

08001be0 <lcd_show_int_num>:
 8001be0:	b590      	push	{r4, r7, lr}
 8001be2:	b089      	sub	sp, #36	; 0x24
 8001be4:	af04      	add	r7, sp, #16
 8001be6:	4604      	mov	r4, r0
 8001be8:	4608      	mov	r0, r1
 8001bea:	4611      	mov	r1, r2
 8001bec:	461a      	mov	r2, r3
 8001bee:	4623      	mov	r3, r4
 8001bf0:	80fb      	strh	r3, [r7, #6]
 8001bf2:	4603      	mov	r3, r0
 8001bf4:	80bb      	strh	r3, [r7, #4]
 8001bf6:	460b      	mov	r3, r1
 8001bf8:	807b      	strh	r3, [r7, #2]
 8001bfa:	4613      	mov	r3, r2
 8001bfc:	707b      	strb	r3, [r7, #1]
 8001bfe:	2300      	movs	r3, #0
 8001c00:	73bb      	strb	r3, [r7, #14]
 8001c02:	f897 3028 	ldrb.w	r3, [r7, #40]	; 0x28
 8001c06:	085b      	lsrs	r3, r3, #1
 8001c08:	737b      	strb	r3, [r7, #13]
 8001c0a:	2300      	movs	r3, #0
 8001c0c:	73fb      	strb	r3, [r7, #15]
 8001c0e:	e059      	b.n	8001cc4 <lcd_show_int_num+0xe4>
 8001c10:	887c      	ldrh	r4, [r7, #2]
 8001c12:	787a      	ldrb	r2, [r7, #1]
 8001c14:	7bfb      	ldrb	r3, [r7, #15]
 8001c16:	1ad3      	subs	r3, r2, r3
 8001c18:	b2db      	uxtb	r3, r3
 8001c1a:	3b01      	subs	r3, #1
 8001c1c:	b2db      	uxtb	r3, r3
 8001c1e:	4619      	mov	r1, r3
 8001c20:	200a      	movs	r0, #10
 8001c22:	f7ff ffc1 	bl	8001ba8 <mypow>
 8001c26:	4603      	mov	r3, r0
 8001c28:	fbb4 f1f3 	udiv	r1, r4, r3
 8001c2c:	4b2a      	ldr	r3, [pc, #168]	; (8001cd8 <lcd_show_int_num+0xf8>)
 8001c2e:	fba3 2301 	umull	r2, r3, r3, r1
 8001c32:	08da      	lsrs	r2, r3, #3
 8001c34:	4613      	mov	r3, r2
 8001c36:	009b      	lsls	r3, r3, #2
 8001c38:	4413      	add	r3, r2
 8001c3a:	005b      	lsls	r3, r3, #1
 8001c3c:	1aca      	subs	r2, r1, r3
 8001c3e:	4613      	mov	r3, r2
 8001c40:	733b      	strb	r3, [r7, #12]
 8001c42:	7bbb      	ldrb	r3, [r7, #14]
 8001c44:	2b00      	cmp	r3, #0
 8001c46:	d121      	bne.n	8001c8c <lcd_show_int_num+0xac>
 8001c48:	7bfa      	ldrb	r2, [r7, #15]
 8001c4a:	787b      	ldrb	r3, [r7, #1]
 8001c4c:	3b01      	subs	r3, #1
 8001c4e:	429a      	cmp	r2, r3
 8001c50:	da1c      	bge.n	8001c8c <lcd_show_int_num+0xac>
 8001c52:	7b3b      	ldrb	r3, [r7, #12]
 8001c54:	2b00      	cmp	r3, #0
 8001c56:	d117      	bne.n	8001c88 <lcd_show_int_num+0xa8>
 8001c58:	7bfb      	ldrb	r3, [r7, #15]
 8001c5a:	b29a      	uxth	r2, r3
 8001c5c:	7b7b      	ldrb	r3, [r7, #13]
 8001c5e:	b29b      	uxth	r3, r3
 8001c60:	fb12 f303 	smulbb	r3, r2, r3
 8001c64:	b29a      	uxth	r2, r3
 8001c66:	88fb      	ldrh	r3, [r7, #6]
 8001c68:	4413      	add	r3, r2
 8001c6a:	b298      	uxth	r0, r3
 8001c6c:	8c3a      	ldrh	r2, [r7, #32]
 8001c6e:	88b9      	ldrh	r1, [r7, #4]
 8001c70:	2300      	movs	r3, #0
 8001c72:	9302      	str	r3, [sp, #8]
 8001c74:	f897 3028 	ldrb.w	r3, [r7, #40]	; 0x28
 8001c78:	9301      	str	r3, [sp, #4]
 8001c7a:	8cbb      	ldrh	r3, [r7, #36]	; 0x24
 8001c7c:	9300      	str	r3, [sp, #0]
 8001c7e:	4613      	mov	r3, r2
 8001c80:	2220      	movs	r2, #32
 8001c82:	f7ff fec1 	bl	8001a08 <lcd_show_char>
 8001c86:	e01a      	b.n	8001cbe <lcd_show_int_num+0xde>
 8001c88:	2301      	movs	r3, #1
 8001c8a:	73bb      	strb	r3, [r7, #14]
 8001c8c:	7bfb      	ldrb	r3, [r7, #15]
 8001c8e:	b29a      	uxth	r2, r3
 8001c90:	7b7b      	ldrb	r3, [r7, #13]
 8001c92:	b29b      	uxth	r3, r3
 8001c94:	fb12 f303 	smulbb	r3, r2, r3
 8001c98:	b29a      	uxth	r2, r3
 8001c9a:	88fb      	ldrh	r3, [r7, #6]
 8001c9c:	4413      	add	r3, r2
 8001c9e:	b298      	uxth	r0, r3
 8001ca0:	7b3b      	ldrb	r3, [r7, #12]
 8001ca2:	3330      	adds	r3, #48	; 0x30
 8001ca4:	b2da      	uxtb	r2, r3
 8001ca6:	8c3c      	ldrh	r4, [r7, #32]
 8001ca8:	88b9      	ldrh	r1, [r7, #4]
 8001caa:	2300      	movs	r3, #0
 8001cac:	9302      	str	r3, [sp, #8]
 8001cae:	f897 3028 	ldrb.w	r3, [r7, #40]	; 0x28
 8001cb2:	9301      	str	r3, [sp, #4]
 8001cb4:	8cbb      	ldrh	r3, [r7, #36]	; 0x24
 8001cb6:	9300      	str	r3, [sp, #0]
 8001cb8:	4623      	mov	r3, r4
 8001cba:	f7ff fea5 	bl	8001a08 <lcd_show_char>
 8001cbe:	7bfb      	ldrb	r3, [r7, #15]
 8001cc0:	3301      	adds	r3, #1
 8001cc2:	73fb      	strb	r3, [r7, #15]
 8001cc4:	7bfa      	ldrb	r2, [r7, #15]
 8001cc6:	787b      	ldrb	r3, [r7, #1]
 8001cc8:	429a      	cmp	r2, r3
 8001cca:	d3a1      	bcc.n	8001c10 <lcd_show_int_num+0x30>
 8001ccc:	bf00      	nop
 8001cce:	bf00      	nop
 8001cd0:	3714      	adds	r7, #20
 8001cd2:	46bd      	mov	sp, r7
 8001cd4:	bd90      	pop	{r4, r7, pc}
 8001cd6:	bf00      	nop
 8001cd8:	cccccccd 	.word	0xcccccccd

08001cdc <lcd_show_float_num>:
 8001cdc:	b590      	push	{r4, r7, lr}
 8001cde:	b08b      	sub	sp, #44	; 0x2c
 8001ce0:	af04      	add	r7, sp, #16
 8001ce2:	4604      	mov	r4, r0
 8001ce4:	4608      	mov	r0, r1
 8001ce6:	ed87 0a02 	vstr	s0, [r7, #8]
 8001cea:	4611      	mov	r1, r2
 8001cec:	461a      	mov	r2, r3
 8001cee:	4623      	mov	r3, r4
 8001cf0:	81fb      	strh	r3, [r7, #14]
 8001cf2:	4603      	mov	r3, r0
 8001cf4:	81bb      	strh	r3, [r7, #12]
 8001cf6:	460b      	mov	r3, r1
 8001cf8:	71fb      	strb	r3, [r7, #7]
 8001cfa:	4613      	mov	r3, r2
 8001cfc:	80bb      	strh	r3, [r7, #4]
 8001cfe:	f897 302c 	ldrb.w	r3, [r7, #44]	; 0x2c
 8001d02:	085b      	lsrs	r3, r3, #1
 8001d04:	75bb      	strb	r3, [r7, #22]
 8001d06:	edd7 7a02 	vldr	s15, [r7, #8]
 8001d0a:	ed9f 7a36 	vldr	s14, [pc, #216]	; 8001de4 <lcd_show_float_num+0x108>
 8001d0e:	ee67 7a87 	vmul.f32	s15, s15, s14
 8001d12:	eefc 7ae7 	vcvt.u32.f32	s15, s15
 8001d16:	ee17 3a90 	vmov	r3, s15
 8001d1a:	82bb      	strh	r3, [r7, #20]
 8001d1c:	2300      	movs	r3, #0
 8001d1e:	75fb      	strb	r3, [r7, #23]
 8001d20:	e057      	b.n	8001dd2 <lcd_show_float_num+0xf6>
 8001d22:	8abc      	ldrh	r4, [r7, #20]
 8001d24:	79fa      	ldrb	r2, [r7, #7]
 8001d26:	7dfb      	ldrb	r3, [r7, #23]
 8001d28:	1ad3      	subs	r3, r2, r3
 8001d2a:	b2db      	uxtb	r3, r3
 8001d2c:	3b01      	subs	r3, #1
 8001d2e:	b2db      	uxtb	r3, r3
 8001d30:	4619      	mov	r1, r3
 8001d32:	200a      	movs	r0, #10
 8001d34:	f7ff ff38 	bl	8001ba8 <mypow>
 8001d38:	4603      	mov	r3, r0
 8001d3a:	fbb4 f1f3 	udiv	r1, r4, r3
 8001d3e:	4b2a      	ldr	r3, [pc, #168]	; (8001de8 <lcd_show_float_num+0x10c>)
 8001d40:	fba3 2301 	umull	r2, r3, r3, r1
 8001d44:	08da      	lsrs	r2, r3, #3
 8001d46:	4613      	mov	r3, r2
 8001d48:	009b      	lsls	r3, r3, #2
 8001d4a:	4413      	add	r3, r2
 8001d4c:	005b      	lsls	r3, r3, #1
 8001d4e:	1aca      	subs	r2, r1, r3
 8001d50:	4613      	mov	r3, r2
 8001d52:	74fb      	strb	r3, [r7, #19]
 8001d54:	7dfa      	ldrb	r2, [r7, #23]
 8001d56:	79fb      	ldrb	r3, [r7, #7]
 8001d58:	3b02      	subs	r3, #2
 8001d5a:	429a      	cmp	r2, r3
 8001d5c:	d11d      	bne.n	8001d9a <lcd_show_float_num+0xbe>
 8001d5e:	79fb      	ldrb	r3, [r7, #7]
 8001d60:	3b02      	subs	r3, #2
 8001d62:	b29a      	uxth	r2, r3
 8001d64:	7dbb      	ldrb	r3, [r7, #22]
 8001d66:	b29b      	uxth	r3, r3
 8001d68:	fb12 f303 	smulbb	r3, r2, r3
 8001d6c:	b29a      	uxth	r2, r3
 8001d6e:	89fb      	ldrh	r3, [r7, #14]
 8001d70:	4413      	add	r3, r2
 8001d72:	b298      	uxth	r0, r3
 8001d74:	88ba      	ldrh	r2, [r7, #4]
 8001d76:	89b9      	ldrh	r1, [r7, #12]
 8001d78:	2300      	movs	r3, #0
 8001d7a:	9302      	str	r3, [sp, #8]
 8001d7c:	f897 302c 	ldrb.w	r3, [r7, #44]	; 0x2c
 8001d80:	9301      	str	r3, [sp, #4]
 8001d82:	8d3b      	ldrh	r3, [r7, #40]	; 0x28
 8001d84:	9300      	str	r3, [sp, #0]
 8001d86:	4613      	mov	r3, r2
 8001d88:	222e      	movs	r2, #46	; 0x2e
 8001d8a:	f7ff fe3d 	bl	8001a08 <lcd_show_char>
 8001d8e:	7dfb      	ldrb	r3, [r7, #23]
 8001d90:	3301      	adds	r3, #1
 8001d92:	75fb      	strb	r3, [r7, #23]
 8001d94:	79fb      	ldrb	r3, [r7, #7]
 8001d96:	3301      	adds	r3, #1
 8001d98:	71fb      	strb	r3, [r7, #7]
 8001d9a:	7dfb      	ldrb	r3, [r7, #23]
 8001d9c:	b29a      	uxth	r2, r3
 8001d9e:	7dbb      	ldrb	r3, [r7, #22]
 8001da0:	b29b      	uxth	r3, r3
 8001da2:	fb12 f303 	smulbb	r3, r2, r3
 8001da6:	b29a      	uxth	r2, r3
 8001da8:	89fb      	ldrh	r3, [r7, #14]
 8001daa:	4413      	add	r3, r2
 8001dac:	b298      	uxth	r0, r3
 8001dae:	7cfb      	ldrb	r3, [r7, #19]
 8001db0:	3330      	adds	r3, #48	; 0x30
 8001db2:	b2da      	uxtb	r2, r3
 8001db4:	88bc      	ldrh	r4, [r7, #4]
 8001db6:	89b9      	ldrh	r1, [r7, #12]
 8001db8:	2300      	movs	r3, #0
 8001dba:	9302      	str	r3, [sp, #8]
 8001dbc:	f897 302c 	ldrb.w	r3, [r7, #44]	; 0x2c
 8001dc0:	9301      	str	r3, [sp, #4]
 8001dc2:	8d3b      	ldrh	r3, [r7, #40]	; 0x28
 8001dc4:	9300      	str	r3, [sp, #0]
 8001dc6:	4623      	mov	r3, r4
 8001dc8:	f7ff fe1e 	bl	8001a08 <lcd_show_char>
 8001dcc:	7dfb      	ldrb	r3, [r7, #23]
 8001dce:	3301      	adds	r3, #1
 8001dd0:	75fb      	strb	r3, [r7, #23]
 8001dd2:	7dfa      	ldrb	r2, [r7, #23]
 8001dd4:	79fb      	ldrb	r3, [r7, #7]
 8001dd6:	429a      	cmp	r2, r3
 8001dd8:	d3a3      	bcc.n	8001d22 <lcd_show_float_num+0x46>
 8001dda:	bf00      	nop
 8001ddc:	bf00      	nop
 8001dde:	371c      	adds	r7, #28
 8001de0:	46bd      	mov	sp, r7
 8001de2:	bd90      	pop	{r4, r7, pc}
 8001de4:	42c80000 	.word	0x42c80000
 8001de8:	cccccccd 	.word	0xcccccccd

08001dec <lcd_set_direction>:
 8001dec:	b480      	push	{r7}
 8001dee:	b083      	sub	sp, #12
 8001df0:	af00      	add	r7, sp, #0
 8001df2:	4603      	mov	r3, r0
 8001df4:	71fb      	strb	r3, [r7, #7]
 8001df6:	79fb      	ldrb	r3, [r7, #7]
 8001df8:	091b      	lsrs	r3, r3, #4
 8001dfa:	b2db      	uxtb	r3, r3
 8001dfc:	f003 0303 	and.w	r3, r3, #3
 8001e00:	b2db      	uxtb	r3, r3
 8001e02:	2b00      	cmp	r3, #0
 8001e04:	d007      	beq.n	8001e16 <lcd_set_direction+0x2a>
 8001e06:	4b0a      	ldr	r3, [pc, #40]	; (8001e30 <lcd_set_direction+0x44>)
 8001e08:	f44f 72a0 	mov.w	r2, #320	; 0x140
 8001e0c:	801a      	strh	r2, [r3, #0]
 8001e0e:	4b08      	ldr	r3, [pc, #32]	; (8001e30 <lcd_set_direction+0x44>)
 8001e10:	22f0      	movs	r2, #240	; 0xf0
 8001e12:	805a      	strh	r2, [r3, #2]
 8001e14:	e006      	b.n	8001e24 <lcd_set_direction+0x38>
 8001e16:	4b06      	ldr	r3, [pc, #24]	; (8001e30 <lcd_set_direction+0x44>)
 8001e18:	22f0      	movs	r2, #240	; 0xf0
 8001e1a:	801a      	strh	r2, [r3, #0]
 8001e1c:	4b04      	ldr	r3, [pc, #16]	; (8001e30 <lcd_set_direction+0x44>)
 8001e1e:	f44f 72a0 	mov.w	r2, #320	; 0x140
 8001e22:	805a      	strh	r2, [r3, #2]
 8001e24:	bf00      	nop
 8001e26:	370c      	adds	r7, #12
 8001e28:	46bd      	mov	sp, r7
 8001e2a:	f85d 7b04 	ldr.w	r7, [sp], #4
 8001e2e:	4770      	bx	lr
 8001e30:	20000390 	.word	0x20000390

08001e34 <lcd_init>:
 8001e34:	b580      	push	{r7, lr}
 8001e36:	af00      	add	r7, sp, #0
 8001e38:	2200      	movs	r2, #0
 8001e3a:	f44f 5100 	mov.w	r1, #8192	; 0x2000
 8001e3e:	48aa      	ldr	r0, [pc, #680]	; (80020e8 <lcd_init+0x2b4>)
 8001e40:	f002 fdf8 	bl	8004a34 <HAL_GPIO_WritePin>
 8001e44:	f44f 70fa 	mov.w	r0, #500	; 0x1f4
 8001e48:	f001 fb0e 	bl	8003468 <HAL_Delay>
 8001e4c:	2201      	movs	r2, #1
 8001e4e:	f44f 5100 	mov.w	r1, #8192	; 0x2000
 8001e52:	48a5      	ldr	r0, [pc, #660]	; (80020e8 <lcd_init+0x2b4>)
 8001e54:	f002 fdee 	bl	8004a34 <HAL_GPIO_WritePin>
 8001e58:	f44f 70fa 	mov.w	r0, #500	; 0x1f4
 8001e5c:	f001 fb04 	bl	8003468 <HAL_Delay>
 8001e60:	2000      	movs	r0, #0
 8001e62:	f7ff ffc3 	bl	8001dec <lcd_set_direction>
 8001e66:	20d3      	movs	r0, #211	; 0xd3
 8001e68:	f7ff fd06 	bl	8001878 <LCD_WR_REG>
 8001e6c:	f7ff fd24 	bl	80018b8 <LCD_RD_DATA>
 8001e70:	4603      	mov	r3, r0
 8001e72:	461a      	mov	r2, r3
 8001e74:	4b9d      	ldr	r3, [pc, #628]	; (80020ec <lcd_init+0x2b8>)
 8001e76:	809a      	strh	r2, [r3, #4]
 8001e78:	f7ff fd1e 	bl	80018b8 <LCD_RD_DATA>
 8001e7c:	4603      	mov	r3, r0
 8001e7e:	461a      	mov	r2, r3
 8001e80:	4b9a      	ldr	r3, [pc, #616]	; (80020ec <lcd_init+0x2b8>)
 8001e82:	809a      	strh	r2, [r3, #4]
 8001e84:	f7ff fd18 	bl	80018b8 <LCD_RD_DATA>
 8001e88:	4603      	mov	r3, r0
 8001e8a:	461a      	mov	r2, r3
 8001e8c:	4b97      	ldr	r3, [pc, #604]	; (80020ec <lcd_init+0x2b8>)
 8001e8e:	809a      	strh	r2, [r3, #4]
 8001e90:	4b96      	ldr	r3, [pc, #600]	; (80020ec <lcd_init+0x2b8>)
 8001e92:	889b      	ldrh	r3, [r3, #4]
 8001e94:	021b      	lsls	r3, r3, #8
 8001e96:	b29a      	uxth	r2, r3
 8001e98:	4b94      	ldr	r3, [pc, #592]	; (80020ec <lcd_init+0x2b8>)
 8001e9a:	809a      	strh	r2, [r3, #4]
 8001e9c:	f7ff fd0c 	bl	80018b8 <LCD_RD_DATA>
 8001ea0:	4603      	mov	r3, r0
 8001ea2:	461a      	mov	r2, r3
 8001ea4:	4b91      	ldr	r3, [pc, #580]	; (80020ec <lcd_init+0x2b8>)
 8001ea6:	889b      	ldrh	r3, [r3, #4]
 8001ea8:	4313      	orrs	r3, r2
 8001eaa:	b29a      	uxth	r2, r3
 8001eac:	4b8f      	ldr	r3, [pc, #572]	; (80020ec <lcd_init+0x2b8>)
 8001eae:	809a      	strh	r2, [r3, #4]
 8001eb0:	20cf      	movs	r0, #207	; 0xcf
 8001eb2:	f7ff fce1 	bl	8001878 <LCD_WR_REG>
 8001eb6:	2000      	movs	r0, #0
 8001eb8:	f7ff fcee 	bl	8001898 <LCD_WR_DATA>
 8001ebc:	20c1      	movs	r0, #193	; 0xc1
 8001ebe:	f7ff fceb 	bl	8001898 <LCD_WR_DATA>
 8001ec2:	2030      	movs	r0, #48	; 0x30
 8001ec4:	f7ff fce8 	bl	8001898 <LCD_WR_DATA>
 8001ec8:	20ed      	movs	r0, #237	; 0xed
 8001eca:	f7ff fcd5 	bl	8001878 <LCD_WR_REG>
 8001ece:	2064      	movs	r0, #100	; 0x64
 8001ed0:	f7ff fce2 	bl	8001898 <LCD_WR_DATA>
 8001ed4:	2003      	movs	r0, #3
 8001ed6:	f7ff fcdf 	bl	8001898 <LCD_WR_DATA>
 8001eda:	2012      	movs	r0, #18
 8001edc:	f7ff fcdc 	bl	8001898 <LCD_WR_DATA>
 8001ee0:	2081      	movs	r0, #129	; 0x81
 8001ee2:	f7ff fcd9 	bl	8001898 <LCD_WR_DATA>
 8001ee6:	20e8      	movs	r0, #232	; 0xe8
 8001ee8:	f7ff fcc6 	bl	8001878 <LCD_WR_REG>
 8001eec:	2085      	movs	r0, #133	; 0x85
 8001eee:	f7ff fcd3 	bl	8001898 <LCD_WR_DATA>
 8001ef2:	2010      	movs	r0, #16
 8001ef4:	f7ff fcd0 	bl	8001898 <LCD_WR_DATA>
 8001ef8:	207a      	movs	r0, #122	; 0x7a
 8001efa:	f7ff fccd 	bl	8001898 <LCD_WR_DATA>
 8001efe:	20cb      	movs	r0, #203	; 0xcb
 8001f00:	f7ff fcba 	bl	8001878 <LCD_WR_REG>
 8001f04:	2039      	movs	r0, #57	; 0x39
 8001f06:	f7ff fcc7 	bl	8001898 <LCD_WR_DATA>
 8001f0a:	202c      	movs	r0, #44	; 0x2c
 8001f0c:	f7ff fcc4 	bl	8001898 <LCD_WR_DATA>
 8001f10:	2000      	movs	r0, #0
 8001f12:	f7ff fcc1 	bl	8001898 <LCD_WR_DATA>
 8001f16:	2034      	movs	r0, #52	; 0x34
 8001f18:	f7ff fcbe 	bl	8001898 <LCD_WR_DATA>
 8001f1c:	2002      	movs	r0, #2
 8001f1e:	f7ff fcbb 	bl	8001898 <LCD_WR_DATA>
 8001f22:	20f7      	movs	r0, #247	; 0xf7
 8001f24:	f7ff fca8 	bl	8001878 <LCD_WR_REG>
 8001f28:	2020      	movs	r0, #32
 8001f2a:	f7ff fcb5 	bl	8001898 <LCD_WR_DATA>
 8001f2e:	20ea      	movs	r0, #234	; 0xea
 8001f30:	f7ff fca2 	bl	8001878 <LCD_WR_REG>
 8001f34:	2000      	movs	r0, #0
 8001f36:	f7ff fcaf 	bl	8001898 <LCD_WR_DATA>
 8001f3a:	2000      	movs	r0, #0
 8001f3c:	f7ff fcac 	bl	8001898 <LCD_WR_DATA>
 8001f40:	20c0      	movs	r0, #192	; 0xc0
 8001f42:	f7ff fc99 	bl	8001878 <LCD_WR_REG>
 8001f46:	201b      	movs	r0, #27
 8001f48:	f7ff fca6 	bl	8001898 <LCD_WR_DATA>
 8001f4c:	20c1      	movs	r0, #193	; 0xc1
 8001f4e:	f7ff fc93 	bl	8001878 <LCD_WR_REG>
 8001f52:	2001      	movs	r0, #1
 8001f54:	f7ff fca0 	bl	8001898 <LCD_WR_DATA>
 8001f58:	20c5      	movs	r0, #197	; 0xc5
 8001f5a:	f7ff fc8d 	bl	8001878 <LCD_WR_REG>
 8001f5e:	2030      	movs	r0, #48	; 0x30
 8001f60:	f7ff fc9a 	bl	8001898 <LCD_WR_DATA>
 8001f64:	2030      	movs	r0, #48	; 0x30
 8001f66:	f7ff fc97 	bl	8001898 <LCD_WR_DATA>
 8001f6a:	20c7      	movs	r0, #199	; 0xc7
 8001f6c:	f7ff fc84 	bl	8001878 <LCD_WR_REG>
 8001f70:	20b7      	movs	r0, #183	; 0xb7
 8001f72:	f7ff fc91 	bl	8001898 <LCD_WR_DATA>
 8001f76:	2036      	movs	r0, #54	; 0x36
 8001f78:	f7ff fc7e 	bl	8001878 <LCD_WR_REG>
 8001f7c:	2008      	movs	r0, #8
 8001f7e:	f7ff fc8b 	bl	8001898 <LCD_WR_DATA>
 8001f82:	203a      	movs	r0, #58	; 0x3a
 8001f84:	f7ff fc78 	bl	8001878 <LCD_WR_REG>
 8001f88:	2055      	movs	r0, #85	; 0x55
 8001f8a:	f7ff fc85 	bl	8001898 <LCD_WR_DATA>
 8001f8e:	20b1      	movs	r0, #177	; 0xb1
 8001f90:	f7ff fc72 	bl	8001878 <LCD_WR_REG>
 8001f94:	2000      	movs	r0, #0
 8001f96:	f7ff fc7f 	bl	8001898 <LCD_WR_DATA>
 8001f9a:	201a      	movs	r0, #26
 8001f9c:	f7ff fc7c 	bl	8001898 <LCD_WR_DATA>
 8001fa0:	20b6      	movs	r0, #182	; 0xb6
 8001fa2:	f7ff fc69 	bl	8001878 <LCD_WR_REG>
 8001fa6:	200a      	movs	r0, #10
 8001fa8:	f7ff fc76 	bl	8001898 <LCD_WR_DATA>
 8001fac:	20a2      	movs	r0, #162	; 0xa2
 8001fae:	f7ff fc73 	bl	8001898 <LCD_WR_DATA>
 8001fb2:	20f2      	movs	r0, #242	; 0xf2
 8001fb4:	f7ff fc60 	bl	8001878 <LCD_WR_REG>
 8001fb8:	2000      	movs	r0, #0
 8001fba:	f7ff fc6d 	bl	8001898 <LCD_WR_DATA>
 8001fbe:	2026      	movs	r0, #38	; 0x26
 8001fc0:	f7ff fc5a 	bl	8001878 <LCD_WR_REG>
 8001fc4:	2001      	movs	r0, #1
 8001fc6:	f7ff fc67 	bl	8001898 <LCD_WR_DATA>
 8001fca:	20e0      	movs	r0, #224	; 0xe0
 8001fcc:	f7ff fc54 	bl	8001878 <LCD_WR_REG>
 8001fd0:	200f      	movs	r0, #15
 8001fd2:	f7ff fc61 	bl	8001898 <LCD_WR_DATA>
 8001fd6:	202a      	movs	r0, #42	; 0x2a
 8001fd8:	f7ff fc5e 	bl	8001898 <LCD_WR_DATA>
 8001fdc:	2028      	movs	r0, #40	; 0x28
 8001fde:	f7ff fc5b 	bl	8001898 <LCD_WR_DATA>
 8001fe2:	2008      	movs	r0, #8
 8001fe4:	f7ff fc58 	bl	8001898 <LCD_WR_DATA>
 8001fe8:	200e      	movs	r0, #14
 8001fea:	f7ff fc55 	bl	8001898 <LCD_WR_DATA>
 8001fee:	2008      	movs	r0, #8
 8001ff0:	f7ff fc52 	bl	8001898 <LCD_WR_DATA>
 8001ff4:	2054      	movs	r0, #84	; 0x54
 8001ff6:	f7ff fc4f 	bl	8001898 <LCD_WR_DATA>
 8001ffa:	20a9      	movs	r0, #169	; 0xa9
 8001ffc:	f7ff fc4c 	bl	8001898 <LCD_WR_DATA>
 8002000:	2043      	movs	r0, #67	; 0x43
 8002002:	f7ff fc49 	bl	8001898 <LCD_WR_DATA>
 8002006:	200a      	movs	r0, #10
 8002008:	f7ff fc46 	bl	8001898 <LCD_WR_DATA>
 800200c:	200f      	movs	r0, #15
 800200e:	f7ff fc43 	bl	8001898 <LCD_WR_DATA>
 8002012:	2000      	movs	r0, #0
 8002014:	f7ff fc40 	bl	8001898 <LCD_WR_DATA>
 8002018:	2000      	movs	r0, #0
 800201a:	f7ff fc3d 	bl	8001898 <LCD_WR_DATA>
 800201e:	2000      	movs	r0, #0
 8002020:	f7ff fc3a 	bl	8001898 <LCD_WR_DATA>
 8002024:	2000      	movs	r0, #0
 8002026:	f7ff fc37 	bl	8001898 <LCD_WR_DATA>
 800202a:	20e1      	movs	r0, #225	; 0xe1
 800202c:	f7ff fc24 	bl	8001878 <LCD_WR_REG>
 8002030:	2000      	movs	r0, #0
 8002032:	f7ff fc31 	bl	8001898 <LCD_WR_DATA>
 8002036:	2015      	movs	r0, #21
 8002038:	f7ff fc2e 	bl	8001898 <LCD_WR_DATA>
 800203c:	2017      	movs	r0, #23
 800203e:	f7ff fc2b 	bl	8001898 <LCD_WR_DATA>
 8002042:	2007      	movs	r0, #7
 8002044:	f7ff fc28 	bl	8001898 <LCD_WR_DATA>
 8002048:	2011      	movs	r0, #17
 800204a:	f7ff fc25 	bl	8001898 <LCD_WR_DATA>
 800204e:	2006      	movs	r0, #6
 8002050:	f7ff fc22 	bl	8001898 <LCD_WR_DATA>
 8002054:	202b      	movs	r0, #43	; 0x2b
 8002056:	f7ff fc1f 	bl	8001898 <LCD_WR_DATA>
 800205a:	2056      	movs	r0, #86	; 0x56
 800205c:	f7ff fc1c 	bl	8001898 <LCD_WR_DATA>
 8002060:	203c      	movs	r0, #60	; 0x3c
 8002062:	f7ff fc19 	bl	8001898 <LCD_WR_DATA>
 8002066:	2005      	movs	r0, #5
 8002068:	f7ff fc16 	bl	8001898 <LCD_WR_DATA>
 800206c:	2010      	movs	r0, #16
 800206e:	f7ff fc13 	bl	8001898 <LCD_WR_DATA>
 8002072:	200f      	movs	r0, #15
 8002074:	f7ff fc10 	bl	8001898 <LCD_WR_DATA>
 8002078:	203f      	movs	r0, #63	; 0x3f
 800207a:	f7ff fc0d 	bl	8001898 <LCD_WR_DATA>
 800207e:	203f      	movs	r0, #63	; 0x3f
 8002080:	f7ff fc0a 	bl	8001898 <LCD_WR_DATA>
 8002084:	200f      	movs	r0, #15
 8002086:	f7ff fc07 	bl	8001898 <LCD_WR_DATA>
 800208a:	202b      	movs	r0, #43	; 0x2b
 800208c:	f7ff fbf4 	bl	8001878 <LCD_WR_REG>
 8002090:	2000      	movs	r0, #0
 8002092:	f7ff fc01 	bl	8001898 <LCD_WR_DATA>
 8002096:	2000      	movs	r0, #0
 8002098:	f7ff fbfe 	bl	8001898 <LCD_WR_DATA>
 800209c:	2001      	movs	r0, #1
 800209e:	f7ff fbfb 	bl	8001898 <LCD_WR_DATA>
 80020a2:	203f      	movs	r0, #63	; 0x3f
 80020a4:	f7ff fbf8 	bl	8001898 <LCD_WR_DATA>
 80020a8:	202a      	movs	r0, #42	; 0x2a
 80020aa:	f7ff fbe5 	bl	8001878 <LCD_WR_REG>
 80020ae:	2000      	movs	r0, #0
 80020b0:	f7ff fbf2 	bl	8001898 <LCD_WR_DATA>
 80020b4:	2000      	movs	r0, #0
 80020b6:	f7ff fbef 	bl	8001898 <LCD_WR_DATA>
 80020ba:	2000      	movs	r0, #0
 80020bc:	f7ff fbec 	bl	8001898 <LCD_WR_DATA>
 80020c0:	20ef      	movs	r0, #239	; 0xef
 80020c2:	f7ff fbe9 	bl	8001898 <LCD_WR_DATA>
 80020c6:	2011      	movs	r0, #17
 80020c8:	f7ff fbd6 	bl	8001878 <LCD_WR_REG>
 80020cc:	2078      	movs	r0, #120	; 0x78
 80020ce:	f001 f9cb 	bl	8003468 <HAL_Delay>
 80020d2:	2029      	movs	r0, #41	; 0x29
 80020d4:	f7ff fbd0 	bl	8001878 <LCD_WR_REG>
 80020d8:	2201      	movs	r2, #1
 80020da:	f44f 7180 	mov.w	r1, #256	; 0x100
 80020de:	4804      	ldr	r0, [pc, #16]	; (80020f0 <lcd_init+0x2bc>)
 80020e0:	f002 fca8 	bl	8004a34 <HAL_GPIO_WritePin>
 80020e4:	bf00      	nop
 80020e6:	bd80      	pop	{r7, pc}
 80020e8:	40020800 	.word	0x40020800
 80020ec:	20000390 	.word	0x20000390
 80020f0:	40020000 	.word	0x40020000

080020f4 <lcd_show_string>:
 80020f4:	b590      	push	{r4, r7, lr}
 80020f6:	b08b      	sub	sp, #44	; 0x2c
 80020f8:	af04      	add	r7, sp, #16
 80020fa:	60ba      	str	r2, [r7, #8]
 80020fc:	461a      	mov	r2, r3
 80020fe:	4603      	mov	r3, r0
 8002100:	81fb      	strh	r3, [r7, #14]
 8002102:	460b      	mov	r3, r1
 8002104:	81bb      	strh	r3, [r7, #12]
 8002106:	4613      	mov	r3, r2
 8002108:	80fb      	strh	r3, [r7, #6]
 800210a:	89fb      	ldrh	r3, [r7, #14]
 800210c:	82bb      	strh	r3, [r7, #20]
 800210e:	2300      	movs	r3, #0
 8002110:	75fb      	strb	r3, [r7, #23]
 8002112:	e048      	b.n	80021a6 <lcd_show_string+0xb2>
 8002114:	7dfb      	ldrb	r3, [r7, #23]
 8002116:	2b00      	cmp	r3, #0
 8002118:	d145      	bne.n	80021a6 <lcd_show_string+0xb2>
 800211a:	89fa      	ldrh	r2, [r7, #14]
 800211c:	4b26      	ldr	r3, [pc, #152]	; (80021b8 <lcd_show_string+0xc4>)
 800211e:	881b      	ldrh	r3, [r3, #0]
 8002120:	4619      	mov	r1, r3
 8002122:	f897 302c 	ldrb.w	r3, [r7, #44]	; 0x2c
 8002126:	085b      	lsrs	r3, r3, #1
 8002128:	b2db      	uxtb	r3, r3
 800212a:	1acb      	subs	r3, r1, r3
 800212c:	429a      	cmp	r2, r3
 800212e:	dc3f      	bgt.n	80021b0 <lcd_show_string+0xbc>
 8002130:	89ba      	ldrh	r2, [r7, #12]
 8002132:	4b21      	ldr	r3, [pc, #132]	; (80021b8 <lcd_show_string+0xc4>)
 8002134:	885b      	ldrh	r3, [r3, #2]
 8002136:	4619      	mov	r1, r3
 8002138:	f897 302c 	ldrb.w	r3, [r7, #44]	; 0x2c
 800213c:	1acb      	subs	r3, r1, r3
 800213e:	429a      	cmp	r2, r3
 8002140:	dc36      	bgt.n	80021b0 <lcd_show_string+0xbc>
 8002142:	68bb      	ldr	r3, [r7, #8]
 8002144:	781b      	ldrb	r3, [r3, #0]
 8002146:	2b80      	cmp	r3, #128	; 0x80
 8002148:	d902      	bls.n	8002150 <lcd_show_string+0x5c>
 800214a:	2301      	movs	r3, #1
 800214c:	75fb      	strb	r3, [r7, #23]
 800214e:	e02a      	b.n	80021a6 <lcd_show_string+0xb2>
 8002150:	68bb      	ldr	r3, [r7, #8]
 8002152:	781b      	ldrb	r3, [r3, #0]
 8002154:	2b0d      	cmp	r3, #13
 8002156:	d10b      	bne.n	8002170 <lcd_show_string+0x7c>
 8002158:	f897 302c 	ldrb.w	r3, [r7, #44]	; 0x2c
 800215c:	b29a      	uxth	r2, r3
 800215e:	89bb      	ldrh	r3, [r7, #12]
 8002160:	4413      	add	r3, r2
 8002162:	81bb      	strh	r3, [r7, #12]
 8002164:	8abb      	ldrh	r3, [r7, #20]
 8002166:	81fb      	strh	r3, [r7, #14]
 8002168:	68bb      	ldr	r3, [r7, #8]
 800216a:	3301      	adds	r3, #1
 800216c:	60bb      	str	r3, [r7, #8]
 800216e:	e017      	b.n	80021a0 <lcd_show_string+0xac>
 8002170:	68bb      	ldr	r3, [r7, #8]
 8002172:	781a      	ldrb	r2, [r3, #0]
 8002174:	88fc      	ldrh	r4, [r7, #6]
 8002176:	89b9      	ldrh	r1, [r7, #12]
 8002178:	89f8      	ldrh	r0, [r7, #14]
 800217a:	f897 3030 	ldrb.w	r3, [r7, #48]	; 0x30
 800217e:	9302      	str	r3, [sp, #8]
 8002180:	f897 302c 	ldrb.w	r3, [r7, #44]	; 0x2c
 8002184:	9301      	str	r3, [sp, #4]
 8002186:	8d3b      	ldrh	r3, [r7, #40]	; 0x28
 8002188:	9300      	str	r3, [sp, #0]
 800218a:	4623      	mov	r3, r4
 800218c:	f7ff fc3c 	bl	8001a08 <lcd_show_char>
 8002190:	f897 302c 	ldrb.w	r3, [r7, #44]	; 0x2c
 8002194:	085b      	lsrs	r3, r3, #1
 8002196:	b2db      	uxtb	r3, r3
 8002198:	b29a      	uxth	r2, r3
 800219a:	89fb      	ldrh	r3, [r7, #14]
 800219c:	4413      	add	r3, r2
 800219e:	81fb      	strh	r3, [r7, #14]
 80021a0:	68bb      	ldr	r3, [r7, #8]
 80021a2:	3301      	adds	r3, #1
 80021a4:	60bb      	str	r3, [r7, #8]
 80021a6:	68bb      	ldr	r3, [r7, #8]
 80021a8:	781b      	ldrb	r3, [r3, #0]
 80021aa:	2b00      	cmp	r3, #0
 80021ac:	d1b2      	bne.n	8002114 <lcd_show_string+0x20>
 80021ae:	e000      	b.n	80021b2 <lcd_show_string+0xbe>
 80021b0:	bf00      	nop
 80021b2:	371c      	adds	r7, #28
 80021b4:	46bd      	mov	sp, r7
 80021b6:	bd90      	pop	{r4, r7, pc}
 80021b8:	20000390 	.word	0x20000390

080021bc <led_7seg_display>:
 80021bc:	b580      	push	{r7, lr}
 80021be:	af00      	add	r7, sp, #0
 80021c0:	4b3f      	ldr	r3, [pc, #252]	; (80022c0 <led_7seg_display+0x104>)
 80021c2:	881b      	ldrh	r3, [r3, #0]
 80021c4:	b2db      	uxtb	r3, r3
 80021c6:	b29a      	uxth	r2, r3
 80021c8:	4b3d      	ldr	r3, [pc, #244]	; (80022c0 <led_7seg_display+0x104>)
 80021ca:	801a      	strh	r2, [r3, #0]
 80021cc:	4b3d      	ldr	r3, [pc, #244]	; (80022c4 <led_7seg_display+0x108>)
 80021ce:	881b      	ldrh	r3, [r3, #0]
 80021d0:	461a      	mov	r2, r3
 80021d2:	4b3d      	ldr	r3, [pc, #244]	; (80022c8 <led_7seg_display+0x10c>)
 80021d4:	5c9b      	ldrb	r3, [r3, r2]
 80021d6:	021b      	lsls	r3, r3, #8
 80021d8:	b21a      	sxth	r2, r3
 80021da:	4b39      	ldr	r3, [pc, #228]	; (80022c0 <led_7seg_display+0x104>)
 80021dc:	881b      	ldrh	r3, [r3, #0]
 80021de:	b21b      	sxth	r3, r3
 80021e0:	4313      	orrs	r3, r2
 80021e2:	b21b      	sxth	r3, r3
 80021e4:	b29a      	uxth	r2, r3
 80021e6:	4b36      	ldr	r3, [pc, #216]	; (80022c0 <led_7seg_display+0x104>)
 80021e8:	801a      	strh	r2, [r3, #0]
 80021ea:	4b36      	ldr	r3, [pc, #216]	; (80022c4 <led_7seg_display+0x108>)
 80021ec:	881b      	ldrh	r3, [r3, #0]
 80021ee:	2b03      	cmp	r3, #3
 80021f0:	d846      	bhi.n	8002280 <led_7seg_display+0xc4>
 80021f2:	a201      	add	r2, pc, #4	; (adr r2, 80021f8 <led_7seg_display+0x3c>)
 80021f4:	f852 f023 	ldr.w	pc, [r2, r3, lsl #2]
 80021f8:	08002209 	.word	0x08002209
 80021fc:	08002227 	.word	0x08002227
 8002200:	08002245 	.word	0x08002245
 8002204:	08002263 	.word	0x08002263
 8002208:	4b2d      	ldr	r3, [pc, #180]	; (80022c0 <led_7seg_display+0x104>)
 800220a:	881b      	ldrh	r3, [r3, #0]
 800220c:	f043 03b0 	orr.w	r3, r3, #176	; 0xb0
 8002210:	b29a      	uxth	r2, r3
 8002212:	4b2b      	ldr	r3, [pc, #172]	; (80022c0 <led_7seg_display+0x104>)
 8002214:	801a      	strh	r2, [r3, #0]
 8002216:	4b2a      	ldr	r3, [pc, #168]	; (80022c0 <led_7seg_display+0x104>)
 8002218:	881b      	ldrh	r3, [r3, #0]
 800221a:	f023 0340 	bic.w	r3, r3, #64	; 0x40
 800221e:	b29a      	uxth	r2, r3
 8002220:	4b27      	ldr	r3, [pc, #156]	; (80022c0 <led_7seg_display+0x104>)
 8002222:	801a      	strh	r2, [r3, #0]
 8002224:	e02d      	b.n	8002282 <led_7seg_display+0xc6>
 8002226:	4b26      	ldr	r3, [pc, #152]	; (80022c0 <led_7seg_display+0x104>)
 8002228:	881b      	ldrh	r3, [r3, #0]
 800222a:	f043 03d0 	orr.w	r3, r3, #208	; 0xd0
 800222e:	b29a      	uxth	r2, r3
 8002230:	4b23      	ldr	r3, [pc, #140]	; (80022c0 <led_7seg_display+0x104>)
 8002232:	801a      	strh	r2, [r3, #0]
 8002234:	4b22      	ldr	r3, [pc, #136]	; (80022c0 <led_7seg_display+0x104>)
 8002236:	881b      	ldrh	r3, [r3, #0]
 8002238:	f023 0320 	bic.w	r3, r3, #32
 800223c:	b29a      	uxth	r2, r3
 800223e:	4b20      	ldr	r3, [pc, #128]	; (80022c0 <led_7seg_display+0x104>)
 8002240:	801a      	strh	r2, [r3, #0]
 8002242:	e01e      	b.n	8002282 <led_7seg_display+0xc6>
 8002244:	4b1e      	ldr	r3, [pc, #120]	; (80022c0 <led_7seg_display+0x104>)
 8002246:	881b      	ldrh	r3, [r3, #0]
 8002248:	f043 03e0 	orr.w	r3, r3, #224	; 0xe0
 800224c:	b29a      	uxth	r2, r3
 800224e:	4b1c      	ldr	r3, [pc, #112]	; (80022c0 <led_7seg_display+0x104>)
 8002250:	801a      	strh	r2, [r3, #0]
 8002252:	4b1b      	ldr	r3, [pc, #108]	; (80022c0 <led_7seg_display+0x104>)
 8002254:	881b      	ldrh	r3, [r3, #0]
 8002256:	f023 0310 	bic.w	r3, r3, #16
 800225a:	b29a      	uxth	r2, r3
 800225c:	4b18      	ldr	r3, [pc, #96]	; (80022c0 <led_7seg_display+0x104>)
 800225e:	801a      	strh	r2, [r3, #0]
 8002260:	e00f      	b.n	8002282 <led_7seg_display+0xc6>
 8002262:	4b17      	ldr	r3, [pc, #92]	; (80022c0 <led_7seg_display+0x104>)
 8002264:	881b      	ldrh	r3, [r3, #0]
 8002266:	f043 0370 	orr.w	r3, r3, #112	; 0x70
 800226a:	b29a      	uxth	r2, r3
 800226c:	4b14      	ldr	r3, [pc, #80]	; (80022c0 <led_7seg_display+0x104>)
 800226e:	801a      	strh	r2, [r3, #0]
 8002270:	4b13      	ldr	r3, [pc, #76]	; (80022c0 <led_7seg_display+0x104>)
 8002272:	881b      	ldrh	r3, [r3, #0]
 8002274:	f023 0380 	bic.w	r3, r3, #128	; 0x80
 8002278:	b29a      	uxth	r2, r3
 800227a:	4b11      	ldr	r3, [pc, #68]	; (80022c0 <led_7seg_display+0x104>)
 800227c:	801a      	strh	r2, [r3, #0]
 800227e:	e000      	b.n	8002282 <led_7seg_display+0xc6>
 8002280:	bf00      	nop
 8002282:	4b10      	ldr	r3, [pc, #64]	; (80022c4 <led_7seg_display+0x108>)
 8002284:	881b      	ldrh	r3, [r3, #0]
 8002286:	3301      	adds	r3, #1
 8002288:	425a      	negs	r2, r3
 800228a:	f003 0303 	and.w	r3, r3, #3
 800228e:	f002 0203 	and.w	r2, r2, #3
 8002292:	bf58      	it	pl
 8002294:	4253      	negpl	r3, r2
 8002296:	b29a      	uxth	r2, r3
 8002298:	4b0a      	ldr	r3, [pc, #40]	; (80022c4 <led_7seg_display+0x108>)
 800229a:	801a      	strh	r2, [r3, #0]
 800229c:	2200      	movs	r2, #0
 800229e:	2140      	movs	r1, #64	; 0x40
 80022a0:	480a      	ldr	r0, [pc, #40]	; (80022cc <led_7seg_display+0x110>)
 80022a2:	f002 fbc7 	bl	8004a34 <HAL_GPIO_WritePin>
 80022a6:	2301      	movs	r3, #1
 80022a8:	2202      	movs	r2, #2
 80022aa:	4905      	ldr	r1, [pc, #20]	; (80022c0 <led_7seg_display+0x104>)
 80022ac:	4808      	ldr	r0, [pc, #32]	; (80022d0 <led_7seg_display+0x114>)
 80022ae:	f003 fa5a 	bl	8005766 <HAL_SPI_Transmit>
 80022b2:	2201      	movs	r2, #1
 80022b4:	2140      	movs	r1, #64	; 0x40
 80022b6:	4805      	ldr	r0, [pc, #20]	; (80022cc <led_7seg_display+0x110>)
 80022b8:	f002 fbbc 	bl	8004a34 <HAL_GPIO_WritePin>
 80022bc:	bf00      	nop
 80022be:	bd80      	pop	{r7, pc}
 80022c0:	20000204 	.word	0x20000204
 80022c4:	20000396 	.word	0x20000396
 80022c8:	20000200 	.word	0x20000200
 80022cc:	40021800 	.word	0x40021800
 80022d0:	200005dc 	.word	0x200005dc

080022d4 <main>:
/**
  * @brief  The application entry point.
  * @retval int
  */
int main(void)
{
 80022d4:	b580      	push	{r7, lr}
 80022d6:	af00      	add	r7, sp, #0
  /* USER CODE END 1 */

  /* MCU Configuration--------------------------------------------------------*/

  /* Reset of all peripherals, Initializes the Flash interface and the Systick. */
  HAL_Init();
 80022d8:	f001 f854 	bl	8003384 <HAL_Init>
  /* USER CODE BEGIN Init */

  /* USER CODE END Init */

  /* Configure the system clock */
  SystemClock_Config();
 80022dc:	f000 f84a 	bl	8002374 <SystemClock_Config>
  /* USER CODE BEGIN SysInit */

  /* USER CODE END SysInit */

  /* Initialize all configured peripherals */
  MX_GPIO_Init();
 80022e0:	f7ff f94e 	bl	8001580 <MX_GPIO_Init>
  MX_DMA_Init();
 80022e4:	f7ff f85c 	bl	80013a0 <MX_DMA_Init>
  MX_SPI1_Init();
 80022e8:	f000 fcae 	bl	8002c48 <MX_SPI1_Init>
  MX_FSMC_Init();
 80022ec:	f7ff f878 	bl	80013e0 <MX_FSMC_Init>
  MX_I2C1_Init();
 80022f0:	f7ff fa4c 	bl	800178c <MX_I2C1_Init>
  MX_TIM13_Init();
 80022f4:	f000 fe56 	bl	8002fa4 <MX_TIM13_Init>
  MX_TIM2_Init();
 80022f8:	f000 fdba 	bl	8002e70 <MX_TIM2_Init>
  MX_ADC1_Init();
 80022fc:	f7fe feec 	bl	80010d8 <MX_ADC1_Init>
  MX_TIM4_Init();
 8002300:	f000 fe02 	bl	8002f08 <MX_TIM4_Init>
  MX_USART1_UART_Init();
 8002304:	f000 ff30 	bl	8003168 <MX_USART1_UART_Init>
  MX_USART3_UART_Init();
 8002308:	f000 ff58 	bl	80031bc <MX_USART3_UART_Init>
  /* USER CODE BEGIN 2 */
	system_init();
 800230c:	f000 f89c 	bl	8002448 <system_init>
  /* USER CODE END 2 */


  /* Infinite loop */
  /* USER CODE BEGIN WHILE */
	InitSlave(&BKIT01);
 8002310:	4815      	ldr	r0, [pc, #84]	; (8002368 <main+0x94>)
 8002312:	f7fe fcf5 	bl	8000d00 <InitSlave>
	InitTimer();
 8002316:	f000 fbdb 	bl	8002ad0 <InitTimer>
	lcd_clear(BLACK);
 800231a:	2000      	movs	r0, #0
 800231c:	f7ff fb2a 	bl	8001974 <lcd_clear>
	set_timer(10, 0);
 8002320:	2100      	movs	r1, #0
 8002322:	200a      	movs	r0, #10
 8002324:	f000 fbf6 	bl	8002b14 <set_timer>
	set_timer(1000, 1);
 8002328:	2101      	movs	r1, #1
 800232a:	f44f 707a 	mov.w	r0, #1000	; 0x3e8
 800232e:	f000 fbf1 	bl	8002b14 <set_timer>


	while (1) {
		if(timer_flag[0]){
 8002332:	4b0e      	ldr	r3, [pc, #56]	; (800236c <main+0x98>)
 8002334:	781b      	ldrb	r3, [r3, #0]
 8002336:	2b00      	cmp	r3, #0
 8002338:	d008      	beq.n	800234c <main+0x78>
			slave_behavior(&BKIT01);
 800233a:	480b      	ldr	r0, [pc, #44]	; (8002368 <main+0x94>)
 800233c:	f7fe fe34 	bl	8000fa8 <slave_behavior>
			TestADC();
 8002340:	f000 f894 	bl	800246c <TestADC>
			set_timer(10, 0);
 8002344:	2100      	movs	r1, #0
 8002346:	200a      	movs	r0, #10
 8002348:	f000 fbe4 	bl	8002b14 <set_timer>
		}
		if(timer_flag[1]){
 800234c:	4b07      	ldr	r3, [pc, #28]	; (800236c <main+0x98>)
 800234e:	785b      	ldrb	r3, [r3, #1]
 8002350:	2b00      	cmp	r3, #0
 8002352:	d0ee      	beq.n	8002332 <main+0x5e>
			HAL_GPIO_TogglePin(DEBUG_LED_GPIO_Port, DEBUG_LED_Pin);
 8002354:	2110      	movs	r1, #16
 8002356:	4806      	ldr	r0, [pc, #24]	; (8002370 <main+0x9c>)
 8002358:	f002 fb85 	bl	8004a66 <HAL_GPIO_TogglePin>
			set_timer(1000, 1);
 800235c:	2101      	movs	r1, #1
 800235e:	f44f 707a 	mov.w	r0, #1000	; 0x3e8
 8002362:	f000 fbd7 	bl	8002b14 <set_timer>
		if(timer_flag[0]){
 8002366:	e7e4      	b.n	8002332 <main+0x5e>
 8002368:	20000230 	.word	0x20000230
 800236c:	200005b4 	.word	0x200005b4
 8002370:	40021000 	.word	0x40021000

08002374 <SystemClock_Config>:
/**
  * @brief System Clock Configuration
  * @retval None
  */
void SystemClock_Config(void)
{
 8002374:	b580      	push	{r7, lr}
 8002376:	b094      	sub	sp, #80	; 0x50
 8002378:	af00      	add	r7, sp, #0
  RCC_OscInitTypeDef RCC_OscInitStruct = {0};
 800237a:	f107 0320 	add.w	r3, r7, #32
 800237e:	2230      	movs	r2, #48	; 0x30
 8002380:	2100      	movs	r1, #0
 8002382:	4618      	mov	r0, r3
 8002384:	f005 fdec 	bl	8007f60 <memset>
  RCC_ClkInitTypeDef RCC_ClkInitStruct = {0};
 8002388:	f107 030c 	add.w	r3, r7, #12
 800238c:	2200      	movs	r2, #0
 800238e:	601a      	str	r2, [r3, #0]
 8002390:	605a      	str	r2, [r3, #4]
 8002392:	609a      	str	r2, [r3, #8]
 8002394:	60da      	str	r2, [r3, #12]
 8002396:	611a      	str	r2, [r3, #16]

  /** Configure the main internal regulator output voltage
  */
  __HAL_RCC_PWR_CLK_ENABLE();
 8002398:	2300      	movs	r3, #0
 800239a:	60bb      	str	r3, [r7, #8]
 800239c:	4b28      	ldr	r3, [pc, #160]	; (8002440 <SystemClock_Config+0xcc>)
 800239e:	6c1b      	ldr	r3, [r3, #64]	; 0x40
 80023a0:	4a27      	ldr	r2, [pc, #156]	; (8002440 <SystemClock_Config+0xcc>)
 80023a2:	f043 5380 	orr.w	r3, r3, #268435456	; 0x10000000
 80023a6:	6413      	str	r3, [r2, #64]	; 0x40
 80023a8:	4b25      	ldr	r3, [pc, #148]	; (8002440 <SystemClock_Config+0xcc>)
 80023aa:	6c1b      	ldr	r3, [r3, #64]	; 0x40
 80023ac:	f003 5380 	and.w	r3, r3, #268435456	; 0x10000000
 80023b0:	60bb      	str	r3, [r7, #8]
 80023b2:	68bb      	ldr	r3, [r7, #8]
  __HAL_PWR_VOLTAGESCALING_CONFIG(PWR_REGULATOR_VOLTAGE_SCALE1);
 80023b4:	2300      	movs	r3, #0
 80023b6:	607b      	str	r3, [r7, #4]
 80023b8:	4b22      	ldr	r3, [pc, #136]	; (8002444 <SystemClock_Config+0xd0>)
 80023ba:	681b      	ldr	r3, [r3, #0]
 80023bc:	4a21      	ldr	r2, [pc, #132]	; (8002444 <SystemClock_Config+0xd0>)
 80023be:	f443 4380 	orr.w	r3, r3, #16384	; 0x4000
 80023c2:	6013      	str	r3, [r2, #0]
 80023c4:	4b1f      	ldr	r3, [pc, #124]	; (8002444 <SystemClock_Config+0xd0>)
 80023c6:	681b      	ldr	r3, [r3, #0]
 80023c8:	f403 4380 	and.w	r3, r3, #16384	; 0x4000
 80023cc:	607b      	str	r3, [r7, #4]
 80023ce:	687b      	ldr	r3, [r7, #4]

  /** Initializes the RCC Oscillators according to the specified parameters
  * in the RCC_OscInitTypeDef structure.
  */
  RCC_OscInitStruct.OscillatorType = RCC_OSCILLATORTYPE_HSI;
 80023d0:	2302      	movs	r3, #2
 80023d2:	623b      	str	r3, [r7, #32]
  RCC_OscInitStruct.HSIState = RCC_HSI_ON;
 80023d4:	2301      	movs	r3, #1
 80023d6:	62fb      	str	r3, [r7, #44]	; 0x2c
  RCC_OscInitStruct.HSICalibrationValue = RCC_HSICALIBRATION_DEFAULT;
 80023d8:	2310      	movs	r3, #16
 80023da:	633b      	str	r3, [r7, #48]	; 0x30
  RCC_OscInitStruct.PLL.PLLState = RCC_PLL_ON;
 80023dc:	2302      	movs	r3, #2
 80023de:	63bb      	str	r3, [r7, #56]	; 0x38
  RCC_OscInitStruct.PLL.PLLSource = RCC_PLLSOURCE_HSI;
 80023e0:	2300      	movs	r3, #0
 80023e2:	63fb      	str	r3, [r7, #60]	; 0x3c
  RCC_OscInitStruct.PLL.PLLM = 8;
 80023e4:	2308      	movs	r3, #8
 80023e6:	643b      	str	r3, [r7, #64]	; 0x40
  RCC_OscInitStruct.PLL.PLLN = 168;
 80023e8:	23a8      	movs	r3, #168	; 0xa8
 80023ea:	647b      	str	r3, [r7, #68]	; 0x44
  RCC_OscInitStruct.PLL.PLLP = RCC_PLLP_DIV2;
 80023ec:	2302      	movs	r3, #2
 80023ee:	64bb      	str	r3, [r7, #72]	; 0x48
  RCC_OscInitStruct.PLL.PLLQ = 4;
 80023f0:	2304      	movs	r3, #4
 80023f2:	64fb      	str	r3, [r7, #76]	; 0x4c
  if (HAL_RCC_OscConfig(&RCC_OscInitStruct) != HAL_OK)
 80023f4:	f107 0320 	add.w	r3, r7, #32
 80023f8:	4618      	mov	r0, r3
 80023fa:	f002 fc93 	bl	8004d24 <HAL_RCC_OscConfig>
 80023fe:	4603      	mov	r3, r0
 8002400:	2b00      	cmp	r3, #0
 8002402:	d001      	beq.n	8002408 <SystemClock_Config+0x94>
  {
    Error_Handler();
 8002404:	f000 f8f2 	bl	80025ec <Error_Handler>
  }

  /** Initializes the CPU, AHB and APB buses clocks
  */
  RCC_ClkInitStruct.ClockType = RCC_CLOCKTYPE_HCLK|RCC_CLOCKTYPE_SYSCLK
 8002408:	230f      	movs	r3, #15
 800240a:	60fb      	str	r3, [r7, #12]
                              |RCC_CLOCKTYPE_PCLK1|RCC_CLOCKTYPE_PCLK2;
  RCC_ClkInitStruct.SYSCLKSource = RCC_SYSCLKSOURCE_PLLCLK;
 800240c:	2302      	movs	r3, #2
 800240e:	613b      	str	r3, [r7, #16]
  RCC_ClkInitStruct.AHBCLKDivider = RCC_SYSCLK_DIV1;
 8002410:	2300      	movs	r3, #0
 8002412:	617b      	str	r3, [r7, #20]
  RCC_ClkInitStruct.APB1CLKDivider = RCC_HCLK_DIV4;
 8002414:	f44f 53a0 	mov.w	r3, #5120	; 0x1400
 8002418:	61bb      	str	r3, [r7, #24]
  RCC_ClkInitStruct.APB2CLKDivider = RCC_HCLK_DIV4;
 800241a:	f44f 53a0 	mov.w	r3, #5120	; 0x1400
 800241e:	61fb      	str	r3, [r7, #28]

  if (HAL_RCC_ClockConfig(&RCC_ClkInitStruct, FLASH_LATENCY_5) != HAL_OK)
 8002420:	f107 030c 	add.w	r3, r7, #12
 8002424:	2105      	movs	r1, #5
 8002426:	4618      	mov	r0, r3
 8002428:	f002 fef4 	bl	8005214 <HAL_RCC_ClockConfig>
 800242c:	4603      	mov	r3, r0
 800242e:	2b00      	cmp	r3, #0
 8002430:	d001      	beq.n	8002436 <SystemClock_Config+0xc2>
  {
    Error_Handler();
 8002432:	f000 f8db 	bl	80025ec <Error_Handler>
  }
}
 8002436:	bf00      	nop
 8002438:	3750      	adds	r7, #80	; 0x50
 800243a:	46bd      	mov	sp, r7
 800243c:	bd80      	pop	{r7, pc}
 800243e:	bf00      	nop
 8002440:	40023800 	.word	0x40023800
 8002444:	40007000 	.word	0x40007000

08002448 <system_init>:

/* USER CODE BEGIN 4 */
void system_init() {
 8002448:	b580      	push	{r7, lr}
 800244a:	af00      	add	r7, sp, #0
	button_init();
 800244c:	f7fe ff62 	bl	8001314 <button_init>
	lcd_init();
 8002450:	f7ff fcf0 	bl	8001e34 <lcd_init>

	sensor_init();
 8002454:	f000 fa2c 	bl	80028b0 <sensor_init>
	buzzer_init();
 8002458:	f7fe ff68 	bl	800132c <buzzer_init>

	timer2_init();
 800245c:	f000 fb12 	bl	8002a84 <timer2_init>
	timer2_set(500);
 8002460:	f44f 70fa 	mov.w	r0, #500	; 0x1f4
 8002464:	f000 fb18 	bl	8002a98 <timer2_set>
}
 8002468:	bf00      	nop
 800246a:	bd80      	pop	{r7, pc}

0800246c <TestADC>:
	else
		return 0;
}

uint8_t count_adc = 0;
void TestADC() {
 800246c:	b580      	push	{r7, lr}
 800246e:	b084      	sub	sp, #16
 8002470:	af04      	add	r7, sp, #16
	count_adc = (count_adc + 1) % 20;
 8002472:	4b57      	ldr	r3, [pc, #348]	; (80025d0 <TestADC+0x164>)
 8002474:	781b      	ldrb	r3, [r3, #0]
 8002476:	1c5a      	adds	r2, r3, #1
 8002478:	4b56      	ldr	r3, [pc, #344]	; (80025d4 <TestADC+0x168>)
 800247a:	fb83 1302 	smull	r1, r3, r3, r2
 800247e:	10d9      	asrs	r1, r3, #3
 8002480:	17d3      	asrs	r3, r2, #31
 8002482:	1ac9      	subs	r1, r1, r3
 8002484:	460b      	mov	r3, r1
 8002486:	009b      	lsls	r3, r3, #2
 8002488:	440b      	add	r3, r1
 800248a:	009b      	lsls	r3, r3, #2
 800248c:	1ad1      	subs	r1, r2, r3
 800248e:	b2ca      	uxtb	r2, r1
 8002490:	4b4f      	ldr	r3, [pc, #316]	; (80025d0 <TestADC+0x164>)
 8002492:	701a      	strb	r2, [r3, #0]
	if (count_adc == 0) {
 8002494:	4b4e      	ldr	r3, [pc, #312]	; (80025d0 <TestADC+0x164>)
 8002496:	781b      	ldrb	r3, [r3, #0]
 8002498:	2b00      	cmp	r3, #0
 800249a:	f040 8096 	bne.w	80025ca <TestADC+0x15e>
		sensor_read();
 800249e:	f000 fa15 	bl	80028cc <sensor_read>
		lcd_show_string(10, 100, "Voltage:", RED, BLACK, 16, 0);
 80024a2:	2300      	movs	r3, #0
 80024a4:	9302      	str	r3, [sp, #8]
 80024a6:	2310      	movs	r3, #16
 80024a8:	9301      	str	r3, [sp, #4]
 80024aa:	2300      	movs	r3, #0
 80024ac:	9300      	str	r3, [sp, #0]
 80024ae:	f44f 4378 	mov.w	r3, #63488	; 0xf800
 80024b2:	4a49      	ldr	r2, [pc, #292]	; (80025d8 <TestADC+0x16c>)
 80024b4:	2164      	movs	r1, #100	; 0x64
 80024b6:	200a      	movs	r0, #10
 80024b8:	f7ff fe1c 	bl	80020f4 <lcd_show_string>
		lcd_show_float_num(130, 100, sensor_get_voltage(), 4, RED, BLACK, 16);
 80024bc:	f000 fa2c 	bl	8002918 <sensor_get_voltage>
 80024c0:	eef0 7a40 	vmov.f32	s15, s0
 80024c4:	2310      	movs	r3, #16
 80024c6:	9301      	str	r3, [sp, #4]
 80024c8:	2300      	movs	r3, #0
 80024ca:	9300      	str	r3, [sp, #0]
 80024cc:	f44f 4378 	mov.w	r3, #63488	; 0xf800
 80024d0:	2204      	movs	r2, #4
 80024d2:	eeb0 0a67 	vmov.f32	s0, s15
 80024d6:	2164      	movs	r1, #100	; 0x64
 80024d8:	2082      	movs	r0, #130	; 0x82
 80024da:	f7ff fbff 	bl	8001cdc <lcd_show_float_num>
		lcd_show_string(10, 120, "Current:", RED, BLACK, 16, 0);
 80024de:	2300      	movs	r3, #0
 80024e0:	9302      	str	r3, [sp, #8]
 80024e2:	2310      	movs	r3, #16
 80024e4:	9301      	str	r3, [sp, #4]
 80024e6:	2300      	movs	r3, #0
 80024e8:	9300      	str	r3, [sp, #0]
 80024ea:	f44f 4378 	mov.w	r3, #63488	; 0xf800
 80024ee:	4a3b      	ldr	r2, [pc, #236]	; (80025dc <TestADC+0x170>)
 80024f0:	2178      	movs	r1, #120	; 0x78
 80024f2:	200a      	movs	r0, #10
 80024f4:	f7ff fdfe 	bl	80020f4 <lcd_show_string>
		lcd_show_float_num(130, 120, sensor_get_current(), 4, RED, BLACK, 16);
 80024f8:	f000 fa4a 	bl	8002990 <sensor_get_current>
 80024fc:	eef0 7a40 	vmov.f32	s15, s0
 8002500:	2310      	movs	r3, #16
 8002502:	9301      	str	r3, [sp, #4]
 8002504:	2300      	movs	r3, #0
 8002506:	9300      	str	r3, [sp, #0]
 8002508:	f44f 4378 	mov.w	r3, #63488	; 0xf800
 800250c:	2204      	movs	r2, #4
 800250e:	eeb0 0a67 	vmov.f32	s0, s15
 8002512:	2178      	movs	r1, #120	; 0x78
 8002514:	2082      	movs	r0, #130	; 0x82
 8002516:	f7ff fbe1 	bl	8001cdc <lcd_show_float_num>
		lcd_show_string(10, 140, "Light:", RED, BLACK, 16, 0);
 800251a:	2300      	movs	r3, #0
 800251c:	9302      	str	r3, [sp, #8]
 800251e:	2310      	movs	r3, #16
 8002520:	9301      	str	r3, [sp, #4]
 8002522:	2300      	movs	r3, #0
 8002524:	9300      	str	r3, [sp, #0]
 8002526:	f44f 4378 	mov.w	r3, #63488	; 0xf800
 800252a:	4a2d      	ldr	r2, [pc, #180]	; (80025e0 <TestADC+0x174>)
 800252c:	218c      	movs	r1, #140	; 0x8c
 800252e:	200a      	movs	r0, #10
 8002530:	f7ff fde0 	bl	80020f4 <lcd_show_string>
		lcd_show_int_num(130, 140, sensor_get_light(), 4, RED, BLACK, 16);
 8002534:	f000 f9d8 	bl	80028e8 <sensor_get_light>
 8002538:	4603      	mov	r3, r0
 800253a:	461a      	mov	r2, r3
 800253c:	2310      	movs	r3, #16
 800253e:	9302      	str	r3, [sp, #8]
 8002540:	2300      	movs	r3, #0
 8002542:	9301      	str	r3, [sp, #4]
 8002544:	f44f 4378 	mov.w	r3, #63488	; 0xf800
 8002548:	9300      	str	r3, [sp, #0]
 800254a:	2304      	movs	r3, #4
 800254c:	218c      	movs	r1, #140	; 0x8c
 800254e:	2082      	movs	r0, #130	; 0x82
 8002550:	f7ff fb46 	bl	8001be0 <lcd_show_int_num>
		lcd_show_string(10, 160, "Potentiometer:", RED, BLACK, 16, 0);
 8002554:	2300      	movs	r3, #0
 8002556:	9302      	str	r3, [sp, #8]
 8002558:	2310      	movs	r3, #16
 800255a:	9301      	str	r3, [sp, #4]
 800255c:	2300      	movs	r3, #0
 800255e:	9300      	str	r3, [sp, #0]
 8002560:	f44f 4378 	mov.w	r3, #63488	; 0xf800
 8002564:	4a1f      	ldr	r2, [pc, #124]	; (80025e4 <TestADC+0x178>)
 8002566:	21a0      	movs	r1, #160	; 0xa0
 8002568:	200a      	movs	r0, #10
 800256a:	f7ff fdc3 	bl	80020f4 <lcd_show_string>
		lcd_show_int_num(130, 160, sensor_get_potentiometer(), 4, RED, BLACK,
 800256e:	f000 f9c7 	bl	8002900 <sensor_get_potentiometer>
 8002572:	4603      	mov	r3, r0
 8002574:	461a      	mov	r2, r3
 8002576:	2310      	movs	r3, #16
 8002578:	9302      	str	r3, [sp, #8]
 800257a:	2300      	movs	r3, #0
 800257c:	9301      	str	r3, [sp, #4]
 800257e:	f44f 4378 	mov.w	r3, #63488	; 0xf800
 8002582:	9300      	str	r3, [sp, #0]
 8002584:	2304      	movs	r3, #4
 8002586:	21a0      	movs	r1, #160	; 0xa0
 8002588:	2082      	movs	r0, #130	; 0x82
 800258a:	f7ff fb29 	bl	8001be0 <lcd_show_int_num>
				16);
		lcd_show_string(10, 180, "Temperature:", RED, BLACK, 16, 0);
 800258e:	2300      	movs	r3, #0
 8002590:	9302      	str	r3, [sp, #8]
 8002592:	2310      	movs	r3, #16
 8002594:	9301      	str	r3, [sp, #4]
 8002596:	2300      	movs	r3, #0
 8002598:	9300      	str	r3, [sp, #0]
 800259a:	f44f 4378 	mov.w	r3, #63488	; 0xf800
 800259e:	4a12      	ldr	r2, [pc, #72]	; (80025e8 <TestADC+0x17c>)
 80025a0:	21b4      	movs	r1, #180	; 0xb4
 80025a2:	200a      	movs	r0, #10
 80025a4:	f7ff fda6 	bl	80020f4 <lcd_show_string>
		lcd_show_float_num(130, 180, sensor_get_temperature(), 4, RED, BLACK,
 80025a8:	f000 fa4e 	bl	8002a48 <sensor_get_temperature>
 80025ac:	eef0 7a40 	vmov.f32	s15, s0
 80025b0:	2310      	movs	r3, #16
 80025b2:	9301      	str	r3, [sp, #4]
 80025b4:	2300      	movs	r3, #0
 80025b6:	9300      	str	r3, [sp, #0]
 80025b8:	f44f 4378 	mov.w	r3, #63488	; 0xf800
 80025bc:	2204      	movs	r2, #4
 80025be:	eeb0 0a67 	vmov.f32	s0, s15
 80025c2:	21b4      	movs	r1, #180	; 0xb4
 80025c4:	2082      	movs	r0, #130	; 0x82
 80025c6:	f7ff fb89 	bl	8001cdc <lcd_show_float_num>
				16);
	}
}
 80025ca:	bf00      	nop
 80025cc:	46bd      	mov	sp, r7
 80025ce:	bd80      	pop	{r7, pc}
 80025d0:	20000398 	.word	0x20000398
 80025d4:	66666667 	.word	0x66666667
 80025d8:	08008010 	.word	0x08008010
 80025dc:	0800801c 	.word	0x0800801c
 80025e0:	08008028 	.word	0x08008028
 80025e4:	08008030 	.word	0x08008030
 80025e8:	08008040 	.word	0x08008040

080025ec <Error_Handler>:
/**
  * @brief  This function is executed in case of error occurrence.
  * @retval None
  */
void Error_Handler(void)
{
 80025ec:	b480      	push	{r7}
 80025ee:	af00      	add	r7, sp, #0
  \details Disables IRQ interrupts by setting special-purpose register PRIMASK.
           Can only be executed in Privileged modes.
 */
__STATIC_FORCEINLINE void __disable_irq(void)
{
  __ASM volatile ("cpsid i" : : : "memory");
 80025f0:	b672      	cpsid	i
}
 80025f2:	bf00      	nop
  /* USER CODE BEGIN Error_Handler_Debug */
	/* User can add his own implementation to report the HAL error return state */
	__disable_irq();
	while (1) {
 80025f4:	e7fe      	b.n	80025f4 <Error_Handler+0x8>
	...

080025f8 <Modbus_Send>:
 80025f8:	b580      	push	{r7, lr}
 80025fa:	b082      	sub	sp, #8
 80025fc:	af00      	add	r7, sp, #0
 80025fe:	6078      	str	r0, [r7, #4]
 8002600:	2201      	movs	r2, #1
 8002602:	f44f 4100 	mov.w	r1, #32768	; 0x8000
 8002606:	480f      	ldr	r0, [pc, #60]	; (8002644 <Modbus_Send+0x4c>)
 8002608:	f002 fa14 	bl	8004a34 <HAL_GPIO_WritePin>
 800260c:	687b      	ldr	r3, [r7, #4]
 800260e:	6818      	ldr	r0, [r3, #0]
 8002610:	687b      	ldr	r3, [r7, #4]
 8002612:	1d59      	adds	r1, r3, #5
 8002614:	687b      	ldr	r3, [r7, #4]
 8002616:	f8b3 2106 	ldrh.w	r2, [r3, #262]	; 0x106
 800261a:	f04f 33ff 	mov.w	r3, #4294967295
 800261e:	f004 fb8b 	bl	8006d38 <HAL_UART_Transmit>
 8002622:	4603      	mov	r3, r0
 8002624:	2b00      	cmp	r3, #0
 8002626:	d001      	beq.n	800262c <Modbus_Send+0x34>
 8002628:	2301      	movs	r3, #1
 800262a:	e006      	b.n	800263a <Modbus_Send+0x42>
 800262c:	2200      	movs	r2, #0
 800262e:	f44f 4100 	mov.w	r1, #32768	; 0x8000
 8002632:	4804      	ldr	r0, [pc, #16]	; (8002644 <Modbus_Send+0x4c>)
 8002634:	f002 f9fe 	bl	8004a34 <HAL_GPIO_WritePin>
 8002638:	2300      	movs	r3, #0
 800263a:	4618      	mov	r0, r3
 800263c:	3708      	adds	r7, #8
 800263e:	46bd      	mov	sp, r7
 8002640:	bd80      	pop	{r7, pc}
 8002642:	bf00      	nop
 8002644:	40020000 	.word	0x40020000

08002648 <Modbus_CheckData>:
 8002648:	b580      	push	{r7, lr}
 800264a:	b084      	sub	sp, #16
 800264c:	af00      	add	r7, sp, #0
 800264e:	6078      	str	r0, [r7, #4]
 8002650:	687b      	ldr	r3, [r7, #4]
 8002652:	f503 7284 	add.w	r2, r3, #264	; 0x108
 8002656:	687b      	ldr	r3, [r7, #4]
 8002658:	f8b3 3208 	ldrh.w	r3, [r3, #520]	; 0x208
 800265c:	3b02      	subs	r3, #2
 800265e:	b29b      	uxth	r3, r3
 8002660:	4619      	mov	r1, r3
 8002662:	4610      	mov	r0, r2
 8002664:	f7fe fe6c 	bl	8001340 <crc16>
 8002668:	4603      	mov	r3, r0
 800266a:	81fb      	strh	r3, [r7, #14]
 800266c:	687b      	ldr	r3, [r7, #4]
 800266e:	f8b3 3208 	ldrh.w	r3, [r3, #520]	; 0x208
 8002672:	3b01      	subs	r3, #1
 8002674:	687a      	ldr	r2, [r7, #4]
 8002676:	4413      	add	r3, r2
 8002678:	f893 3108 	ldrb.w	r3, [r3, #264]	; 0x108
 800267c:	81bb      	strh	r3, [r7, #12]
 800267e:	687b      	ldr	r3, [r7, #4]
 8002680:	f8b3 3208 	ldrh.w	r3, [r3, #520]	; 0x208
 8002684:	3b02      	subs	r3, #2
 8002686:	687a      	ldr	r2, [r7, #4]
 8002688:	4413      	add	r3, r2
 800268a:	f893 3108 	ldrb.w	r3, [r3, #264]	; 0x108
 800268e:	817b      	strh	r3, [r7, #10]
 8002690:	89bb      	ldrh	r3, [r7, #12]
 8002692:	021b      	lsls	r3, r3, #8
 8002694:	b21a      	sxth	r2, r3
 8002696:	f9b7 300a 	ldrsh.w	r3, [r7, #10]
 800269a:	4313      	orrs	r3, r2
 800269c:	b21b      	sxth	r3, r3
 800269e:	813b      	strh	r3, [r7, #8]
 80026a0:	893a      	ldrh	r2, [r7, #8]
 80026a2:	89fb      	ldrh	r3, [r7, #14]
 80026a4:	429a      	cmp	r2, r3
 80026a6:	bf0c      	ite	eq
 80026a8:	2301      	moveq	r3, #1
 80026aa:	2300      	movne	r3, #0
 80026ac:	b2db      	uxtb	r3, r3
 80026ae:	4618      	mov	r0, r3
 80026b0:	3710      	adds	r7, #16
 80026b2:	46bd      	mov	sp, r7
 80026b4:	bd80      	pop	{r7, pc}

080026b6 <Modbus_Transmit_Slave>:
 80026b6:	b580      	push	{r7, lr}
 80026b8:	b086      	sub	sp, #24
 80026ba:	af00      	add	r7, sp, #0
 80026bc:	60f8      	str	r0, [r7, #12]
 80026be:	607b      	str	r3, [r7, #4]
 80026c0:	460b      	mov	r3, r1
 80026c2:	72fb      	strb	r3, [r7, #11]
 80026c4:	4613      	mov	r3, r2
 80026c6:	72bb      	strb	r3, [r7, #10]
 80026c8:	68fb      	ldr	r3, [r7, #12]
 80026ca:	7afa      	ldrb	r2, [r7, #11]
 80026cc:	715a      	strb	r2, [r3, #5]
 80026ce:	68fb      	ldr	r3, [r7, #12]
 80026d0:	7aba      	ldrb	r2, [r7, #10]
 80026d2:	719a      	strb	r2, [r3, #6]
 80026d4:	2300      	movs	r3, #0
 80026d6:	827b      	strh	r3, [r7, #18]
 80026d8:	2300      	movs	r3, #0
 80026da:	617b      	str	r3, [r7, #20]
 80026dc:	e00c      	b.n	80026f8 <Modbus_Transmit_Slave+0x42>
 80026de:	697b      	ldr	r3, [r7, #20]
 80026e0:	687a      	ldr	r2, [r7, #4]
 80026e2:	441a      	add	r2, r3
 80026e4:	697b      	ldr	r3, [r7, #20]
 80026e6:	3302      	adds	r3, #2
 80026e8:	7811      	ldrb	r1, [r2, #0]
 80026ea:	68fa      	ldr	r2, [r7, #12]
 80026ec:	4413      	add	r3, r2
 80026ee:	460a      	mov	r2, r1
 80026f0:	715a      	strb	r2, [r3, #5]
 80026f2:	697b      	ldr	r3, [r7, #20]
 80026f4:	3301      	adds	r3, #1
 80026f6:	617b      	str	r3, [r7, #20]
 80026f8:	f897 3020 	ldrb.w	r3, [r7, #32]
 80026fc:	697a      	ldr	r2, [r7, #20]
 80026fe:	429a      	cmp	r2, r3
 8002700:	dbed      	blt.n	80026de <Modbus_Transmit_Slave+0x28>
 8002702:	68fb      	ldr	r3, [r7, #12]
 8002704:	1d5a      	adds	r2, r3, #5
 8002706:	697b      	ldr	r3, [r7, #20]
 8002708:	b29b      	uxth	r3, r3
 800270a:	3302      	adds	r3, #2
 800270c:	b29b      	uxth	r3, r3
 800270e:	4619      	mov	r1, r3
 8002710:	4610      	mov	r0, r2
 8002712:	f7fe fe15 	bl	8001340 <crc16>
 8002716:	4603      	mov	r3, r0
 8002718:	827b      	strh	r3, [r7, #18]
 800271a:	697b      	ldr	r3, [r7, #20]
 800271c:	3302      	adds	r3, #2
 800271e:	8a7a      	ldrh	r2, [r7, #18]
 8002720:	b2d1      	uxtb	r1, r2
 8002722:	68fa      	ldr	r2, [r7, #12]
 8002724:	4413      	add	r3, r2
 8002726:	460a      	mov	r2, r1
 8002728:	715a      	strb	r2, [r3, #5]
 800272a:	8a7b      	ldrh	r3, [r7, #18]
 800272c:	0a1b      	lsrs	r3, r3, #8
 800272e:	b29a      	uxth	r2, r3
 8002730:	697b      	ldr	r3, [r7, #20]
 8002732:	3303      	adds	r3, #3
 8002734:	b2d1      	uxtb	r1, r2
 8002736:	68fa      	ldr	r2, [r7, #12]
 8002738:	4413      	add	r3, r2
 800273a:	460a      	mov	r2, r1
 800273c:	715a      	strb	r2, [r3, #5]
 800273e:	f897 3020 	ldrb.w	r3, [r7, #32]
 8002742:	b29b      	uxth	r3, r3
 8002744:	3304      	adds	r3, #4
 8002746:	b29a      	uxth	r2, r3
 8002748:	68fb      	ldr	r3, [r7, #12]
 800274a:	f8a3 2106 	strh.w	r2, [r3, #262]	; 0x106
 800274e:	68f8      	ldr	r0, [r7, #12]
 8002750:	f7ff ff52 	bl	80025f8 <Modbus_Send>
 8002754:	4603      	mov	r3, r0
 8002756:	2b00      	cmp	r3, #0
 8002758:	d101      	bne.n	800275e <Modbus_Transmit_Slave+0xa8>
 800275a:	2301      	movs	r3, #1
 800275c:	e003      	b.n	8002766 <Modbus_Transmit_Slave+0xb0>
 800275e:	2005      	movs	r0, #5
 8002760:	f000 fe82 	bl	8003468 <HAL_Delay>
 8002764:	2302      	movs	r3, #2
 8002766:	4618      	mov	r0, r3
 8002768:	3718      	adds	r7, #24
 800276a:	46bd      	mov	sp, r7
 800276c:	bd80      	pop	{r7, pc}
	...

08002770 <Modbus_Receive>:
 8002770:	b580      	push	{r7, lr}
 8002772:	b082      	sub	sp, #8
 8002774:	af00      	add	r7, sp, #0
 8002776:	6078      	str	r0, [r7, #4]
 8002778:	2200      	movs	r2, #0
 800277a:	f44f 4100 	mov.w	r1, #32768	; 0x8000
 800277e:	4809      	ldr	r0, [pc, #36]	; (80027a4 <Modbus_Receive+0x34>)
 8002780:	f002 f958 	bl	8004a34 <HAL_GPIO_WritePin>
 8002784:	687b      	ldr	r3, [r7, #4]
 8002786:	6818      	ldr	r0, [r3, #0]
 8002788:	687b      	ldr	r3, [r7, #4]
 800278a:	f503 7384 	add.w	r3, r3, #264	; 0x108
 800278e:	f44f 7280 	mov.w	r2, #256	; 0x100
 8002792:	4619      	mov	r1, r3
 8002794:	f004 fb5b 	bl	8006e4e <HAL_UARTEx_ReceiveToIdle_IT>
 8002798:	2302      	movs	r3, #2
 800279a:	4618      	mov	r0, r3
 800279c:	3708      	adds	r7, #8
 800279e:	46bd      	mov	sp, r7
 80027a0:	bd80      	pop	{r7, pc}
 80027a2:	bf00      	nop
 80027a4:	40020000 	.word	0x40020000

080027a8 <Modbus_CallBack>:
 80027a8:	b580      	push	{r7, lr}
 80027aa:	b084      	sub	sp, #16
 80027ac:	af00      	add	r7, sp, #0
 80027ae:	60f8      	str	r0, [r7, #12]
 80027b0:	60b9      	str	r1, [r7, #8]
 80027b2:	4613      	mov	r3, r2
 80027b4:	80fb      	strh	r3, [r7, #6]
 80027b6:	68bb      	ldr	r3, [r7, #8]
 80027b8:	681a      	ldr	r2, [r3, #0]
 80027ba:	68fb      	ldr	r3, [r7, #12]
 80027bc:	681b      	ldr	r3, [r3, #0]
 80027be:	681b      	ldr	r3, [r3, #0]
 80027c0:	429a      	cmp	r2, r3
 80027c2:	d123      	bne.n	800280c <Modbus_CallBack+0x64>
 80027c4:	68f8      	ldr	r0, [r7, #12]
 80027c6:	f7ff ff3f 	bl	8002648 <Modbus_CheckData>
 80027ca:	4603      	mov	r3, r0
 80027cc:	461a      	mov	r2, r3
 80027ce:	4b11      	ldr	r3, [pc, #68]	; (8002814 <Modbus_CallBack+0x6c>)
 80027d0:	701a      	strb	r2, [r3, #0]
 80027d2:	68fb      	ldr	r3, [r7, #12]
 80027d4:	88fa      	ldrh	r2, [r7, #6]
 80027d6:	f8a3 2208 	strh.w	r2, [r3, #520]	; 0x208
 80027da:	68fb      	ldr	r3, [r7, #12]
 80027dc:	2201      	movs	r2, #1
 80027de:	f883 220a 	strb.w	r2, [r3, #522]	; 0x20a
 80027e2:	68fb      	ldr	r3, [r7, #12]
 80027e4:	f503 7184 	add.w	r1, r3, #264	; 0x108
 80027e8:	68fb      	ldr	r3, [r7, #12]
 80027ea:	f8b3 2208 	ldrh.w	r2, [r3, #520]	; 0x208
 80027ee:	f04f 33ff 	mov.w	r3, #4294967295
 80027f2:	4809      	ldr	r0, [pc, #36]	; (8002818 <Modbus_CallBack+0x70>)
 80027f4:	f004 faa0 	bl	8006d38 <HAL_UART_Transmit>
 80027f8:	68fb      	ldr	r3, [r7, #12]
 80027fa:	6818      	ldr	r0, [r3, #0]
 80027fc:	68fb      	ldr	r3, [r7, #12]
 80027fe:	f503 7384 	add.w	r3, r3, #264	; 0x108
 8002802:	f44f 7280 	mov.w	r2, #256	; 0x100
 8002806:	4619      	mov	r1, r3
 8002808:	f004 fb21 	bl	8006e4e <HAL_UARTEx_ReceiveToIdle_IT>
 800280c:	bf00      	nop
 800280e:	3710      	adds	r7, #16
 8002810:	46bd      	mov	sp, r7
 8002812:	bd80      	pop	{r7, pc}
 8002814:	20000399 	.word	0x20000399
 8002818:	2000070c 	.word	0x2000070c

0800281c <Modbus_Init>:
 800281c:	b580      	push	{r7, lr}
 800281e:	b082      	sub	sp, #8
 8002820:	af00      	add	r7, sp, #0
 8002822:	6078      	str	r0, [r7, #4]
 8002824:	6039      	str	r1, [r7, #0]
 8002826:	687b      	ldr	r3, [r7, #4]
 8002828:	683a      	ldr	r2, [r7, #0]
 800282a:	601a      	str	r2, [r3, #0]
 800282c:	687b      	ldr	r3, [r7, #4]
 800282e:	2200      	movs	r2, #0
 8002830:	711a      	strb	r2, [r3, #4]
 8002832:	687b      	ldr	r3, [r7, #4]
 8002834:	f503 7384 	add.w	r3, r3, #264	; 0x108
 8002838:	f44f 7280 	mov.w	r2, #256	; 0x100
 800283c:	2100      	movs	r1, #0
 800283e:	4618      	mov	r0, r3
 8002840:	f005 fb8e 	bl	8007f60 <memset>
 8002844:	687b      	ldr	r3, [r7, #4]
 8002846:	f44f 7280 	mov.w	r2, #256	; 0x100
 800284a:	f8a3 2208 	strh.w	r2, [r3, #520]	; 0x208
 800284e:	687b      	ldr	r3, [r7, #4]
 8002850:	3305      	adds	r3, #5
 8002852:	f44f 7280 	mov.w	r2, #256	; 0x100
 8002856:	2100      	movs	r1, #0
 8002858:	4618      	mov	r0, r3
 800285a:	f005 fb81 	bl	8007f60 <memset>
 800285e:	687b      	ldr	r3, [r7, #4]
 8002860:	2200      	movs	r2, #0
 8002862:	f8a3 2106 	strh.w	r2, [r3, #262]	; 0x106
 8002866:	687b      	ldr	r3, [r7, #4]
 8002868:	2200      	movs	r2, #0
 800286a:	f883 220a 	strb.w	r2, [r3, #522]	; 0x20a
 800286e:	6878      	ldr	r0, [r7, #4]
 8002870:	f7ff ff7e 	bl	8002770 <Modbus_Receive>
 8002874:	2200      	movs	r2, #0
 8002876:	f44f 4100 	mov.w	r1, #32768	; 0x8000
 800287a:	4803      	ldr	r0, [pc, #12]	; (8002888 <Modbus_Init+0x6c>)
 800287c:	f002 f8da 	bl	8004a34 <HAL_GPIO_WritePin>
 8002880:	bf00      	nop
 8002882:	3708      	adds	r7, #8
 8002884:	46bd      	mov	sp, r7
 8002886:	bd80      	pop	{r7, pc}
 8002888:	40020000 	.word	0x40020000

0800288c <HAL_UARTEx_RxEventCallback>:
 800288c:	b580      	push	{r7, lr}
 800288e:	b082      	sub	sp, #8
 8002890:	af00      	add	r7, sp, #0
 8002892:	6078      	str	r0, [r7, #4]
 8002894:	460b      	mov	r3, r1
 8002896:	807b      	strh	r3, [r7, #2]
 8002898:	887b      	ldrh	r3, [r7, #2]
 800289a:	461a      	mov	r2, r3
 800289c:	6879      	ldr	r1, [r7, #4]
 800289e:	4803      	ldr	r0, [pc, #12]	; (80028ac <HAL_UARTEx_RxEventCallback+0x20>)
 80028a0:	f7ff ff82 	bl	80027a8 <Modbus_CallBack>
 80028a4:	bf00      	nop
 80028a6:	3708      	adds	r7, #8
 80028a8:	46bd      	mov	sp, r7
 80028aa:	bd80      	pop	{r7, pc}
 80028ac:	2000039c 	.word	0x2000039c

080028b0 <sensor_init>:
 80028b0:	b580      	push	{r7, lr}
 80028b2:	af00      	add	r7, sp, #0
 80028b4:	2205      	movs	r2, #5
 80028b6:	4903      	ldr	r1, [pc, #12]	; (80028c4 <sensor_init+0x14>)
 80028b8:	4803      	ldr	r0, [pc, #12]	; (80028c8 <sensor_init+0x18>)
 80028ba:	f000 fe3d 	bl	8003538 <HAL_ADC_Start_DMA>
 80028be:	bf00      	nop
 80028c0:	bd80      	pop	{r7, pc}
 80028c2:	bf00      	nop
 80028c4:	200005a8 	.word	0x200005a8
 80028c8:	20000240 	.word	0x20000240

080028cc <sensor_read>:
 80028cc:	b580      	push	{r7, lr}
 80028ce:	af00      	add	r7, sp, #0
 80028d0:	2205      	movs	r2, #5
 80028d2:	4903      	ldr	r1, [pc, #12]	; (80028e0 <sensor_read+0x14>)
 80028d4:	4803      	ldr	r0, [pc, #12]	; (80028e4 <sensor_read+0x18>)
 80028d6:	f000 fe2f 	bl	8003538 <HAL_ADC_Start_DMA>
 80028da:	bf00      	nop
 80028dc:	bd80      	pop	{r7, pc}
 80028de:	bf00      	nop
 80028e0:	200005a8 	.word	0x200005a8
 80028e4:	20000240 	.word	0x20000240

080028e8 <sensor_get_light>:
 80028e8:	b480      	push	{r7}
 80028ea:	af00      	add	r7, sp, #0
 80028ec:	4b03      	ldr	r3, [pc, #12]	; (80028fc <sensor_get_light+0x14>)
 80028ee:	889b      	ldrh	r3, [r3, #4]
 80028f0:	4618      	mov	r0, r3
 80028f2:	46bd      	mov	sp, r7
 80028f4:	f85d 7b04 	ldr.w	r7, [sp], #4
 80028f8:	4770      	bx	lr
 80028fa:	bf00      	nop
 80028fc:	200005a8 	.word	0x200005a8

08002900 <sensor_get_potentiometer>:
 8002900:	b480      	push	{r7}
 8002902:	af00      	add	r7, sp, #0
 8002904:	4b03      	ldr	r3, [pc, #12]	; (8002914 <sensor_get_potentiometer+0x14>)
 8002906:	88db      	ldrh	r3, [r3, #6]
 8002908:	4618      	mov	r0, r3
 800290a:	46bd      	mov	sp, r7
 800290c:	f85d 7b04 	ldr.w	r7, [sp], #4
 8002910:	4770      	bx	lr
 8002912:	bf00      	nop
 8002914:	200005a8 	.word	0x200005a8

08002918 <sensor_get_voltage>:
 8002918:	b580      	push	{r7, lr}
 800291a:	af00      	add	r7, sp, #0
 800291c:	4b1a      	ldr	r3, [pc, #104]	; (8002988 <sensor_get_voltage+0x70>)
 800291e:	881b      	ldrh	r3, [r3, #0]
 8002920:	ee07 3a90 	vmov	s15, r3
 8002924:	eef8 7a67 	vcvt.f32.u32	s15, s15
 8002928:	ee17 0a90 	vmov	r0, s15
 800292c:	f7fd fdb0 	bl	8000490 <__aeabi_f2d>
 8002930:	a311      	add	r3, pc, #68	; (adr r3, 8002978 <sensor_get_voltage+0x60>)
 8002932:	e9d3 2300 	ldrd	r2, r3, [r3]
 8002936:	f7fd fe03 	bl	8000540 <__aeabi_dmul>
 800293a:	4602      	mov	r2, r0
 800293c:	460b      	mov	r3, r1
 800293e:	4610      	mov	r0, r2
 8002940:	4619      	mov	r1, r3
 8002942:	f04f 0200 	mov.w	r2, #0
 8002946:	4b11      	ldr	r3, [pc, #68]	; (800298c <sensor_get_voltage+0x74>)
 8002948:	f7fd fdfa 	bl	8000540 <__aeabi_dmul>
 800294c:	4602      	mov	r2, r0
 800294e:	460b      	mov	r3, r1
 8002950:	4610      	mov	r0, r2
 8002952:	4619      	mov	r1, r3
 8002954:	a30a      	add	r3, pc, #40	; (adr r3, 8002980 <sensor_get_voltage+0x68>)
 8002956:	e9d3 2300 	ldrd	r2, r3, [r3]
 800295a:	f7fd ff1b 	bl	8000794 <__aeabi_ddiv>
 800295e:	4602      	mov	r2, r0
 8002960:	460b      	mov	r3, r1
 8002962:	4610      	mov	r0, r2
 8002964:	4619      	mov	r1, r3
 8002966:	f7fd fffd 	bl	8000964 <__aeabi_d2f>
 800296a:	4603      	mov	r3, r0
 800296c:	ee07 3a90 	vmov	s15, r3
 8002970:	eeb0 0a67 	vmov.f32	s0, s15
 8002974:	bd80      	pop	{r7, pc}
 8002976:	bf00      	nop
 8002978:	66666666 	.word	0x66666666
 800297c:	400a6666 	.word	0x400a6666
 8002980:	cccccccd 	.word	0xcccccccd
 8002984:	40b908ac 	.word	0x40b908ac
 8002988:	200005a8 	.word	0x200005a8
 800298c:	40280000 	.word	0x40280000

08002990 <sensor_get_current>:
 8002990:	b580      	push	{r7, lr}
 8002992:	af00      	add	r7, sp, #0
 8002994:	4b28      	ldr	r3, [pc, #160]	; (8002a38 <sensor_get_current+0xa8>)
 8002996:	885b      	ldrh	r3, [r3, #2]
 8002998:	ee07 3a90 	vmov	s15, r3
 800299c:	eef8 7a67 	vcvt.f32.u32	s15, s15
 80029a0:	ee17 0a90 	vmov	r0, s15
 80029a4:	f7fd fd74 	bl	8000490 <__aeabi_f2d>
 80029a8:	a31f      	add	r3, pc, #124	; (adr r3, 8002a28 <sensor_get_current+0x98>)
 80029aa:	e9d3 2300 	ldrd	r2, r3, [r3]
 80029ae:	f7fd fdc7 	bl	8000540 <__aeabi_dmul>
 80029b2:	4602      	mov	r2, r0
 80029b4:	460b      	mov	r3, r1
 80029b6:	4610      	mov	r0, r2
 80029b8:	4619      	mov	r1, r3
 80029ba:	f04f 0200 	mov.w	r2, #0
 80029be:	4b1f      	ldr	r3, [pc, #124]	; (8002a3c <sensor_get_current+0xac>)
 80029c0:	f7fd fdbe 	bl	8000540 <__aeabi_dmul>
 80029c4:	4602      	mov	r2, r0
 80029c6:	460b      	mov	r3, r1
 80029c8:	4610      	mov	r0, r2
 80029ca:	4619      	mov	r1, r3
 80029cc:	a318      	add	r3, pc, #96	; (adr r3, 8002a30 <sensor_get_current+0xa0>)
 80029ce:	e9d3 2300 	ldrd	r2, r3, [r3]
 80029d2:	f7fd fedf 	bl	8000794 <__aeabi_ddiv>
 80029d6:	4602      	mov	r2, r0
 80029d8:	460b      	mov	r3, r1
 80029da:	4610      	mov	r0, r2
 80029dc:	4619      	mov	r1, r3
 80029de:	f04f 0200 	mov.w	r2, #0
 80029e2:	4b17      	ldr	r3, [pc, #92]	; (8002a40 <sensor_get_current+0xb0>)
 80029e4:	f7fd fbf4 	bl	80001d0 <__aeabi_dsub>
 80029e8:	4602      	mov	r2, r0
 80029ea:	460b      	mov	r3, r1
 80029ec:	4610      	mov	r0, r2
 80029ee:	4619      	mov	r1, r3
 80029f0:	f04f 0200 	mov.w	r2, #0
 80029f4:	4b13      	ldr	r3, [pc, #76]	; (8002a44 <sensor_get_current+0xb4>)
 80029f6:	f7fd fda3 	bl	8000540 <__aeabi_dmul>
 80029fa:	4602      	mov	r2, r0
 80029fc:	460b      	mov	r3, r1
 80029fe:	4610      	mov	r0, r2
 8002a00:	4619      	mov	r1, r3
 8002a02:	f04f 0200 	mov.w	r2, #0
 8002a06:	4b0e      	ldr	r3, [pc, #56]	; (8002a40 <sensor_get_current+0xb0>)
 8002a08:	f7fd fec4 	bl	8000794 <__aeabi_ddiv>
 8002a0c:	4602      	mov	r2, r0
 8002a0e:	460b      	mov	r3, r1
 8002a10:	4610      	mov	r0, r2
 8002a12:	4619      	mov	r1, r3
 8002a14:	f7fd ffa6 	bl	8000964 <__aeabi_d2f>
 8002a18:	4603      	mov	r3, r0
 8002a1a:	ee07 3a90 	vmov	s15, r3
 8002a1e:	eeb0 0a67 	vmov.f32	s0, s15
 8002a22:	bd80      	pop	{r7, pc}
 8002a24:	f3af 8000 	nop.w
 8002a28:	66666666 	.word	0x66666666
 8002a2c:	400a6666 	.word	0x400a6666
 8002a30:	147ae148 	.word	0x147ae148
 8002a34:	40a4b2ee 	.word	0x40a4b2ee
 8002a38:	200005a8 	.word	0x200005a8
 8002a3c:	408f4000 	.word	0x408f4000
 8002a40:	40040000 	.word	0x40040000
 8002a44:	40140000 	.word	0x40140000

08002a48 <sensor_get_temperature>:
 8002a48:	b480      	push	{r7}
 8002a4a:	af00      	add	r7, sp, #0
 8002a4c:	4b0a      	ldr	r3, [pc, #40]	; (8002a78 <sensor_get_temperature+0x30>)
 8002a4e:	891b      	ldrh	r3, [r3, #8]
 8002a50:	ee07 3a90 	vmov	s15, r3
 8002a54:	eef8 7a67 	vcvt.f32.u32	s15, s15
 8002a58:	ed9f 7a08 	vldr	s14, [pc, #32]	; 8002a7c <sensor_get_temperature+0x34>
 8002a5c:	ee67 7a87 	vmul.f32	s15, s15, s14
 8002a60:	ed9f 7a07 	vldr	s14, [pc, #28]	; 8002a80 <sensor_get_temperature+0x38>
 8002a64:	eec7 6a87 	vdiv.f32	s13, s15, s14
 8002a68:	eef0 7a66 	vmov.f32	s15, s13
 8002a6c:	eeb0 0a67 	vmov.f32	s0, s15
 8002a70:	46bd      	mov	sp, r7
 8002a72:	f85d 7b04 	ldr.w	r7, [sp], #4
 8002a76:	4770      	bx	lr
 8002a78:	200005a8 	.word	0x200005a8
 8002a7c:	43a50000 	.word	0x43a50000
 8002a80:	457ff000 	.word	0x457ff000

08002a84 <timer2_init>:
/**
 * @brief  	Init timer interrupt
 * @param  	None
 * @retval 	None
 */
void timer2_init(void) {
 8002a84:	b580      	push	{r7, lr}
 8002a86:	af00      	add	r7, sp, #0
	HAL_TIM_Base_Start_IT(&htim2);
 8002a88:	4802      	ldr	r0, [pc, #8]	; (8002a94 <timer2_init+0x10>)
 8002a8a:	f003 f925 	bl	8005cd8 <HAL_TIM_Base_Start_IT>
}
 8002a8e:	bf00      	nop
 8002a90:	bd80      	pop	{r7, pc}
 8002a92:	bf00      	nop
 8002a94:	20000634 	.word	0x20000634

08002a98 <timer2_set>:
	timer1_mul = ms / TIMER_CYCLE_2;
	timer1_counter = timer2_mul;
	timer1_flag = 0;
}

void timer2_set(int ms) {
 8002a98:	b480      	push	{r7}
 8002a9a:	b083      	sub	sp, #12
 8002a9c:	af00      	add	r7, sp, #0
 8002a9e:	6078      	str	r0, [r7, #4]
	timer2_mul = ms / TIMER_CYCLE_2;
 8002aa0:	687b      	ldr	r3, [r7, #4]
 8002aa2:	b29a      	uxth	r2, r3
 8002aa4:	4b07      	ldr	r3, [pc, #28]	; (8002ac4 <timer2_set+0x2c>)
 8002aa6:	801a      	strh	r2, [r3, #0]
	timer2_counter = timer2_mul;
 8002aa8:	4b06      	ldr	r3, [pc, #24]	; (8002ac4 <timer2_set+0x2c>)
 8002aaa:	881a      	ldrh	r2, [r3, #0]
 8002aac:	4b06      	ldr	r3, [pc, #24]	; (8002ac8 <timer2_set+0x30>)
 8002aae:	801a      	strh	r2, [r3, #0]
	timer2_flag = 0;
 8002ab0:	4b06      	ldr	r3, [pc, #24]	; (8002acc <timer2_set+0x34>)
 8002ab2:	2200      	movs	r2, #0
 8002ab4:	701a      	strb	r2, [r3, #0]
}
 8002ab6:	bf00      	nop
 8002ab8:	370c      	adds	r7, #12
 8002aba:	46bd      	mov	sp, r7
 8002abc:	f85d 7b04 	ldr.w	r7, [sp], #4
 8002ac0:	4770      	bx	lr
 8002ac2:	bf00      	nop
 8002ac4:	200005d4 	.word	0x200005d4
 8002ac8:	200005d2 	.word	0x200005d2
 8002acc:	200005d0 	.word	0x200005d0

08002ad0 <InitTimer>:
 * @brief  	Timer interrupt routine
 * @param  	htim TIM Base handle
 * @note	This callback function is called by system
 * @retval 	None
 */
void InitTimer(void){
 8002ad0:	b480      	push	{r7}
 8002ad2:	b083      	sub	sp, #12
 8002ad4:	af00      	add	r7, sp, #0
	for(int i = 0; i < __MAX_TIM; i++){
 8002ad6:	2300      	movs	r3, #0
 8002ad8:	607b      	str	r3, [r7, #4]
 8002ada:	e00c      	b.n	8002af6 <InitTimer+0x26>
		timer_counter[i] = 0;
 8002adc:	4a0b      	ldr	r2, [pc, #44]	; (8002b0c <InitTimer+0x3c>)
 8002ade:	687b      	ldr	r3, [r7, #4]
 8002ae0:	2100      	movs	r1, #0
 8002ae2:	f842 1023 	str.w	r1, [r2, r3, lsl #2]
		timer_flag[i] = 0;
 8002ae6:	4a0a      	ldr	r2, [pc, #40]	; (8002b10 <InitTimer+0x40>)
 8002ae8:	687b      	ldr	r3, [r7, #4]
 8002aea:	4413      	add	r3, r2
 8002aec:	2200      	movs	r2, #0
 8002aee:	701a      	strb	r2, [r3, #0]
	for(int i = 0; i < __MAX_TIM; i++){
 8002af0:	687b      	ldr	r3, [r7, #4]
 8002af2:	3301      	adds	r3, #1
 8002af4:	607b      	str	r3, [r7, #4]
 8002af6:	687b      	ldr	r3, [r7, #4]
 8002af8:	2b04      	cmp	r3, #4
 8002afa:	ddef      	ble.n	8002adc <InitTimer+0xc>
	}
}
 8002afc:	bf00      	nop
 8002afe:	bf00      	nop
 8002b00:	370c      	adds	r7, #12
 8002b02:	46bd      	mov	sp, r7
 8002b04:	f85d 7b04 	ldr.w	r7, [sp], #4
 8002b08:	4770      	bx	lr
 8002b0a:	bf00      	nop
 8002b0c:	200005bc 	.word	0x200005bc
 8002b10:	200005b4 	.word	0x200005b4

08002b14 <set_timer>:

void set_timer(uint32_t ms, uint8_t idx){
 8002b14:	b480      	push	{r7}
 8002b16:	b083      	sub	sp, #12
 8002b18:	af00      	add	r7, sp, #0
 8002b1a:	6078      	str	r0, [r7, #4]
 8002b1c:	460b      	mov	r3, r1
 8002b1e:	70fb      	strb	r3, [r7, #3]
	timer_flag[idx] = 0;
 8002b20:	78fb      	ldrb	r3, [r7, #3]
 8002b22:	4a07      	ldr	r2, [pc, #28]	; (8002b40 <set_timer+0x2c>)
 8002b24:	2100      	movs	r1, #0
 8002b26:	54d1      	strb	r1, [r2, r3]
	timer_counter[idx] = ms;
 8002b28:	78fb      	ldrb	r3, [r7, #3]
 8002b2a:	4906      	ldr	r1, [pc, #24]	; (8002b44 <set_timer+0x30>)
 8002b2c:	687a      	ldr	r2, [r7, #4]
 8002b2e:	f841 2023 	str.w	r2, [r1, r3, lsl #2]
}
 8002b32:	bf00      	nop
 8002b34:	370c      	adds	r7, #12
 8002b36:	46bd      	mov	sp, r7
 8002b38:	f85d 7b04 	ldr.w	r7, [sp], #4
 8002b3c:	4770      	bx	lr
 8002b3e:	bf00      	nop
 8002b40:	200005b4 	.word	0x200005b4
 8002b44:	200005bc 	.word	0x200005bc

08002b48 <TimerRun>:

void TimerRun(void){
 8002b48:	b480      	push	{r7}
 8002b4a:	b083      	sub	sp, #12
 8002b4c:	af00      	add	r7, sp, #0
	for(int i = 0; i < __MAX_TIM; i++){
 8002b4e:	2300      	movs	r3, #0
 8002b50:	607b      	str	r3, [r7, #4]
 8002b52:	e01c      	b.n	8002b8e <TimerRun+0x46>
		if(timer_counter[i] > 0){
 8002b54:	4a13      	ldr	r2, [pc, #76]	; (8002ba4 <TimerRun+0x5c>)
 8002b56:	687b      	ldr	r3, [r7, #4]
 8002b58:	f852 3023 	ldr.w	r3, [r2, r3, lsl #2]
 8002b5c:	2b00      	cmp	r3, #0
 8002b5e:	d013      	beq.n	8002b88 <TimerRun+0x40>
			timer_counter[i]--;
 8002b60:	4a10      	ldr	r2, [pc, #64]	; (8002ba4 <TimerRun+0x5c>)
 8002b62:	687b      	ldr	r3, [r7, #4]
 8002b64:	f852 3023 	ldr.w	r3, [r2, r3, lsl #2]
 8002b68:	1e5a      	subs	r2, r3, #1
 8002b6a:	490e      	ldr	r1, [pc, #56]	; (8002ba4 <TimerRun+0x5c>)
 8002b6c:	687b      	ldr	r3, [r7, #4]
 8002b6e:	f841 2023 	str.w	r2, [r1, r3, lsl #2]
			if(timer_counter[i] == 0){
 8002b72:	4a0c      	ldr	r2, [pc, #48]	; (8002ba4 <TimerRun+0x5c>)
 8002b74:	687b      	ldr	r3, [r7, #4]
 8002b76:	f852 3023 	ldr.w	r3, [r2, r3, lsl #2]
 8002b7a:	2b00      	cmp	r3, #0
 8002b7c:	d104      	bne.n	8002b88 <TimerRun+0x40>
				timer_flag[i] = 1;
 8002b7e:	4a0a      	ldr	r2, [pc, #40]	; (8002ba8 <TimerRun+0x60>)
 8002b80:	687b      	ldr	r3, [r7, #4]
 8002b82:	4413      	add	r3, r2
 8002b84:	2201      	movs	r2, #1
 8002b86:	701a      	strb	r2, [r3, #0]
	for(int i = 0; i < __MAX_TIM; i++){
 8002b88:	687b      	ldr	r3, [r7, #4]
 8002b8a:	3301      	adds	r3, #1
 8002b8c:	607b      	str	r3, [r7, #4]
 8002b8e:	687b      	ldr	r3, [r7, #4]
 8002b90:	2b04      	cmp	r3, #4
 8002b92:	dddf      	ble.n	8002b54 <TimerRun+0xc>
			}
		}
	}
}
 8002b94:	bf00      	nop
 8002b96:	bf00      	nop
 8002b98:	370c      	adds	r7, #12
 8002b9a:	46bd      	mov	sp, r7
 8002b9c:	f85d 7b04 	ldr.w	r7, [sp], #4
 8002ba0:	4770      	bx	lr
 8002ba2:	bf00      	nop
 8002ba4:	200005bc 	.word	0x200005bc
 8002ba8:	200005b4 	.word	0x200005b4

08002bac <HAL_TIM_PeriodElapsedCallback>:



void HAL_TIM_PeriodElapsedCallback(TIM_HandleTypeDef *htim) {
 8002bac:	b580      	push	{r7, lr}
 8002bae:	b082      	sub	sp, #8
 8002bb0:	af00      	add	r7, sp, #0
 8002bb2:	6078      	str	r0, [r7, #4]
	if (htim->Instance == TIM2) {
 8002bb4:	687b      	ldr	r3, [r7, #4]
 8002bb6:	681b      	ldr	r3, [r3, #0]
 8002bb8:	f1b3 4f80 	cmp.w	r3, #1073741824	; 0x40000000
 8002bbc:	d116      	bne.n	8002bec <HAL_TIM_PeriodElapsedCallback+0x40>
		TimerRun();
 8002bbe:	f7ff ffc3 	bl	8002b48 <TimerRun>
		if (timer2_counter > 0) {
 8002bc2:	4b1a      	ldr	r3, [pc, #104]	; (8002c2c <HAL_TIM_PeriodElapsedCallback+0x80>)
 8002bc4:	881b      	ldrh	r3, [r3, #0]
 8002bc6:	2b00      	cmp	r3, #0
 8002bc8:	d010      	beq.n	8002bec <HAL_TIM_PeriodElapsedCallback+0x40>
			timer2_counter--;
 8002bca:	4b18      	ldr	r3, [pc, #96]	; (8002c2c <HAL_TIM_PeriodElapsedCallback+0x80>)
 8002bcc:	881b      	ldrh	r3, [r3, #0]
 8002bce:	3b01      	subs	r3, #1
 8002bd0:	b29a      	uxth	r2, r3
 8002bd2:	4b16      	ldr	r3, [pc, #88]	; (8002c2c <HAL_TIM_PeriodElapsedCallback+0x80>)
 8002bd4:	801a      	strh	r2, [r3, #0]
			if (timer2_counter == 0) {
 8002bd6:	4b15      	ldr	r3, [pc, #84]	; (8002c2c <HAL_TIM_PeriodElapsedCallback+0x80>)
 8002bd8:	881b      	ldrh	r3, [r3, #0]
 8002bda:	2b00      	cmp	r3, #0
 8002bdc:	d106      	bne.n	8002bec <HAL_TIM_PeriodElapsedCallback+0x40>
				timer2_flag = 1;
 8002bde:	4b14      	ldr	r3, [pc, #80]	; (8002c30 <HAL_TIM_PeriodElapsedCallback+0x84>)
 8002be0:	2201      	movs	r2, #1
 8002be2:	701a      	strb	r2, [r3, #0]
				timer2_counter = timer2_mul;
 8002be4:	4b13      	ldr	r3, [pc, #76]	; (8002c34 <HAL_TIM_PeriodElapsedCallback+0x88>)
 8002be6:	881a      	ldrh	r2, [r3, #0]
 8002be8:	4b10      	ldr	r3, [pc, #64]	; (8002c2c <HAL_TIM_PeriodElapsedCallback+0x80>)
 8002bea:	801a      	strh	r2, [r3, #0]
			}
		}
	}

	if (htim->Instance == TIM4) {
 8002bec:	687b      	ldr	r3, [r7, #4]
 8002bee:	681b      	ldr	r3, [r3, #0]
 8002bf0:	4a11      	ldr	r2, [pc, #68]	; (8002c38 <HAL_TIM_PeriodElapsedCallback+0x8c>)
 8002bf2:	4293      	cmp	r3, r2
 8002bf4:	d116      	bne.n	8002c24 <HAL_TIM_PeriodElapsedCallback+0x78>
		if (timer4_counter > 0) {
 8002bf6:	4b11      	ldr	r3, [pc, #68]	; (8002c3c <HAL_TIM_PeriodElapsedCallback+0x90>)
 8002bf8:	881b      	ldrh	r3, [r3, #0]
 8002bfa:	2b00      	cmp	r3, #0
 8002bfc:	d010      	beq.n	8002c20 <HAL_TIM_PeriodElapsedCallback+0x74>
			timer4_counter--;
 8002bfe:	4b0f      	ldr	r3, [pc, #60]	; (8002c3c <HAL_TIM_PeriodElapsedCallback+0x90>)
 8002c00:	881b      	ldrh	r3, [r3, #0]
 8002c02:	3b01      	subs	r3, #1
 8002c04:	b29a      	uxth	r2, r3
 8002c06:	4b0d      	ldr	r3, [pc, #52]	; (8002c3c <HAL_TIM_PeriodElapsedCallback+0x90>)
 8002c08:	801a      	strh	r2, [r3, #0]
			if (timer4_counter == 0) {
 8002c0a:	4b0c      	ldr	r3, [pc, #48]	; (8002c3c <HAL_TIM_PeriodElapsedCallback+0x90>)
 8002c0c:	881b      	ldrh	r3, [r3, #0]
 8002c0e:	2b00      	cmp	r3, #0
 8002c10:	d106      	bne.n	8002c20 <HAL_TIM_PeriodElapsedCallback+0x74>
				timer4_flag = 1;
 8002c12:	4b0b      	ldr	r3, [pc, #44]	; (8002c40 <HAL_TIM_PeriodElapsedCallback+0x94>)
 8002c14:	2201      	movs	r2, #1
 8002c16:	701a      	strb	r2, [r3, #0]
				timer4_counter = timer4_mul;
 8002c18:	4b0a      	ldr	r3, [pc, #40]	; (8002c44 <HAL_TIM_PeriodElapsedCallback+0x98>)
 8002c1a:	881a      	ldrh	r2, [r3, #0]
 8002c1c:	4b07      	ldr	r3, [pc, #28]	; (8002c3c <HAL_TIM_PeriodElapsedCallback+0x90>)
 8002c1e:	801a      	strh	r2, [r3, #0]
			}
		}

		led_7seg_display();
 8002c20:	f7ff facc 	bl	80021bc <led_7seg_display>
	}
}
 8002c24:	bf00      	nop
 8002c26:	3708      	adds	r7, #8
 8002c28:	46bd      	mov	sp, r7
 8002c2a:	bd80      	pop	{r7, pc}
 8002c2c:	200005d2 	.word	0x200005d2
 8002c30:	200005d0 	.word	0x200005d0
 8002c34:	200005d4 	.word	0x200005d4
 8002c38:	40000800 	.word	0x40000800
 8002c3c:	200005d8 	.word	0x200005d8
 8002c40:	200005d6 	.word	0x200005d6
 8002c44:	200005da 	.word	0x200005da

08002c48 <MX_SPI1_Init>:
 8002c48:	b580      	push	{r7, lr}
 8002c4a:	af00      	add	r7, sp, #0
 8002c4c:	4b17      	ldr	r3, [pc, #92]	; (8002cac <MX_SPI1_Init+0x64>)
 8002c4e:	4a18      	ldr	r2, [pc, #96]	; (8002cb0 <MX_SPI1_Init+0x68>)
 8002c50:	601a      	str	r2, [r3, #0]
 8002c52:	4b16      	ldr	r3, [pc, #88]	; (8002cac <MX_SPI1_Init+0x64>)
 8002c54:	f44f 7282 	mov.w	r2, #260	; 0x104
 8002c58:	605a      	str	r2, [r3, #4]
 8002c5a:	4b14      	ldr	r3, [pc, #80]	; (8002cac <MX_SPI1_Init+0x64>)
 8002c5c:	2200      	movs	r2, #0
 8002c5e:	609a      	str	r2, [r3, #8]
 8002c60:	4b12      	ldr	r3, [pc, #72]	; (8002cac <MX_SPI1_Init+0x64>)
 8002c62:	2200      	movs	r2, #0
 8002c64:	60da      	str	r2, [r3, #12]
 8002c66:	4b11      	ldr	r3, [pc, #68]	; (8002cac <MX_SPI1_Init+0x64>)
 8002c68:	2200      	movs	r2, #0
 8002c6a:	611a      	str	r2, [r3, #16]
 8002c6c:	4b0f      	ldr	r3, [pc, #60]	; (8002cac <MX_SPI1_Init+0x64>)
 8002c6e:	2200      	movs	r2, #0
 8002c70:	615a      	str	r2, [r3, #20]
 8002c72:	4b0e      	ldr	r3, [pc, #56]	; (8002cac <MX_SPI1_Init+0x64>)
 8002c74:	f44f 7200 	mov.w	r2, #512	; 0x200
 8002c78:	619a      	str	r2, [r3, #24]
 8002c7a:	4b0c      	ldr	r3, [pc, #48]	; (8002cac <MX_SPI1_Init+0x64>)
 8002c7c:	2200      	movs	r2, #0
 8002c7e:	61da      	str	r2, [r3, #28]
 8002c80:	4b0a      	ldr	r3, [pc, #40]	; (8002cac <MX_SPI1_Init+0x64>)
 8002c82:	2200      	movs	r2, #0
 8002c84:	621a      	str	r2, [r3, #32]
 8002c86:	4b09      	ldr	r3, [pc, #36]	; (8002cac <MX_SPI1_Init+0x64>)
 8002c88:	2200      	movs	r2, #0
 8002c8a:	625a      	str	r2, [r3, #36]	; 0x24
 8002c8c:	4b07      	ldr	r3, [pc, #28]	; (8002cac <MX_SPI1_Init+0x64>)
 8002c8e:	2200      	movs	r2, #0
 8002c90:	629a      	str	r2, [r3, #40]	; 0x28
 8002c92:	4b06      	ldr	r3, [pc, #24]	; (8002cac <MX_SPI1_Init+0x64>)
 8002c94:	220a      	movs	r2, #10
 8002c96:	62da      	str	r2, [r3, #44]	; 0x2c
 8002c98:	4804      	ldr	r0, [pc, #16]	; (8002cac <MX_SPI1_Init+0x64>)
 8002c9a:	f002 fcdb 	bl	8005654 <HAL_SPI_Init>
 8002c9e:	4603      	mov	r3, r0
 8002ca0:	2b00      	cmp	r3, #0
 8002ca2:	d001      	beq.n	8002ca8 <MX_SPI1_Init+0x60>
 8002ca4:	f7ff fca2 	bl	80025ec <Error_Handler>
 8002ca8:	bf00      	nop
 8002caa:	bd80      	pop	{r7, pc}
 8002cac:	200005dc 	.word	0x200005dc
 8002cb0:	40013000 	.word	0x40013000

08002cb4 <HAL_SPI_MspInit>:
 8002cb4:	b580      	push	{r7, lr}
 8002cb6:	b08a      	sub	sp, #40	; 0x28
 8002cb8:	af00      	add	r7, sp, #0
 8002cba:	6078      	str	r0, [r7, #4]
 8002cbc:	f107 0314 	add.w	r3, r7, #20
 8002cc0:	2200      	movs	r2, #0
 8002cc2:	601a      	str	r2, [r3, #0]
 8002cc4:	605a      	str	r2, [r3, #4]
 8002cc6:	609a      	str	r2, [r3, #8]
 8002cc8:	60da      	str	r2, [r3, #12]
 8002cca:	611a      	str	r2, [r3, #16]
 8002ccc:	687b      	ldr	r3, [r7, #4]
 8002cce:	681b      	ldr	r3, [r3, #0]
 8002cd0:	4a19      	ldr	r2, [pc, #100]	; (8002d38 <HAL_SPI_MspInit+0x84>)
 8002cd2:	4293      	cmp	r3, r2
 8002cd4:	d12b      	bne.n	8002d2e <HAL_SPI_MspInit+0x7a>
 8002cd6:	2300      	movs	r3, #0
 8002cd8:	613b      	str	r3, [r7, #16]
 8002cda:	4b18      	ldr	r3, [pc, #96]	; (8002d3c <HAL_SPI_MspInit+0x88>)
 8002cdc:	6c5b      	ldr	r3, [r3, #68]	; 0x44
 8002cde:	4a17      	ldr	r2, [pc, #92]	; (8002d3c <HAL_SPI_MspInit+0x88>)
 8002ce0:	f443 5380 	orr.w	r3, r3, #4096	; 0x1000
 8002ce4:	6453      	str	r3, [r2, #68]	; 0x44
 8002ce6:	4b15      	ldr	r3, [pc, #84]	; (8002d3c <HAL_SPI_MspInit+0x88>)
 8002ce8:	6c5b      	ldr	r3, [r3, #68]	; 0x44
 8002cea:	f403 5380 	and.w	r3, r3, #4096	; 0x1000
 8002cee:	613b      	str	r3, [r7, #16]
 8002cf0:	693b      	ldr	r3, [r7, #16]
 8002cf2:	2300      	movs	r3, #0
 8002cf4:	60fb      	str	r3, [r7, #12]
 8002cf6:	4b11      	ldr	r3, [pc, #68]	; (8002d3c <HAL_SPI_MspInit+0x88>)
 8002cf8:	6b1b      	ldr	r3, [r3, #48]	; 0x30
 8002cfa:	4a10      	ldr	r2, [pc, #64]	; (8002d3c <HAL_SPI_MspInit+0x88>)
 8002cfc:	f043 0302 	orr.w	r3, r3, #2
 8002d00:	6313      	str	r3, [r2, #48]	; 0x30
 8002d02:	4b0e      	ldr	r3, [pc, #56]	; (8002d3c <HAL_SPI_MspInit+0x88>)
 8002d04:	6b1b      	ldr	r3, [r3, #48]	; 0x30
 8002d06:	f003 0302 	and.w	r3, r3, #2
 8002d0a:	60fb      	str	r3, [r7, #12]
 8002d0c:	68fb      	ldr	r3, [r7, #12]
 8002d0e:	2338      	movs	r3, #56	; 0x38
 8002d10:	617b      	str	r3, [r7, #20]
 8002d12:	2302      	movs	r3, #2
 8002d14:	61bb      	str	r3, [r7, #24]
 8002d16:	2300      	movs	r3, #0
 8002d18:	61fb      	str	r3, [r7, #28]
 8002d1a:	2303      	movs	r3, #3
 8002d1c:	623b      	str	r3, [r7, #32]
 8002d1e:	2305      	movs	r3, #5
 8002d20:	627b      	str	r3, [r7, #36]	; 0x24
 8002d22:	f107 0314 	add.w	r3, r7, #20
 8002d26:	4619      	mov	r1, r3
 8002d28:	4805      	ldr	r0, [pc, #20]	; (8002d40 <HAL_SPI_MspInit+0x8c>)
 8002d2a:	f001 fce7 	bl	80046fc <HAL_GPIO_Init>
 8002d2e:	bf00      	nop
 8002d30:	3728      	adds	r7, #40	; 0x28
 8002d32:	46bd      	mov	sp, r7
 8002d34:	bd80      	pop	{r7, pc}
 8002d36:	bf00      	nop
 8002d38:	40013000 	.word	0x40013000
 8002d3c:	40023800 	.word	0x40023800
 8002d40:	40020400 	.word	0x40020400

08002d44 <HAL_MspInit>:
 8002d44:	b480      	push	{r7}
 8002d46:	b083      	sub	sp, #12
 8002d48:	af00      	add	r7, sp, #0
 8002d4a:	2300      	movs	r3, #0
 8002d4c:	607b      	str	r3, [r7, #4]
 8002d4e:	4b10      	ldr	r3, [pc, #64]	; (8002d90 <HAL_MspInit+0x4c>)
 8002d50:	6c5b      	ldr	r3, [r3, #68]	; 0x44
 8002d52:	4a0f      	ldr	r2, [pc, #60]	; (8002d90 <HAL_MspInit+0x4c>)
 8002d54:	f443 4380 	orr.w	r3, r3, #16384	; 0x4000
 8002d58:	6453      	str	r3, [r2, #68]	; 0x44
 8002d5a:	4b0d      	ldr	r3, [pc, #52]	; (8002d90 <HAL_MspInit+0x4c>)
 8002d5c:	6c5b      	ldr	r3, [r3, #68]	; 0x44
 8002d5e:	f403 4380 	and.w	r3, r3, #16384	; 0x4000
 8002d62:	607b      	str	r3, [r7, #4]
 8002d64:	687b      	ldr	r3, [r7, #4]
 8002d66:	2300      	movs	r3, #0
 8002d68:	603b      	str	r3, [r7, #0]
 8002d6a:	4b09      	ldr	r3, [pc, #36]	; (8002d90 <HAL_MspInit+0x4c>)
 8002d6c:	6c1b      	ldr	r3, [r3, #64]	; 0x40
 8002d6e:	4a08      	ldr	r2, [pc, #32]	; (8002d90 <HAL_MspInit+0x4c>)
 8002d70:	f043 5380 	orr.w	r3, r3, #268435456	; 0x10000000
 8002d74:	6413      	str	r3, [r2, #64]	; 0x40
 8002d76:	4b06      	ldr	r3, [pc, #24]	; (8002d90 <HAL_MspInit+0x4c>)
 8002d78:	6c1b      	ldr	r3, [r3, #64]	; 0x40
 8002d7a:	f003 5380 	and.w	r3, r3, #268435456	; 0x10000000
 8002d7e:	603b      	str	r3, [r7, #0]
 8002d80:	683b      	ldr	r3, [r7, #0]
 8002d82:	bf00      	nop
 8002d84:	370c      	adds	r7, #12
 8002d86:	46bd      	mov	sp, r7
 8002d88:	f85d 7b04 	ldr.w	r7, [sp], #4
 8002d8c:	4770      	bx	lr
 8002d8e:	bf00      	nop
 8002d90:	40023800 	.word	0x40023800

08002d94 <NMI_Handler>:
 8002d94:	b480      	push	{r7}
 8002d96:	af00      	add	r7, sp, #0
 8002d98:	e7fe      	b.n	8002d98 <NMI_Handler+0x4>

08002d9a <HardFault_Handler>:
 8002d9a:	b480      	push	{r7}
 8002d9c:	af00      	add	r7, sp, #0
 8002d9e:	e7fe      	b.n	8002d9e <HardFault_Handler+0x4>

08002da0 <MemManage_Handler>:
 8002da0:	b480      	push	{r7}
 8002da2:	af00      	add	r7, sp, #0
 8002da4:	e7fe      	b.n	8002da4 <MemManage_Handler+0x4>

08002da6 <BusFault_Handler>:
 8002da6:	b480      	push	{r7}
 8002da8:	af00      	add	r7, sp, #0
 8002daa:	e7fe      	b.n	8002daa <BusFault_Handler+0x4>

08002dac <UsageFault_Handler>:
 8002dac:	b480      	push	{r7}
 8002dae:	af00      	add	r7, sp, #0
 8002db0:	e7fe      	b.n	8002db0 <UsageFault_Handler+0x4>

08002db2 <SVC_Handler>:
 8002db2:	b480      	push	{r7}
 8002db4:	af00      	add	r7, sp, #0
 8002db6:	bf00      	nop
 8002db8:	46bd      	mov	sp, r7
 8002dba:	f85d 7b04 	ldr.w	r7, [sp], #4
 8002dbe:	4770      	bx	lr

08002dc0 <DebugMon_Handler>:
 8002dc0:	b480      	push	{r7}
 8002dc2:	af00      	add	r7, sp, #0
 8002dc4:	bf00      	nop
 8002dc6:	46bd      	mov	sp, r7
 8002dc8:	f85d 7b04 	ldr.w	r7, [sp], #4
 8002dcc:	4770      	bx	lr

08002dce <PendSV_Handler>:
 8002dce:	b480      	push	{r7}
 8002dd0:	af00      	add	r7, sp, #0
 8002dd2:	bf00      	nop
 8002dd4:	46bd      	mov	sp, r7
 8002dd6:	f85d 7b04 	ldr.w	r7, [sp], #4
 8002dda:	4770      	bx	lr

08002ddc <SysTick_Handler>:
 8002ddc:	b580      	push	{r7, lr}
 8002dde:	af00      	add	r7, sp, #0
 8002de0:	f000 fb22 	bl	8003428 <HAL_IncTick>
 8002de4:	bf00      	nop
 8002de6:	bd80      	pop	{r7, pc}

08002de8 <TIM2_IRQHandler>:
 8002de8:	b580      	push	{r7, lr}
 8002dea:	af00      	add	r7, sp, #0
 8002dec:	4802      	ldr	r0, [pc, #8]	; (8002df8 <TIM2_IRQHandler+0x10>)
 8002dee:	f003 f905 	bl	8005ffc <HAL_TIM_IRQHandler>
 8002df2:	bf00      	nop
 8002df4:	bd80      	pop	{r7, pc}
 8002df6:	bf00      	nop
 8002df8:	20000634 	.word	0x20000634

08002dfc <TIM4_IRQHandler>:
 8002dfc:	b580      	push	{r7, lr}
 8002dfe:	af00      	add	r7, sp, #0
 8002e00:	4802      	ldr	r0, [pc, #8]	; (8002e0c <TIM4_IRQHandler+0x10>)
 8002e02:	f003 f8fb 	bl	8005ffc <HAL_TIM_IRQHandler>
 8002e06:	bf00      	nop
 8002e08:	bd80      	pop	{r7, pc}
 8002e0a:	bf00      	nop
 8002e0c:	2000067c 	.word	0x2000067c

08002e10 <USART1_IRQHandler>:
 8002e10:	b580      	push	{r7, lr}
 8002e12:	af00      	add	r7, sp, #0
 8002e14:	4802      	ldr	r0, [pc, #8]	; (8002e20 <USART1_IRQHandler+0x10>)
 8002e16:	f004 f877 	bl	8006f08 <HAL_UART_IRQHandler>
 8002e1a:	bf00      	nop
 8002e1c:	bd80      	pop	{r7, pc}
 8002e1e:	bf00      	nop
 8002e20:	2000070c 	.word	0x2000070c

08002e24 <USART3_IRQHandler>:
 8002e24:	b580      	push	{r7, lr}
 8002e26:	af00      	add	r7, sp, #0
 8002e28:	4802      	ldr	r0, [pc, #8]	; (8002e34 <USART3_IRQHandler+0x10>)
 8002e2a:	f004 f86d 	bl	8006f08 <HAL_UART_IRQHandler>
 8002e2e:	bf00      	nop
 8002e30:	bd80      	pop	{r7, pc}
 8002e32:	bf00      	nop
 8002e34:	20000754 	.word	0x20000754

08002e38 <DMA2_Stream0_IRQHandler>:
 8002e38:	b580      	push	{r7, lr}
 8002e3a:	af00      	add	r7, sp, #0
 8002e3c:	4802      	ldr	r0, [pc, #8]	; (8002e48 <DMA2_Stream0_IRQHandler+0x10>)
 8002e3e:	f001 f9f3 	bl	8004228 <HAL_DMA_IRQHandler>
 8002e42:	bf00      	nop
 8002e44:	bd80      	pop	{r7, pc}
 8002e46:	bf00      	nop
 8002e48:	20000288 	.word	0x20000288

08002e4c <SystemInit>:
 8002e4c:	b480      	push	{r7}
 8002e4e:	af00      	add	r7, sp, #0
 8002e50:	4b06      	ldr	r3, [pc, #24]	; (8002e6c <SystemInit+0x20>)
 8002e52:	f8d3 3088 	ldr.w	r3, [r3, #136]	; 0x88
 8002e56:	4a05      	ldr	r2, [pc, #20]	; (8002e6c <SystemInit+0x20>)
 8002e58:	f443 0370 	orr.w	r3, r3, #15728640	; 0xf00000
 8002e5c:	f8c2 3088 	str.w	r3, [r2, #136]	; 0x88
 8002e60:	bf00      	nop
 8002e62:	46bd      	mov	sp, r7
 8002e64:	f85d 7b04 	ldr.w	r7, [sp], #4
 8002e68:	4770      	bx	lr
 8002e6a:	bf00      	nop
 8002e6c:	e000ed00 	.word	0xe000ed00

08002e70 <MX_TIM2_Init>:
 8002e70:	b580      	push	{r7, lr}
 8002e72:	b086      	sub	sp, #24
 8002e74:	af00      	add	r7, sp, #0
 8002e76:	f107 0308 	add.w	r3, r7, #8
 8002e7a:	2200      	movs	r2, #0
 8002e7c:	601a      	str	r2, [r3, #0]
 8002e7e:	605a      	str	r2, [r3, #4]
 8002e80:	609a      	str	r2, [r3, #8]
 8002e82:	60da      	str	r2, [r3, #12]
 8002e84:	463b      	mov	r3, r7
 8002e86:	2200      	movs	r2, #0
 8002e88:	601a      	str	r2, [r3, #0]
 8002e8a:	605a      	str	r2, [r3, #4]
 8002e8c:	4b1d      	ldr	r3, [pc, #116]	; (8002f04 <MX_TIM2_Init+0x94>)
 8002e8e:	f04f 4280 	mov.w	r2, #1073741824	; 0x40000000
 8002e92:	601a      	str	r2, [r3, #0]
 8002e94:	4b1b      	ldr	r3, [pc, #108]	; (8002f04 <MX_TIM2_Init+0x94>)
 8002e96:	f240 3247 	movw	r2, #839	; 0x347
 8002e9a:	605a      	str	r2, [r3, #4]
 8002e9c:	4b19      	ldr	r3, [pc, #100]	; (8002f04 <MX_TIM2_Init+0x94>)
 8002e9e:	2200      	movs	r2, #0
 8002ea0:	609a      	str	r2, [r3, #8]
 8002ea2:	4b18      	ldr	r3, [pc, #96]	; (8002f04 <MX_TIM2_Init+0x94>)
 8002ea4:	2263      	movs	r2, #99	; 0x63
 8002ea6:	60da      	str	r2, [r3, #12]
 8002ea8:	4b16      	ldr	r3, [pc, #88]	; (8002f04 <MX_TIM2_Init+0x94>)
 8002eaa:	2200      	movs	r2, #0
 8002eac:	611a      	str	r2, [r3, #16]
 8002eae:	4b15      	ldr	r3, [pc, #84]	; (8002f04 <MX_TIM2_Init+0x94>)
 8002eb0:	2200      	movs	r2, #0
 8002eb2:	619a      	str	r2, [r3, #24]
 8002eb4:	4813      	ldr	r0, [pc, #76]	; (8002f04 <MX_TIM2_Init+0x94>)
 8002eb6:	f002 febf 	bl	8005c38 <HAL_TIM_Base_Init>
 8002eba:	4603      	mov	r3, r0
 8002ebc:	2b00      	cmp	r3, #0
 8002ebe:	d001      	beq.n	8002ec4 <MX_TIM2_Init+0x54>
 8002ec0:	f7ff fb94 	bl	80025ec <Error_Handler>
 8002ec4:	f44f 5380 	mov.w	r3, #4096	; 0x1000
 8002ec8:	60bb      	str	r3, [r7, #8]
 8002eca:	f107 0308 	add.w	r3, r7, #8
 8002ece:	4619      	mov	r1, r3
 8002ed0:	480c      	ldr	r0, [pc, #48]	; (8002f04 <MX_TIM2_Init+0x94>)
 8002ed2:	f003 fa45 	bl	8006360 <HAL_TIM_ConfigClockSource>
 8002ed6:	4603      	mov	r3, r0
 8002ed8:	2b00      	cmp	r3, #0
 8002eda:	d001      	beq.n	8002ee0 <MX_TIM2_Init+0x70>
 8002edc:	f7ff fb86 	bl	80025ec <Error_Handler>
 8002ee0:	2300      	movs	r3, #0
 8002ee2:	603b      	str	r3, [r7, #0]
 8002ee4:	2300      	movs	r3, #0
 8002ee6:	607b      	str	r3, [r7, #4]
 8002ee8:	463b      	mov	r3, r7
 8002eea:	4619      	mov	r1, r3
 8002eec:	4805      	ldr	r0, [pc, #20]	; (8002f04 <MX_TIM2_Init+0x94>)
 8002eee:	f003 fe43 	bl	8006b78 <HAL_TIMEx_MasterConfigSynchronization>
 8002ef2:	4603      	mov	r3, r0
 8002ef4:	2b00      	cmp	r3, #0
 8002ef6:	d001      	beq.n	8002efc <MX_TIM2_Init+0x8c>
 8002ef8:	f7ff fb78 	bl	80025ec <Error_Handler>
 8002efc:	bf00      	nop
 8002efe:	3718      	adds	r7, #24
 8002f00:	46bd      	mov	sp, r7
 8002f02:	bd80      	pop	{r7, pc}
 8002f04:	20000634 	.word	0x20000634

08002f08 <MX_TIM4_Init>:
 8002f08:	b580      	push	{r7, lr}
 8002f0a:	b086      	sub	sp, #24
 8002f0c:	af00      	add	r7, sp, #0
 8002f0e:	f107 0308 	add.w	r3, r7, #8
 8002f12:	2200      	movs	r2, #0
 8002f14:	601a      	str	r2, [r3, #0]
 8002f16:	605a      	str	r2, [r3, #4]
 8002f18:	609a      	str	r2, [r3, #8]
 8002f1a:	60da      	str	r2, [r3, #12]
 8002f1c:	463b      	mov	r3, r7
 8002f1e:	2200      	movs	r2, #0
 8002f20:	601a      	str	r2, [r3, #0]
 8002f22:	605a      	str	r2, [r3, #4]
 8002f24:	4b1d      	ldr	r3, [pc, #116]	; (8002f9c <MX_TIM4_Init+0x94>)
 8002f26:	4a1e      	ldr	r2, [pc, #120]	; (8002fa0 <MX_TIM4_Init+0x98>)
 8002f28:	601a      	str	r2, [r3, #0]
 8002f2a:	4b1c      	ldr	r3, [pc, #112]	; (8002f9c <MX_TIM4_Init+0x94>)
 8002f2c:	f240 3247 	movw	r2, #839	; 0x347
 8002f30:	605a      	str	r2, [r3, #4]
 8002f32:	4b1a      	ldr	r3, [pc, #104]	; (8002f9c <MX_TIM4_Init+0x94>)
 8002f34:	2200      	movs	r2, #0
 8002f36:	609a      	str	r2, [r3, #8]
 8002f38:	4b18      	ldr	r3, [pc, #96]	; (8002f9c <MX_TIM4_Init+0x94>)
 8002f3a:	2263      	movs	r2, #99	; 0x63
 8002f3c:	60da      	str	r2, [r3, #12]
 8002f3e:	4b17      	ldr	r3, [pc, #92]	; (8002f9c <MX_TIM4_Init+0x94>)
 8002f40:	2200      	movs	r2, #0
 8002f42:	611a      	str	r2, [r3, #16]
 8002f44:	4b15      	ldr	r3, [pc, #84]	; (8002f9c <MX_TIM4_Init+0x94>)
 8002f46:	2200      	movs	r2, #0
 8002f48:	619a      	str	r2, [r3, #24]
 8002f4a:	4814      	ldr	r0, [pc, #80]	; (8002f9c <MX_TIM4_Init+0x94>)
 8002f4c:	f002 fe74 	bl	8005c38 <HAL_TIM_Base_Init>
 8002f50:	4603      	mov	r3, r0
 8002f52:	2b00      	cmp	r3, #0
 8002f54:	d001      	beq.n	8002f5a <MX_TIM4_Init+0x52>
 8002f56:	f7ff fb49 	bl	80025ec <Error_Handler>
 8002f5a:	f44f 5380 	mov.w	r3, #4096	; 0x1000
 8002f5e:	60bb      	str	r3, [r7, #8]
 8002f60:	f107 0308 	add.w	r3, r7, #8
 8002f64:	4619      	mov	r1, r3
 8002f66:	480d      	ldr	r0, [pc, #52]	; (8002f9c <MX_TIM4_Init+0x94>)
 8002f68:	f003 f9fa 	bl	8006360 <HAL_TIM_ConfigClockSource>
 8002f6c:	4603      	mov	r3, r0
 8002f6e:	2b00      	cmp	r3, #0
 8002f70:	d001      	beq.n	8002f76 <MX_TIM4_Init+0x6e>
 8002f72:	f7ff fb3b 	bl	80025ec <Error_Handler>
 8002f76:	2300      	movs	r3, #0
 8002f78:	603b      	str	r3, [r7, #0]
 8002f7a:	2300      	movs	r3, #0
 8002f7c:	607b      	str	r3, [r7, #4]
 8002f7e:	463b      	mov	r3, r7
 8002f80:	4619      	mov	r1, r3
 8002f82:	4806      	ldr	r0, [pc, #24]	; (8002f9c <MX_TIM4_Init+0x94>)
 8002f84:	f003 fdf8 	bl	8006b78 <HAL_TIMEx_MasterConfigSynchronization>
 8002f88:	4603      	mov	r3, r0
 8002f8a:	2b00      	cmp	r3, #0
 8002f8c:	d001      	beq.n	8002f92 <MX_TIM4_Init+0x8a>
 8002f8e:	f7ff fb2d 	bl	80025ec <Error_Handler>
 8002f92:	bf00      	nop
 8002f94:	3718      	adds	r7, #24
 8002f96:	46bd      	mov	sp, r7
 8002f98:	bd80      	pop	{r7, pc}
 8002f9a:	bf00      	nop
 8002f9c:	2000067c 	.word	0x2000067c
 8002fa0:	40000800 	.word	0x40000800

08002fa4 <MX_TIM13_Init>:
 8002fa4:	b580      	push	{r7, lr}
 8002fa6:	b088      	sub	sp, #32
 8002fa8:	af00      	add	r7, sp, #0
 8002faa:	1d3b      	adds	r3, r7, #4
 8002fac:	2200      	movs	r2, #0
 8002fae:	601a      	str	r2, [r3, #0]
 8002fb0:	605a      	str	r2, [r3, #4]
 8002fb2:	609a      	str	r2, [r3, #8]
 8002fb4:	60da      	str	r2, [r3, #12]
 8002fb6:	611a      	str	r2, [r3, #16]
 8002fb8:	615a      	str	r2, [r3, #20]
 8002fba:	619a      	str	r2, [r3, #24]
 8002fbc:	4b1e      	ldr	r3, [pc, #120]	; (8003038 <MX_TIM13_Init+0x94>)
 8002fbe:	4a1f      	ldr	r2, [pc, #124]	; (800303c <MX_TIM13_Init+0x98>)
 8002fc0:	601a      	str	r2, [r3, #0]
 8002fc2:	4b1d      	ldr	r3, [pc, #116]	; (8003038 <MX_TIM13_Init+0x94>)
 8002fc4:	f240 3247 	movw	r2, #839	; 0x347
 8002fc8:	605a      	str	r2, [r3, #4]
 8002fca:	4b1b      	ldr	r3, [pc, #108]	; (8003038 <MX_TIM13_Init+0x94>)
 8002fcc:	2200      	movs	r2, #0
 8002fce:	609a      	str	r2, [r3, #8]
 8002fd0:	4b19      	ldr	r3, [pc, #100]	; (8003038 <MX_TIM13_Init+0x94>)
 8002fd2:	2263      	movs	r2, #99	; 0x63
 8002fd4:	60da      	str	r2, [r3, #12]
 8002fd6:	4b18      	ldr	r3, [pc, #96]	; (8003038 <MX_TIM13_Init+0x94>)
 8002fd8:	2200      	movs	r2, #0
 8002fda:	611a      	str	r2, [r3, #16]
 8002fdc:	4b16      	ldr	r3, [pc, #88]	; (8003038 <MX_TIM13_Init+0x94>)
 8002fde:	2200      	movs	r2, #0
 8002fe0:	619a      	str	r2, [r3, #24]
 8002fe2:	4815      	ldr	r0, [pc, #84]	; (8003038 <MX_TIM13_Init+0x94>)
 8002fe4:	f002 fe28 	bl	8005c38 <HAL_TIM_Base_Init>
 8002fe8:	4603      	mov	r3, r0
 8002fea:	2b00      	cmp	r3, #0
 8002fec:	d001      	beq.n	8002ff2 <MX_TIM13_Init+0x4e>
 8002fee:	f7ff fafd 	bl	80025ec <Error_Handler>
 8002ff2:	4811      	ldr	r0, [pc, #68]	; (8003038 <MX_TIM13_Init+0x94>)
 8002ff4:	f002 fee0 	bl	8005db8 <HAL_TIM_PWM_Init>
 8002ff8:	4603      	mov	r3, r0
 8002ffa:	2b00      	cmp	r3, #0
 8002ffc:	d001      	beq.n	8003002 <MX_TIM13_Init+0x5e>
 8002ffe:	f7ff faf5 	bl	80025ec <Error_Handler>
 8003002:	2360      	movs	r3, #96	; 0x60
 8003004:	607b      	str	r3, [r7, #4]
 8003006:	2300      	movs	r3, #0
 8003008:	60bb      	str	r3, [r7, #8]
 800300a:	2300      	movs	r3, #0
 800300c:	60fb      	str	r3, [r7, #12]
 800300e:	2300      	movs	r3, #0
 8003010:	617b      	str	r3, [r7, #20]
 8003012:	1d3b      	adds	r3, r7, #4
 8003014:	2200      	movs	r2, #0
 8003016:	4619      	mov	r1, r3
 8003018:	4807      	ldr	r0, [pc, #28]	; (8003038 <MX_TIM13_Init+0x94>)
 800301a:	f003 f8df 	bl	80061dc <HAL_TIM_PWM_ConfigChannel>
 800301e:	4603      	mov	r3, r0
 8003020:	2b00      	cmp	r3, #0
 8003022:	d001      	beq.n	8003028 <MX_TIM13_Init+0x84>
 8003024:	f7ff fae2 	bl	80025ec <Error_Handler>
 8003028:	4803      	ldr	r0, [pc, #12]	; (8003038 <MX_TIM13_Init+0x94>)
 800302a:	f000 f863 	bl	80030f4 <HAL_TIM_MspPostInit>
 800302e:	bf00      	nop
 8003030:	3720      	adds	r7, #32
 8003032:	46bd      	mov	sp, r7
 8003034:	bd80      	pop	{r7, pc}
 8003036:	bf00      	nop
 8003038:	200006c4 	.word	0x200006c4
 800303c:	40001c00 	.word	0x40001c00

08003040 <HAL_TIM_Base_MspInit>:
 8003040:	b580      	push	{r7, lr}
 8003042:	b086      	sub	sp, #24
 8003044:	af00      	add	r7, sp, #0
 8003046:	6078      	str	r0, [r7, #4]
 8003048:	687b      	ldr	r3, [r7, #4]
 800304a:	681b      	ldr	r3, [r3, #0]
 800304c:	f1b3 4f80 	cmp.w	r3, #1073741824	; 0x40000000
 8003050:	d116      	bne.n	8003080 <HAL_TIM_Base_MspInit+0x40>
 8003052:	2300      	movs	r3, #0
 8003054:	617b      	str	r3, [r7, #20]
 8003056:	4b24      	ldr	r3, [pc, #144]	; (80030e8 <HAL_TIM_Base_MspInit+0xa8>)
 8003058:	6c1b      	ldr	r3, [r3, #64]	; 0x40
 800305a:	4a23      	ldr	r2, [pc, #140]	; (80030e8 <HAL_TIM_Base_MspInit+0xa8>)
 800305c:	f043 0301 	orr.w	r3, r3, #1
 8003060:	6413      	str	r3, [r2, #64]	; 0x40
 8003062:	4b21      	ldr	r3, [pc, #132]	; (80030e8 <HAL_TIM_Base_MspInit+0xa8>)
 8003064:	6c1b      	ldr	r3, [r3, #64]	; 0x40
 8003066:	f003 0301 	and.w	r3, r3, #1
 800306a:	617b      	str	r3, [r7, #20]
 800306c:	697b      	ldr	r3, [r7, #20]
 800306e:	2200      	movs	r2, #0
 8003070:	2100      	movs	r1, #0
 8003072:	201c      	movs	r0, #28
 8003074:	f000 ff09 	bl	8003e8a <HAL_NVIC_SetPriority>
 8003078:	201c      	movs	r0, #28
 800307a:	f000 ff22 	bl	8003ec2 <HAL_NVIC_EnableIRQ>
 800307e:	e02e      	b.n	80030de <HAL_TIM_Base_MspInit+0x9e>
 8003080:	687b      	ldr	r3, [r7, #4]
 8003082:	681b      	ldr	r3, [r3, #0]
 8003084:	4a19      	ldr	r2, [pc, #100]	; (80030ec <HAL_TIM_Base_MspInit+0xac>)
 8003086:	4293      	cmp	r3, r2
 8003088:	d116      	bne.n	80030b8 <HAL_TIM_Base_MspInit+0x78>
 800308a:	2300      	movs	r3, #0
 800308c:	613b      	str	r3, [r7, #16]
 800308e:	4b16      	ldr	r3, [pc, #88]	; (80030e8 <HAL_TIM_Base_MspInit+0xa8>)
 8003090:	6c1b      	ldr	r3, [r3, #64]	; 0x40
 8003092:	4a15      	ldr	r2, [pc, #84]	; (80030e8 <HAL_TIM_Base_MspInit+0xa8>)
 8003094:	f043 0304 	orr.w	r3, r3, #4
 8003098:	6413      	str	r3, [r2, #64]	; 0x40
 800309a:	4b13      	ldr	r3, [pc, #76]	; (80030e8 <HAL_TIM_Base_MspInit+0xa8>)
 800309c:	6c1b      	ldr	r3, [r3, #64]	; 0x40
 800309e:	f003 0304 	and.w	r3, r3, #4
 80030a2:	613b      	str	r3, [r7, #16]
 80030a4:	693b      	ldr	r3, [r7, #16]
 80030a6:	2200      	movs	r2, #0
 80030a8:	2100      	movs	r1, #0
 80030aa:	201e      	movs	r0, #30
 80030ac:	f000 feed 	bl	8003e8a <HAL_NVIC_SetPriority>
 80030b0:	201e      	movs	r0, #30
 80030b2:	f000 ff06 	bl	8003ec2 <HAL_NVIC_EnableIRQ>
 80030b6:	e012      	b.n	80030de <HAL_TIM_Base_MspInit+0x9e>
 80030b8:	687b      	ldr	r3, [r7, #4]
 80030ba:	681b      	ldr	r3, [r3, #0]
 80030bc:	4a0c      	ldr	r2, [pc, #48]	; (80030f0 <HAL_TIM_Base_MspInit+0xb0>)
 80030be:	4293      	cmp	r3, r2
 80030c0:	d10d      	bne.n	80030de <HAL_TIM_Base_MspInit+0x9e>
 80030c2:	2300      	movs	r3, #0
 80030c4:	60fb      	str	r3, [r7, #12]
 80030c6:	4b08      	ldr	r3, [pc, #32]	; (80030e8 <HAL_TIM_Base_MspInit+0xa8>)
 80030c8:	6c1b      	ldr	r3, [r3, #64]	; 0x40
 80030ca:	4a07      	ldr	r2, [pc, #28]	; (80030e8 <HAL_TIM_Base_MspInit+0xa8>)
 80030cc:	f043 0380 	orr.w	r3, r3, #128	; 0x80
 80030d0:	6413      	str	r3, [r2, #64]	; 0x40
 80030d2:	4b05      	ldr	r3, [pc, #20]	; (80030e8 <HAL_TIM_Base_MspInit+0xa8>)
 80030d4:	6c1b      	ldr	r3, [r3, #64]	; 0x40
 80030d6:	f003 0380 	and.w	r3, r3, #128	; 0x80
 80030da:	60fb      	str	r3, [r7, #12]
 80030dc:	68fb      	ldr	r3, [r7, #12]
 80030de:	bf00      	nop
 80030e0:	3718      	adds	r7, #24
 80030e2:	46bd      	mov	sp, r7
 80030e4:	bd80      	pop	{r7, pc}
 80030e6:	bf00      	nop
 80030e8:	40023800 	.word	0x40023800
 80030ec:	40000800 	.word	0x40000800
 80030f0:	40001c00 	.word	0x40001c00

080030f4 <HAL_TIM_MspPostInit>:
 80030f4:	b580      	push	{r7, lr}
 80030f6:	b088      	sub	sp, #32
 80030f8:	af00      	add	r7, sp, #0
 80030fa:	6078      	str	r0, [r7, #4]
 80030fc:	f107 030c 	add.w	r3, r7, #12
 8003100:	2200      	movs	r2, #0
 8003102:	601a      	str	r2, [r3, #0]
 8003104:	605a      	str	r2, [r3, #4]
 8003106:	609a      	str	r2, [r3, #8]
 8003108:	60da      	str	r2, [r3, #12]
 800310a:	611a      	str	r2, [r3, #16]
 800310c:	687b      	ldr	r3, [r7, #4]
 800310e:	681b      	ldr	r3, [r3, #0]
 8003110:	4a12      	ldr	r2, [pc, #72]	; (800315c <HAL_TIM_MspPostInit+0x68>)
 8003112:	4293      	cmp	r3, r2
 8003114:	d11e      	bne.n	8003154 <HAL_TIM_MspPostInit+0x60>
 8003116:	2300      	movs	r3, #0
 8003118:	60bb      	str	r3, [r7, #8]
 800311a:	4b11      	ldr	r3, [pc, #68]	; (8003160 <HAL_TIM_MspPostInit+0x6c>)
 800311c:	6b1b      	ldr	r3, [r3, #48]	; 0x30
 800311e:	4a10      	ldr	r2, [pc, #64]	; (8003160 <HAL_TIM_MspPostInit+0x6c>)
 8003120:	f043 0320 	orr.w	r3, r3, #32
 8003124:	6313      	str	r3, [r2, #48]	; 0x30
 8003126:	4b0e      	ldr	r3, [pc, #56]	; (8003160 <HAL_TIM_MspPostInit+0x6c>)
 8003128:	6b1b      	ldr	r3, [r3, #48]	; 0x30
 800312a:	f003 0320 	and.w	r3, r3, #32
 800312e:	60bb      	str	r3, [r7, #8]
 8003130:	68bb      	ldr	r3, [r7, #8]
 8003132:	f44f 7380 	mov.w	r3, #256	; 0x100
 8003136:	60fb      	str	r3, [r7, #12]
 8003138:	2302      	movs	r3, #2
 800313a:	613b      	str	r3, [r7, #16]
 800313c:	2300      	movs	r3, #0
 800313e:	617b      	str	r3, [r7, #20]
 8003140:	2300      	movs	r3, #0
 8003142:	61bb      	str	r3, [r7, #24]
 8003144:	2309      	movs	r3, #9
 8003146:	61fb      	str	r3, [r7, #28]
 8003148:	f107 030c 	add.w	r3, r7, #12
 800314c:	4619      	mov	r1, r3
 800314e:	4805      	ldr	r0, [pc, #20]	; (8003164 <HAL_TIM_MspPostInit+0x70>)
 8003150:	f001 fad4 	bl	80046fc <HAL_GPIO_Init>
 8003154:	bf00      	nop
 8003156:	3720      	adds	r7, #32
 8003158:	46bd      	mov	sp, r7
 800315a:	bd80      	pop	{r7, pc}
 800315c:	40001c00 	.word	0x40001c00
 8003160:	40023800 	.word	0x40023800
 8003164:	40021400 	.word	0x40021400

08003168 <MX_USART1_UART_Init>:
 8003168:	b580      	push	{r7, lr}
 800316a:	af00      	add	r7, sp, #0
 800316c:	4b11      	ldr	r3, [pc, #68]	; (80031b4 <MX_USART1_UART_Init+0x4c>)
 800316e:	4a12      	ldr	r2, [pc, #72]	; (80031b8 <MX_USART1_UART_Init+0x50>)
 8003170:	601a      	str	r2, [r3, #0]
 8003172:	4b10      	ldr	r3, [pc, #64]	; (80031b4 <MX_USART1_UART_Init+0x4c>)
 8003174:	f44f 32e1 	mov.w	r2, #115200	; 0x1c200
 8003178:	605a      	str	r2, [r3, #4]
 800317a:	4b0e      	ldr	r3, [pc, #56]	; (80031b4 <MX_USART1_UART_Init+0x4c>)
 800317c:	2200      	movs	r2, #0
 800317e:	609a      	str	r2, [r3, #8]
 8003180:	4b0c      	ldr	r3, [pc, #48]	; (80031b4 <MX_USART1_UART_Init+0x4c>)
 8003182:	2200      	movs	r2, #0
 8003184:	60da      	str	r2, [r3, #12]
 8003186:	4b0b      	ldr	r3, [pc, #44]	; (80031b4 <MX_USART1_UART_Init+0x4c>)
 8003188:	2200      	movs	r2, #0
 800318a:	611a      	str	r2, [r3, #16]
 800318c:	4b09      	ldr	r3, [pc, #36]	; (80031b4 <MX_USART1_UART_Init+0x4c>)
 800318e:	220c      	movs	r2, #12
 8003190:	615a      	str	r2, [r3, #20]
 8003192:	4b08      	ldr	r3, [pc, #32]	; (80031b4 <MX_USART1_UART_Init+0x4c>)
 8003194:	2200      	movs	r2, #0
 8003196:	619a      	str	r2, [r3, #24]
 8003198:	4b06      	ldr	r3, [pc, #24]	; (80031b4 <MX_USART1_UART_Init+0x4c>)
 800319a:	2200      	movs	r2, #0
 800319c:	61da      	str	r2, [r3, #28]
 800319e:	4805      	ldr	r0, [pc, #20]	; (80031b4 <MX_USART1_UART_Init+0x4c>)
 80031a0:	f003 fd7a 	bl	8006c98 <HAL_UART_Init>
 80031a4:	4603      	mov	r3, r0
 80031a6:	2b00      	cmp	r3, #0
 80031a8:	d001      	beq.n	80031ae <MX_USART1_UART_Init+0x46>
 80031aa:	f7ff fa1f 	bl	80025ec <Error_Handler>
 80031ae:	bf00      	nop
 80031b0:	bd80      	pop	{r7, pc}
 80031b2:	bf00      	nop
 80031b4:	2000070c 	.word	0x2000070c
 80031b8:	40011000 	.word	0x40011000

080031bc <MX_USART3_UART_Init>:
 80031bc:	b580      	push	{r7, lr}
 80031be:	af00      	add	r7, sp, #0
 80031c0:	4b11      	ldr	r3, [pc, #68]	; (8003208 <MX_USART3_UART_Init+0x4c>)
 80031c2:	4a12      	ldr	r2, [pc, #72]	; (800320c <MX_USART3_UART_Init+0x50>)
 80031c4:	601a      	str	r2, [r3, #0]
 80031c6:	4b10      	ldr	r3, [pc, #64]	; (8003208 <MX_USART3_UART_Init+0x4c>)
 80031c8:	f44f 5296 	mov.w	r2, #4800	; 0x12c0
 80031cc:	605a      	str	r2, [r3, #4]
 80031ce:	4b0e      	ldr	r3, [pc, #56]	; (8003208 <MX_USART3_UART_Init+0x4c>)
 80031d0:	2200      	movs	r2, #0
 80031d2:	609a      	str	r2, [r3, #8]
 80031d4:	4b0c      	ldr	r3, [pc, #48]	; (8003208 <MX_USART3_UART_Init+0x4c>)
 80031d6:	2200      	movs	r2, #0
 80031d8:	60da      	str	r2, [r3, #12]
 80031da:	4b0b      	ldr	r3, [pc, #44]	; (8003208 <MX_USART3_UART_Init+0x4c>)
 80031dc:	2200      	movs	r2, #0
 80031de:	611a      	str	r2, [r3, #16]
 80031e0:	4b09      	ldr	r3, [pc, #36]	; (8003208 <MX_USART3_UART_Init+0x4c>)
 80031e2:	220c      	movs	r2, #12
 80031e4:	615a      	str	r2, [r3, #20]
 80031e6:	4b08      	ldr	r3, [pc, #32]	; (8003208 <MX_USART3_UART_Init+0x4c>)
 80031e8:	2200      	movs	r2, #0
 80031ea:	619a      	str	r2, [r3, #24]
 80031ec:	4b06      	ldr	r3, [pc, #24]	; (8003208 <MX_USART3_UART_Init+0x4c>)
 80031ee:	2200      	movs	r2, #0
 80031f0:	61da      	str	r2, [r3, #28]
 80031f2:	4805      	ldr	r0, [pc, #20]	; (8003208 <MX_USART3_UART_Init+0x4c>)
 80031f4:	f003 fd50 	bl	8006c98 <HAL_UART_Init>
 80031f8:	4603      	mov	r3, r0
 80031fa:	2b00      	cmp	r3, #0
 80031fc:	d001      	beq.n	8003202 <MX_USART3_UART_Init+0x46>
 80031fe:	f7ff f9f5 	bl	80025ec <Error_Handler>
 8003202:	bf00      	nop
 8003204:	bd80      	pop	{r7, pc}
 8003206:	bf00      	nop
 8003208:	20000754 	.word	0x20000754
 800320c:	40004800 	.word	0x40004800

08003210 <HAL_UART_MspInit>:
 8003210:	b580      	push	{r7, lr}
 8003212:	b08c      	sub	sp, #48	; 0x30
 8003214:	af00      	add	r7, sp, #0
 8003216:	6078      	str	r0, [r7, #4]
 8003218:	f107 031c 	add.w	r3, r7, #28
 800321c:	2200      	movs	r2, #0
 800321e:	601a      	str	r2, [r3, #0]
 8003220:	605a      	str	r2, [r3, #4]
 8003222:	609a      	str	r2, [r3, #8]
 8003224:	60da      	str	r2, [r3, #12]
 8003226:	611a      	str	r2, [r3, #16]
 8003228:	687b      	ldr	r3, [r7, #4]
 800322a:	681b      	ldr	r3, [r3, #0]
 800322c:	4a3b      	ldr	r2, [pc, #236]	; (800331c <HAL_UART_MspInit+0x10c>)
 800322e:	4293      	cmp	r3, r2
 8003230:	d135      	bne.n	800329e <HAL_UART_MspInit+0x8e>
 8003232:	2300      	movs	r3, #0
 8003234:	61bb      	str	r3, [r7, #24]
 8003236:	4b3a      	ldr	r3, [pc, #232]	; (8003320 <HAL_UART_MspInit+0x110>)
 8003238:	6c5b      	ldr	r3, [r3, #68]	; 0x44
 800323a:	4a39      	ldr	r2, [pc, #228]	; (8003320 <HAL_UART_MspInit+0x110>)
 800323c:	f043 0310 	orr.w	r3, r3, #16
 8003240:	6453      	str	r3, [r2, #68]	; 0x44
 8003242:	4b37      	ldr	r3, [pc, #220]	; (8003320 <HAL_UART_MspInit+0x110>)
 8003244:	6c5b      	ldr	r3, [r3, #68]	; 0x44
 8003246:	f003 0310 	and.w	r3, r3, #16
 800324a:	61bb      	str	r3, [r7, #24]
 800324c:	69bb      	ldr	r3, [r7, #24]
 800324e:	2300      	movs	r3, #0
 8003250:	617b      	str	r3, [r7, #20]
 8003252:	4b33      	ldr	r3, [pc, #204]	; (8003320 <HAL_UART_MspInit+0x110>)
 8003254:	6b1b      	ldr	r3, [r3, #48]	; 0x30
 8003256:	4a32      	ldr	r2, [pc, #200]	; (8003320 <HAL_UART_MspInit+0x110>)
 8003258:	f043 0301 	orr.w	r3, r3, #1
 800325c:	6313      	str	r3, [r2, #48]	; 0x30
 800325e:	4b30      	ldr	r3, [pc, #192]	; (8003320 <HAL_UART_MspInit+0x110>)
 8003260:	6b1b      	ldr	r3, [r3, #48]	; 0x30
 8003262:	f003 0301 	and.w	r3, r3, #1
 8003266:	617b      	str	r3, [r7, #20]
 8003268:	697b      	ldr	r3, [r7, #20]
 800326a:	f44f 63c0 	mov.w	r3, #1536	; 0x600
 800326e:	61fb      	str	r3, [r7, #28]
 8003270:	2302      	movs	r3, #2
 8003272:	623b      	str	r3, [r7, #32]
 8003274:	2300      	movs	r3, #0
 8003276:	627b      	str	r3, [r7, #36]	; 0x24
 8003278:	2303      	movs	r3, #3
 800327a:	62bb      	str	r3, [r7, #40]	; 0x28
 800327c:	2307      	movs	r3, #7
 800327e:	62fb      	str	r3, [r7, #44]	; 0x2c
 8003280:	f107 031c 	add.w	r3, r7, #28
 8003284:	4619      	mov	r1, r3
 8003286:	4827      	ldr	r0, [pc, #156]	; (8003324 <HAL_UART_MspInit+0x114>)
 8003288:	f001 fa38 	bl	80046fc <HAL_GPIO_Init>
 800328c:	2200      	movs	r2, #0
 800328e:	2100      	movs	r1, #0
 8003290:	2025      	movs	r0, #37	; 0x25
 8003292:	f000 fdfa 	bl	8003e8a <HAL_NVIC_SetPriority>
 8003296:	2025      	movs	r0, #37	; 0x25
 8003298:	f000 fe13 	bl	8003ec2 <HAL_NVIC_EnableIRQ>
 800329c:	e039      	b.n	8003312 <HAL_UART_MspInit+0x102>
 800329e:	687b      	ldr	r3, [r7, #4]
 80032a0:	681b      	ldr	r3, [r3, #0]
 80032a2:	4a21      	ldr	r2, [pc, #132]	; (8003328 <HAL_UART_MspInit+0x118>)
 80032a4:	4293      	cmp	r3, r2
 80032a6:	d134      	bne.n	8003312 <HAL_UART_MspInit+0x102>
 80032a8:	2300      	movs	r3, #0
 80032aa:	613b      	str	r3, [r7, #16]
 80032ac:	4b1c      	ldr	r3, [pc, #112]	; (8003320 <HAL_UART_MspInit+0x110>)
 80032ae:	6c1b      	ldr	r3, [r3, #64]	; 0x40
 80032b0:	4a1b      	ldr	r2, [pc, #108]	; (8003320 <HAL_UART_MspInit+0x110>)
 80032b2:	f443 2380 	orr.w	r3, r3, #262144	; 0x40000
 80032b6:	6413      	str	r3, [r2, #64]	; 0x40
 80032b8:	4b19      	ldr	r3, [pc, #100]	; (8003320 <HAL_UART_MspInit+0x110>)
 80032ba:	6c1b      	ldr	r3, [r3, #64]	; 0x40
 80032bc:	f403 2380 	and.w	r3, r3, #262144	; 0x40000
 80032c0:	613b      	str	r3, [r7, #16]
 80032c2:	693b      	ldr	r3, [r7, #16]
 80032c4:	2300      	movs	r3, #0
 80032c6:	60fb      	str	r3, [r7, #12]
 80032c8:	4b15      	ldr	r3, [pc, #84]	; (8003320 <HAL_UART_MspInit+0x110>)
 80032ca:	6b1b      	ldr	r3, [r3, #48]	; 0x30
 80032cc:	4a14      	ldr	r2, [pc, #80]	; (8003320 <HAL_UART_MspInit+0x110>)
 80032ce:	f043 0304 	orr.w	r3, r3, #4
 80032d2:	6313      	str	r3, [r2, #48]	; 0x30
 80032d4:	4b12      	ldr	r3, [pc, #72]	; (8003320 <HAL_UART_MspInit+0x110>)
 80032d6:	6b1b      	ldr	r3, [r3, #48]	; 0x30
 80032d8:	f003 0304 	and.w	r3, r3, #4
 80032dc:	60fb      	str	r3, [r7, #12]
 80032de:	68fb      	ldr	r3, [r7, #12]
 80032e0:	f44f 6340 	mov.w	r3, #3072	; 0xc00
 80032e4:	61fb      	str	r3, [r7, #28]
 80032e6:	2302      	movs	r3, #2
 80032e8:	623b      	str	r3, [r7, #32]
 80032ea:	2300      	movs	r3, #0
 80032ec:	627b      	str	r3, [r7, #36]	; 0x24
 80032ee:	2303      	movs	r3, #3
 80032f0:	62bb      	str	r3, [r7, #40]	; 0x28
 80032f2:	2307      	movs	r3, #7
 80032f4:	62fb      	str	r3, [r7, #44]	; 0x2c
 80032f6:	f107 031c 	add.w	r3, r7, #28
 80032fa:	4619      	mov	r1, r3
 80032fc:	480b      	ldr	r0, [pc, #44]	; (800332c <HAL_UART_MspInit+0x11c>)
 80032fe:	f001 f9fd 	bl	80046fc <HAL_GPIO_Init>
 8003302:	2200      	movs	r2, #0
 8003304:	2100      	movs	r1, #0
 8003306:	2027      	movs	r0, #39	; 0x27
 8003308:	f000 fdbf 	bl	8003e8a <HAL_NVIC_SetPriority>
 800330c:	2027      	movs	r0, #39	; 0x27
 800330e:	f000 fdd8 	bl	8003ec2 <HAL_NVIC_EnableIRQ>
 8003312:	bf00      	nop
 8003314:	3730      	adds	r7, #48	; 0x30
 8003316:	46bd      	mov	sp, r7
 8003318:	bd80      	pop	{r7, pc}
 800331a:	bf00      	nop
 800331c:	40011000 	.word	0x40011000
 8003320:	40023800 	.word	0x40023800
 8003324:	40020000 	.word	0x40020000
 8003328:	40004800 	.word	0x40004800
 800332c:	40020800 	.word	0x40020800

08003330 <Reset_Handler>:

    .section  .text.Reset_Handler
  .weak  Reset_Handler
  .type  Reset_Handler, %function
Reset_Handler:  
  ldr   sp, =_estack     /* set stack pointer */
 8003330:	f8df d034 	ldr.w	sp, [pc, #52]	; 8003368 <LoopFillZerobss+0x12>

/* Copy the data segment initializers from flash to SRAM */  
  ldr r0, =_sdata
 8003334:	480d      	ldr	r0, [pc, #52]	; (800336c <LoopFillZerobss+0x16>)
  ldr r1, =_edata
 8003336:	490e      	ldr	r1, [pc, #56]	; (8003370 <LoopFillZerobss+0x1a>)
  ldr r2, =_sidata
 8003338:	4a0e      	ldr	r2, [pc, #56]	; (8003374 <LoopFillZerobss+0x1e>)
  movs r3, #0
 800333a:	2300      	movs	r3, #0
  b LoopCopyDataInit
 800333c:	e002      	b.n	8003344 <LoopCopyDataInit>

0800333e <CopyDataInit>:

CopyDataInit:
  ldr r4, [r2, r3]
 800333e:	58d4      	ldr	r4, [r2, r3]
  str r4, [r0, r3]
 8003340:	50c4      	str	r4, [r0, r3]
  adds r3, r3, #4
 8003342:	3304      	adds	r3, #4

08003344 <LoopCopyDataInit>:

LoopCopyDataInit:
  adds r4, r0, r3
 8003344:	18c4      	adds	r4, r0, r3
  cmp r4, r1
 8003346:	428c      	cmp	r4, r1
  bcc CopyDataInit
 8003348:	d3f9      	bcc.n	800333e <CopyDataInit>
  
/* Zero fill the bss segment. */
  ldr r2, =_sbss
 800334a:	4a0b      	ldr	r2, [pc, #44]	; (8003378 <LoopFillZerobss+0x22>)
  ldr r4, =_ebss
 800334c:	4c0b      	ldr	r4, [pc, #44]	; (800337c <LoopFillZerobss+0x26>)
  movs r3, #0
 800334e:	2300      	movs	r3, #0
  b LoopFillZerobss
 8003350:	e001      	b.n	8003356 <LoopFillZerobss>

08003352 <FillZerobss>:

FillZerobss:
  str  r3, [r2]
 8003352:	6013      	str	r3, [r2, #0]
  adds r2, r2, #4
 8003354:	3204      	adds	r2, #4

08003356 <LoopFillZerobss>:

LoopFillZerobss:
  cmp r2, r4
 8003356:	42a2      	cmp	r2, r4
  bcc FillZerobss
 8003358:	d3fb      	bcc.n	8003352 <FillZerobss>

/* Call the clock system intitialization function.*/
  bl  SystemInit   
 800335a:	f7ff fd77 	bl	8002e4c <SystemInit>
/* Call static constructors */
    bl __libc_init_array
 800335e:	f004 fe07 	bl	8007f70 <__libc_init_array>
/* Call the application's entry point.*/
  bl  main
 8003362:	f7fe ffb7 	bl	80022d4 <main>
  bx  lr    
 8003366:	4770      	bx	lr
  ldr   sp, =_estack     /* set stack pointer */
 8003368:	20020000 	.word	0x20020000
  ldr r0, =_sdata
 800336c:	20000000 	.word	0x20000000
  ldr r1, =_edata
 8003370:	20000214 	.word	0x20000214
  ldr r2, =_sidata
 8003374:	0800b000 	.word	0x0800b000
  ldr r2, =_sbss
 8003378:	20000214 	.word	0x20000214
  ldr r4, =_ebss
 800337c:	200007a0 	.word	0x200007a0

08003380 <ADC_IRQHandler>:
 * @retval None       
*/
    .section  .text.Default_Handler,"ax",%progbits
Default_Handler:
Infinite_Loop:
  b  Infinite_Loop
 8003380:	e7fe      	b.n	8003380 <ADC_IRQHandler>
	...

08003384 <HAL_Init>:
 8003384:	b580      	push	{r7, lr}
 8003386:	af00      	add	r7, sp, #0
 8003388:	4b0e      	ldr	r3, [pc, #56]	; (80033c4 <HAL_Init+0x40>)
 800338a:	681b      	ldr	r3, [r3, #0]
 800338c:	4a0d      	ldr	r2, [pc, #52]	; (80033c4 <HAL_Init+0x40>)
 800338e:	f443 7300 	orr.w	r3, r3, #512	; 0x200
 8003392:	6013      	str	r3, [r2, #0]
 8003394:	4b0b      	ldr	r3, [pc, #44]	; (80033c4 <HAL_Init+0x40>)
 8003396:	681b      	ldr	r3, [r3, #0]
 8003398:	4a0a      	ldr	r2, [pc, #40]	; (80033c4 <HAL_Init+0x40>)
 800339a:	f443 6380 	orr.w	r3, r3, #1024	; 0x400
 800339e:	6013      	str	r3, [r2, #0]
 80033a0:	4b08      	ldr	r3, [pc, #32]	; (80033c4 <HAL_Init+0x40>)
 80033a2:	681b      	ldr	r3, [r3, #0]
 80033a4:	4a07      	ldr	r2, [pc, #28]	; (80033c4 <HAL_Init+0x40>)
 80033a6:	f443 7380 	orr.w	r3, r3, #256	; 0x100
 80033aa:	6013      	str	r3, [r2, #0]
 80033ac:	2003      	movs	r0, #3
 80033ae:	f000 fd61 	bl	8003e74 <HAL_NVIC_SetPriorityGrouping>
 80033b2:	200f      	movs	r0, #15
 80033b4:	f000 f808 	bl	80033c8 <HAL_InitTick>
 80033b8:	f7ff fcc4 	bl	8002d44 <HAL_MspInit>
 80033bc:	2300      	movs	r3, #0
 80033be:	4618      	mov	r0, r3
 80033c0:	bd80      	pop	{r7, pc}
 80033c2:	bf00      	nop
 80033c4:	40023c00 	.word	0x40023c00

080033c8 <HAL_InitTick>:
 80033c8:	b580      	push	{r7, lr}
 80033ca:	b082      	sub	sp, #8
 80033cc:	af00      	add	r7, sp, #0
 80033ce:	6078      	str	r0, [r7, #4]
 80033d0:	4b12      	ldr	r3, [pc, #72]	; (800341c <HAL_InitTick+0x54>)
 80033d2:	681a      	ldr	r2, [r3, #0]
 80033d4:	4b12      	ldr	r3, [pc, #72]	; (8003420 <HAL_InitTick+0x58>)
 80033d6:	781b      	ldrb	r3, [r3, #0]
 80033d8:	4619      	mov	r1, r3
 80033da:	f44f 737a 	mov.w	r3, #1000	; 0x3e8
 80033de:	fbb3 f3f1 	udiv	r3, r3, r1
 80033e2:	fbb2 f3f3 	udiv	r3, r2, r3
 80033e6:	4618      	mov	r0, r3
 80033e8:	f000 fd79 	bl	8003ede <HAL_SYSTICK_Config>
 80033ec:	4603      	mov	r3, r0
 80033ee:	2b00      	cmp	r3, #0
 80033f0:	d001      	beq.n	80033f6 <HAL_InitTick+0x2e>
 80033f2:	2301      	movs	r3, #1
 80033f4:	e00e      	b.n	8003414 <HAL_InitTick+0x4c>
 80033f6:	687b      	ldr	r3, [r7, #4]
 80033f8:	2b0f      	cmp	r3, #15
 80033fa:	d80a      	bhi.n	8003412 <HAL_InitTick+0x4a>
 80033fc:	2200      	movs	r2, #0
 80033fe:	6879      	ldr	r1, [r7, #4]
 8003400:	f04f 30ff 	mov.w	r0, #4294967295
 8003404:	f000 fd41 	bl	8003e8a <HAL_NVIC_SetPriority>
 8003408:	4a06      	ldr	r2, [pc, #24]	; (8003424 <HAL_InitTick+0x5c>)
 800340a:	687b      	ldr	r3, [r7, #4]
 800340c:	6013      	str	r3, [r2, #0]
 800340e:	2300      	movs	r3, #0
 8003410:	e000      	b.n	8003414 <HAL_InitTick+0x4c>
 8003412:	2301      	movs	r3, #1
 8003414:	4618      	mov	r0, r3
 8003416:	3708      	adds	r7, #8
 8003418:	46bd      	mov	sp, r7
 800341a:	bd80      	pop	{r7, pc}
 800341c:	20000208 	.word	0x20000208
 8003420:	20000210 	.word	0x20000210
 8003424:	2000020c 	.word	0x2000020c

08003428 <HAL_IncTick>:
 8003428:	b480      	push	{r7}
 800342a:	af00      	add	r7, sp, #0
 800342c:	4b06      	ldr	r3, [pc, #24]	; (8003448 <HAL_IncTick+0x20>)
 800342e:	781b      	ldrb	r3, [r3, #0]
 8003430:	461a      	mov	r2, r3
 8003432:	4b06      	ldr	r3, [pc, #24]	; (800344c <HAL_IncTick+0x24>)
 8003434:	681b      	ldr	r3, [r3, #0]
 8003436:	4413      	add	r3, r2
 8003438:	4a04      	ldr	r2, [pc, #16]	; (800344c <HAL_IncTick+0x24>)
 800343a:	6013      	str	r3, [r2, #0]
 800343c:	bf00      	nop
 800343e:	46bd      	mov	sp, r7
 8003440:	f85d 7b04 	ldr.w	r7, [sp], #4
 8003444:	4770      	bx	lr
 8003446:	bf00      	nop
 8003448:	20000210 	.word	0x20000210
 800344c:	2000079c 	.word	0x2000079c

08003450 <HAL_GetTick>:
 8003450:	b480      	push	{r7}
 8003452:	af00      	add	r7, sp, #0
 8003454:	4b03      	ldr	r3, [pc, #12]	; (8003464 <HAL_GetTick+0x14>)
 8003456:	681b      	ldr	r3, [r3, #0]
 8003458:	4618      	mov	r0, r3
 800345a:	46bd      	mov	sp, r7
 800345c:	f85d 7b04 	ldr.w	r7, [sp], #4
 8003460:	4770      	bx	lr
 8003462:	bf00      	nop
 8003464:	2000079c 	.word	0x2000079c

08003468 <HAL_Delay>:
 8003468:	b580      	push	{r7, lr}
 800346a:	b084      	sub	sp, #16
 800346c:	af00      	add	r7, sp, #0
 800346e:	6078      	str	r0, [r7, #4]
 8003470:	f7ff ffee 	bl	8003450 <HAL_GetTick>
 8003474:	60b8      	str	r0, [r7, #8]
 8003476:	687b      	ldr	r3, [r7, #4]
 8003478:	60fb      	str	r3, [r7, #12]
 800347a:	68fb      	ldr	r3, [r7, #12]
 800347c:	f1b3 3fff 	cmp.w	r3, #4294967295
 8003480:	d005      	beq.n	800348e <HAL_Delay+0x26>
 8003482:	4b0a      	ldr	r3, [pc, #40]	; (80034ac <HAL_Delay+0x44>)
 8003484:	781b      	ldrb	r3, [r3, #0]
 8003486:	461a      	mov	r2, r3
 8003488:	68fb      	ldr	r3, [r7, #12]
 800348a:	4413      	add	r3, r2
 800348c:	60fb      	str	r3, [r7, #12]
 800348e:	bf00      	nop
 8003490:	f7ff ffde 	bl	8003450 <HAL_GetTick>
 8003494:	4602      	mov	r2, r0
 8003496:	68bb      	ldr	r3, [r7, #8]
 8003498:	1ad3      	subs	r3, r2, r3
 800349a:	68fa      	ldr	r2, [r7, #12]
 800349c:	429a      	cmp	r2, r3
 800349e:	d8f7      	bhi.n	8003490 <HAL_Delay+0x28>
 80034a0:	bf00      	nop
 80034a2:	bf00      	nop
 80034a4:	3710      	adds	r7, #16
 80034a6:	46bd      	mov	sp, r7
 80034a8:	bd80      	pop	{r7, pc}
 80034aa:	bf00      	nop
 80034ac:	20000210 	.word	0x20000210

080034b0 <HAL_ADC_Init>:
 80034b0:	b580      	push	{r7, lr}
 80034b2:	b084      	sub	sp, #16
 80034b4:	af00      	add	r7, sp, #0
 80034b6:	6078      	str	r0, [r7, #4]
 80034b8:	2300      	movs	r3, #0
 80034ba:	73fb      	strb	r3, [r7, #15]
 80034bc:	687b      	ldr	r3, [r7, #4]
 80034be:	2b00      	cmp	r3, #0
 80034c0:	d101      	bne.n	80034c6 <HAL_ADC_Init+0x16>
 80034c2:	2301      	movs	r3, #1
 80034c4:	e033      	b.n	800352e <HAL_ADC_Init+0x7e>
 80034c6:	687b      	ldr	r3, [r7, #4]
 80034c8:	6c1b      	ldr	r3, [r3, #64]	; 0x40
 80034ca:	2b00      	cmp	r3, #0
 80034cc:	d109      	bne.n	80034e2 <HAL_ADC_Init+0x32>
 80034ce:	6878      	ldr	r0, [r7, #4]
 80034d0:	f7fd fe8c 	bl	80011ec <HAL_ADC_MspInit>
 80034d4:	687b      	ldr	r3, [r7, #4]
 80034d6:	2200      	movs	r2, #0
 80034d8:	645a      	str	r2, [r3, #68]	; 0x44
 80034da:	687b      	ldr	r3, [r7, #4]
 80034dc:	2200      	movs	r2, #0
 80034de:	f883 203c 	strb.w	r2, [r3, #60]	; 0x3c
 80034e2:	687b      	ldr	r3, [r7, #4]
 80034e4:	6c1b      	ldr	r3, [r3, #64]	; 0x40
 80034e6:	f003 0310 	and.w	r3, r3, #16
 80034ea:	2b00      	cmp	r3, #0
 80034ec:	d118      	bne.n	8003520 <HAL_ADC_Init+0x70>
 80034ee:	687b      	ldr	r3, [r7, #4]
 80034f0:	6c1b      	ldr	r3, [r3, #64]	; 0x40
 80034f2:	f423 5388 	bic.w	r3, r3, #4352	; 0x1100
 80034f6:	f023 0302 	bic.w	r3, r3, #2
 80034fa:	f043 0202 	orr.w	r2, r3, #2
 80034fe:	687b      	ldr	r3, [r7, #4]
 8003500:	641a      	str	r2, [r3, #64]	; 0x40
 8003502:	6878      	ldr	r0, [r7, #4]
 8003504:	f000 fa68 	bl	80039d8 <ADC_Init>
 8003508:	687b      	ldr	r3, [r7, #4]
 800350a:	2200      	movs	r2, #0
 800350c:	645a      	str	r2, [r3, #68]	; 0x44
 800350e:	687b      	ldr	r3, [r7, #4]
 8003510:	6c1b      	ldr	r3, [r3, #64]	; 0x40
 8003512:	f023 0303 	bic.w	r3, r3, #3
 8003516:	f043 0201 	orr.w	r2, r3, #1
 800351a:	687b      	ldr	r3, [r7, #4]
 800351c:	641a      	str	r2, [r3, #64]	; 0x40
 800351e:	e001      	b.n	8003524 <HAL_ADC_Init+0x74>
 8003520:	2301      	movs	r3, #1
 8003522:	73fb      	strb	r3, [r7, #15]
 8003524:	687b      	ldr	r3, [r7, #4]
 8003526:	2200      	movs	r2, #0
 8003528:	f883 203c 	strb.w	r2, [r3, #60]	; 0x3c
 800352c:	7bfb      	ldrb	r3, [r7, #15]
 800352e:	4618      	mov	r0, r3
 8003530:	3710      	adds	r7, #16
 8003532:	46bd      	mov	sp, r7
 8003534:	bd80      	pop	{r7, pc}
	...

08003538 <HAL_ADC_Start_DMA>:
 8003538:	b580      	push	{r7, lr}
 800353a:	b086      	sub	sp, #24
 800353c:	af00      	add	r7, sp, #0
 800353e:	60f8      	str	r0, [r7, #12]
 8003540:	60b9      	str	r1, [r7, #8]
 8003542:	607a      	str	r2, [r7, #4]
 8003544:	2300      	movs	r3, #0
 8003546:	613b      	str	r3, [r7, #16]
 8003548:	68fb      	ldr	r3, [r7, #12]
 800354a:	f893 303c 	ldrb.w	r3, [r3, #60]	; 0x3c
 800354e:	2b01      	cmp	r3, #1
 8003550:	d101      	bne.n	8003556 <HAL_ADC_Start_DMA+0x1e>
 8003552:	2302      	movs	r3, #2
 8003554:	e0e9      	b.n	800372a <HAL_ADC_Start_DMA+0x1f2>
 8003556:	68fb      	ldr	r3, [r7, #12]
 8003558:	2201      	movs	r2, #1
 800355a:	f883 203c 	strb.w	r2, [r3, #60]	; 0x3c
 800355e:	68fb      	ldr	r3, [r7, #12]
 8003560:	681b      	ldr	r3, [r3, #0]
 8003562:	689b      	ldr	r3, [r3, #8]
 8003564:	f003 0301 	and.w	r3, r3, #1
 8003568:	2b01      	cmp	r3, #1
 800356a:	d018      	beq.n	800359e <HAL_ADC_Start_DMA+0x66>
 800356c:	68fb      	ldr	r3, [r7, #12]
 800356e:	681b      	ldr	r3, [r3, #0]
 8003570:	689a      	ldr	r2, [r3, #8]
 8003572:	68fb      	ldr	r3, [r7, #12]
 8003574:	681b      	ldr	r3, [r3, #0]
 8003576:	f042 0201 	orr.w	r2, r2, #1
 800357a:	609a      	str	r2, [r3, #8]
 800357c:	4b6d      	ldr	r3, [pc, #436]	; (8003734 <HAL_ADC_Start_DMA+0x1fc>)
 800357e:	681b      	ldr	r3, [r3, #0]
 8003580:	4a6d      	ldr	r2, [pc, #436]	; (8003738 <HAL_ADC_Start_DMA+0x200>)
 8003582:	fba2 2303 	umull	r2, r3, r2, r3
 8003586:	0c9a      	lsrs	r2, r3, #18
 8003588:	4613      	mov	r3, r2
 800358a:	005b      	lsls	r3, r3, #1
 800358c:	4413      	add	r3, r2
 800358e:	613b      	str	r3, [r7, #16]
 8003590:	e002      	b.n	8003598 <HAL_ADC_Start_DMA+0x60>
 8003592:	693b      	ldr	r3, [r7, #16]
 8003594:	3b01      	subs	r3, #1
 8003596:	613b      	str	r3, [r7, #16]
 8003598:	693b      	ldr	r3, [r7, #16]
 800359a:	2b00      	cmp	r3, #0
 800359c:	d1f9      	bne.n	8003592 <HAL_ADC_Start_DMA+0x5a>
 800359e:	68fb      	ldr	r3, [r7, #12]
 80035a0:	681b      	ldr	r3, [r3, #0]
 80035a2:	689b      	ldr	r3, [r3, #8]
 80035a4:	f403 7380 	and.w	r3, r3, #256	; 0x100
 80035a8:	f5b3 7f80 	cmp.w	r3, #256	; 0x100
 80035ac:	d107      	bne.n	80035be <HAL_ADC_Start_DMA+0x86>
 80035ae:	68fb      	ldr	r3, [r7, #12]
 80035b0:	681b      	ldr	r3, [r3, #0]
 80035b2:	689a      	ldr	r2, [r3, #8]
 80035b4:	68fb      	ldr	r3, [r7, #12]
 80035b6:	681b      	ldr	r3, [r3, #0]
 80035b8:	f422 7280 	bic.w	r2, r2, #256	; 0x100
 80035bc:	609a      	str	r2, [r3, #8]
 80035be:	68fb      	ldr	r3, [r7, #12]
 80035c0:	681b      	ldr	r3, [r3, #0]
 80035c2:	689b      	ldr	r3, [r3, #8]
 80035c4:	f003 0301 	and.w	r3, r3, #1
 80035c8:	2b01      	cmp	r3, #1
 80035ca:	f040 80a1 	bne.w	8003710 <HAL_ADC_Start_DMA+0x1d8>
 80035ce:	68fb      	ldr	r3, [r7, #12]
 80035d0:	6c1b      	ldr	r3, [r3, #64]	; 0x40
 80035d2:	f423 63e0 	bic.w	r3, r3, #1792	; 0x700
 80035d6:	f023 0301 	bic.w	r3, r3, #1
 80035da:	f443 7280 	orr.w	r2, r3, #256	; 0x100
 80035de:	68fb      	ldr	r3, [r7, #12]
 80035e0:	641a      	str	r2, [r3, #64]	; 0x40
 80035e2:	68fb      	ldr	r3, [r7, #12]
 80035e4:	681b      	ldr	r3, [r3, #0]
 80035e6:	685b      	ldr	r3, [r3, #4]
 80035e8:	f403 6380 	and.w	r3, r3, #1024	; 0x400
 80035ec:	2b00      	cmp	r3, #0
 80035ee:	d007      	beq.n	8003600 <HAL_ADC_Start_DMA+0xc8>
 80035f0:	68fb      	ldr	r3, [r7, #12]
 80035f2:	6c1b      	ldr	r3, [r3, #64]	; 0x40
 80035f4:	f423 5340 	bic.w	r3, r3, #12288	; 0x3000
 80035f8:	f443 5280 	orr.w	r2, r3, #4096	; 0x1000
 80035fc:	68fb      	ldr	r3, [r7, #12]
 80035fe:	641a      	str	r2, [r3, #64]	; 0x40
 8003600:	68fb      	ldr	r3, [r7, #12]
 8003602:	6c1b      	ldr	r3, [r3, #64]	; 0x40
 8003604:	f403 5380 	and.w	r3, r3, #4096	; 0x1000
 8003608:	f5b3 5f80 	cmp.w	r3, #4096	; 0x1000
 800360c:	d106      	bne.n	800361c <HAL_ADC_Start_DMA+0xe4>
 800360e:	68fb      	ldr	r3, [r7, #12]
 8003610:	6c5b      	ldr	r3, [r3, #68]	; 0x44
 8003612:	f023 0206 	bic.w	r2, r3, #6
 8003616:	68fb      	ldr	r3, [r7, #12]
 8003618:	645a      	str	r2, [r3, #68]	; 0x44
 800361a:	e002      	b.n	8003622 <HAL_ADC_Start_DMA+0xea>
 800361c:	68fb      	ldr	r3, [r7, #12]
 800361e:	2200      	movs	r2, #0
 8003620:	645a      	str	r2, [r3, #68]	; 0x44
 8003622:	68fb      	ldr	r3, [r7, #12]
 8003624:	2200      	movs	r2, #0
 8003626:	f883 203c 	strb.w	r2, [r3, #60]	; 0x3c
 800362a:	4b44      	ldr	r3, [pc, #272]	; (800373c <HAL_ADC_Start_DMA+0x204>)
 800362c:	617b      	str	r3, [r7, #20]
 800362e:	68fb      	ldr	r3, [r7, #12]
 8003630:	6b9b      	ldr	r3, [r3, #56]	; 0x38
 8003632:	4a43      	ldr	r2, [pc, #268]	; (8003740 <HAL_ADC_Start_DMA+0x208>)
 8003634:	63da      	str	r2, [r3, #60]	; 0x3c
 8003636:	68fb      	ldr	r3, [r7, #12]
 8003638:	6b9b      	ldr	r3, [r3, #56]	; 0x38
 800363a:	4a42      	ldr	r2, [pc, #264]	; (8003744 <HAL_ADC_Start_DMA+0x20c>)
 800363c:	641a      	str	r2, [r3, #64]	; 0x40
 800363e:	68fb      	ldr	r3, [r7, #12]
 8003640:	6b9b      	ldr	r3, [r3, #56]	; 0x38
 8003642:	4a41      	ldr	r2, [pc, #260]	; (8003748 <HAL_ADC_Start_DMA+0x210>)
 8003644:	64da      	str	r2, [r3, #76]	; 0x4c
 8003646:	68fb      	ldr	r3, [r7, #12]
 8003648:	681b      	ldr	r3, [r3, #0]
 800364a:	f06f 0222 	mvn.w	r2, #34	; 0x22
 800364e:	601a      	str	r2, [r3, #0]
 8003650:	68fb      	ldr	r3, [r7, #12]
 8003652:	681b      	ldr	r3, [r3, #0]
 8003654:	685a      	ldr	r2, [r3, #4]
 8003656:	68fb      	ldr	r3, [r7, #12]
 8003658:	681b      	ldr	r3, [r3, #0]
 800365a:	f042 6280 	orr.w	r2, r2, #67108864	; 0x4000000
 800365e:	605a      	str	r2, [r3, #4]
 8003660:	68fb      	ldr	r3, [r7, #12]
 8003662:	681b      	ldr	r3, [r3, #0]
 8003664:	689a      	ldr	r2, [r3, #8]
 8003666:	68fb      	ldr	r3, [r7, #12]
 8003668:	681b      	ldr	r3, [r3, #0]
 800366a:	f442 7280 	orr.w	r2, r2, #256	; 0x100
 800366e:	609a      	str	r2, [r3, #8]
 8003670:	68fb      	ldr	r3, [r7, #12]
 8003672:	6b98      	ldr	r0, [r3, #56]	; 0x38
 8003674:	68fb      	ldr	r3, [r7, #12]
 8003676:	681b      	ldr	r3, [r3, #0]
 8003678:	334c      	adds	r3, #76	; 0x4c
 800367a:	4619      	mov	r1, r3
 800367c:	68ba      	ldr	r2, [r7, #8]
 800367e:	687b      	ldr	r3, [r7, #4]
 8003680:	f000 fce8 	bl	8004054 <HAL_DMA_Start_IT>
 8003684:	697b      	ldr	r3, [r7, #20]
 8003686:	685b      	ldr	r3, [r3, #4]
 8003688:	f003 031f 	and.w	r3, r3, #31
 800368c:	2b00      	cmp	r3, #0
 800368e:	d12a      	bne.n	80036e6 <HAL_ADC_Start_DMA+0x1ae>
 8003690:	68fb      	ldr	r3, [r7, #12]
 8003692:	681b      	ldr	r3, [r3, #0]
 8003694:	4a2d      	ldr	r2, [pc, #180]	; (800374c <HAL_ADC_Start_DMA+0x214>)
 8003696:	4293      	cmp	r3, r2
 8003698:	d015      	beq.n	80036c6 <HAL_ADC_Start_DMA+0x18e>
 800369a:	68fb      	ldr	r3, [r7, #12]
 800369c:	681b      	ldr	r3, [r3, #0]
 800369e:	4a2c      	ldr	r2, [pc, #176]	; (8003750 <HAL_ADC_Start_DMA+0x218>)
 80036a0:	4293      	cmp	r3, r2
 80036a2:	d105      	bne.n	80036b0 <HAL_ADC_Start_DMA+0x178>
 80036a4:	4b25      	ldr	r3, [pc, #148]	; (800373c <HAL_ADC_Start_DMA+0x204>)
 80036a6:	685b      	ldr	r3, [r3, #4]
 80036a8:	f003 031f 	and.w	r3, r3, #31
 80036ac:	2b00      	cmp	r3, #0
 80036ae:	d00a      	beq.n	80036c6 <HAL_ADC_Start_DMA+0x18e>
 80036b0:	68fb      	ldr	r3, [r7, #12]
 80036b2:	681b      	ldr	r3, [r3, #0]
 80036b4:	4a27      	ldr	r2, [pc, #156]	; (8003754 <HAL_ADC_Start_DMA+0x21c>)
 80036b6:	4293      	cmp	r3, r2
 80036b8:	d136      	bne.n	8003728 <HAL_ADC_Start_DMA+0x1f0>
 80036ba:	4b20      	ldr	r3, [pc, #128]	; (800373c <HAL_ADC_Start_DMA+0x204>)
 80036bc:	685b      	ldr	r3, [r3, #4]
 80036be:	f003 0310 	and.w	r3, r3, #16
 80036c2:	2b00      	cmp	r3, #0
 80036c4:	d130      	bne.n	8003728 <HAL_ADC_Start_DMA+0x1f0>
 80036c6:	68fb      	ldr	r3, [r7, #12]
 80036c8:	681b      	ldr	r3, [r3, #0]
 80036ca:	689b      	ldr	r3, [r3, #8]
 80036cc:	f003 5340 	and.w	r3, r3, #805306368	; 0x30000000
 80036d0:	2b00      	cmp	r3, #0
 80036d2:	d129      	bne.n	8003728 <HAL_ADC_Start_DMA+0x1f0>
 80036d4:	68fb      	ldr	r3, [r7, #12]
 80036d6:	681b      	ldr	r3, [r3, #0]
 80036d8:	689a      	ldr	r2, [r3, #8]
 80036da:	68fb      	ldr	r3, [r7, #12]
 80036dc:	681b      	ldr	r3, [r3, #0]
 80036de:	f042 4280 	orr.w	r2, r2, #1073741824	; 0x40000000
 80036e2:	609a      	str	r2, [r3, #8]
 80036e4:	e020      	b.n	8003728 <HAL_ADC_Start_DMA+0x1f0>
 80036e6:	68fb      	ldr	r3, [r7, #12]
 80036e8:	681b      	ldr	r3, [r3, #0]
 80036ea:	4a18      	ldr	r2, [pc, #96]	; (800374c <HAL_ADC_Start_DMA+0x214>)
 80036ec:	4293      	cmp	r3, r2
 80036ee:	d11b      	bne.n	8003728 <HAL_ADC_Start_DMA+0x1f0>
 80036f0:	68fb      	ldr	r3, [r7, #12]
 80036f2:	681b      	ldr	r3, [r3, #0]
 80036f4:	689b      	ldr	r3, [r3, #8]
 80036f6:	f003 5340 	and.w	r3, r3, #805306368	; 0x30000000
 80036fa:	2b00      	cmp	r3, #0
 80036fc:	d114      	bne.n	8003728 <HAL_ADC_Start_DMA+0x1f0>
 80036fe:	68fb      	ldr	r3, [r7, #12]
 8003700:	681b      	ldr	r3, [r3, #0]
 8003702:	689a      	ldr	r2, [r3, #8]
 8003704:	68fb      	ldr	r3, [r7, #12]
 8003706:	681b      	ldr	r3, [r3, #0]
 8003708:	f042 4280 	orr.w	r2, r2, #1073741824	; 0x40000000
 800370c:	609a      	str	r2, [r3, #8]
 800370e:	e00b      	b.n	8003728 <HAL_ADC_Start_DMA+0x1f0>
 8003710:	68fb      	ldr	r3, [r7, #12]
 8003712:	6c1b      	ldr	r3, [r3, #64]	; 0x40
 8003714:	f043 0210 	orr.w	r2, r3, #16
 8003718:	68fb      	ldr	r3, [r7, #12]
 800371a:	641a      	str	r2, [r3, #64]	; 0x40
 800371c:	68fb      	ldr	r3, [r7, #12]
 800371e:	6c5b      	ldr	r3, [r3, #68]	; 0x44
 8003720:	f043 0201 	orr.w	r2, r3, #1
 8003724:	68fb      	ldr	r3, [r7, #12]
 8003726:	645a      	str	r2, [r3, #68]	; 0x44
 8003728:	2300      	movs	r3, #0
 800372a:	4618      	mov	r0, r3
 800372c:	3718      	adds	r7, #24
 800372e:	46bd      	mov	sp, r7
 8003730:	bd80      	pop	{r7, pc}
 8003732:	bf00      	nop
 8003734:	20000208 	.word	0x20000208
 8003738:	431bde83 	.word	0x431bde83
 800373c:	40012300 	.word	0x40012300
 8003740:	08003bd1 	.word	0x08003bd1
 8003744:	08003c8b 	.word	0x08003c8b
 8003748:	08003ca7 	.word	0x08003ca7
 800374c:	40012000 	.word	0x40012000
 8003750:	40012100 	.word	0x40012100
 8003754:	40012200 	.word	0x40012200

08003758 <HAL_ADC_ConvCpltCallback>:
 8003758:	b480      	push	{r7}
 800375a:	b083      	sub	sp, #12
 800375c:	af00      	add	r7, sp, #0
 800375e:	6078      	str	r0, [r7, #4]
 8003760:	bf00      	nop
 8003762:	370c      	adds	r7, #12
 8003764:	46bd      	mov	sp, r7
 8003766:	f85d 7b04 	ldr.w	r7, [sp], #4
 800376a:	4770      	bx	lr

0800376c <HAL_ADC_ConvHalfCpltCallback>:
 800376c:	b480      	push	{r7}
 800376e:	b083      	sub	sp, #12
 8003770:	af00      	add	r7, sp, #0
 8003772:	6078      	str	r0, [r7, #4]
 8003774:	bf00      	nop
 8003776:	370c      	adds	r7, #12
 8003778:	46bd      	mov	sp, r7
 800377a:	f85d 7b04 	ldr.w	r7, [sp], #4
 800377e:	4770      	bx	lr

08003780 <HAL_ADC_ErrorCallback>:
 8003780:	b480      	push	{r7}
 8003782:	b083      	sub	sp, #12
 8003784:	af00      	add	r7, sp, #0
 8003786:	6078      	str	r0, [r7, #4]
 8003788:	bf00      	nop
 800378a:	370c      	adds	r7, #12
 800378c:	46bd      	mov	sp, r7
 800378e:	f85d 7b04 	ldr.w	r7, [sp], #4
 8003792:	4770      	bx	lr

08003794 <HAL_ADC_ConfigChannel>:
 8003794:	b480      	push	{r7}
 8003796:	b085      	sub	sp, #20
 8003798:	af00      	add	r7, sp, #0
 800379a:	6078      	str	r0, [r7, #4]
 800379c:	6039      	str	r1, [r7, #0]
 800379e:	2300      	movs	r3, #0
 80037a0:	60bb      	str	r3, [r7, #8]
 80037a2:	687b      	ldr	r3, [r7, #4]
 80037a4:	f893 303c 	ldrb.w	r3, [r3, #60]	; 0x3c
 80037a8:	2b01      	cmp	r3, #1
 80037aa:	d101      	bne.n	80037b0 <HAL_ADC_ConfigChannel+0x1c>
 80037ac:	2302      	movs	r3, #2
 80037ae:	e105      	b.n	80039bc <HAL_ADC_ConfigChannel+0x228>
 80037b0:	687b      	ldr	r3, [r7, #4]
 80037b2:	2201      	movs	r2, #1
 80037b4:	f883 203c 	strb.w	r2, [r3, #60]	; 0x3c
 80037b8:	683b      	ldr	r3, [r7, #0]
 80037ba:	681b      	ldr	r3, [r3, #0]
 80037bc:	2b09      	cmp	r3, #9
 80037be:	d925      	bls.n	800380c <HAL_ADC_ConfigChannel+0x78>
 80037c0:	687b      	ldr	r3, [r7, #4]
 80037c2:	681b      	ldr	r3, [r3, #0]
 80037c4:	68d9      	ldr	r1, [r3, #12]
 80037c6:	683b      	ldr	r3, [r7, #0]
 80037c8:	681b      	ldr	r3, [r3, #0]
 80037ca:	b29b      	uxth	r3, r3
 80037cc:	461a      	mov	r2, r3
 80037ce:	4613      	mov	r3, r2
 80037d0:	005b      	lsls	r3, r3, #1
 80037d2:	4413      	add	r3, r2
 80037d4:	3b1e      	subs	r3, #30
 80037d6:	2207      	movs	r2, #7
 80037d8:	fa02 f303 	lsl.w	r3, r2, r3
 80037dc:	43da      	mvns	r2, r3
 80037de:	687b      	ldr	r3, [r7, #4]
 80037e0:	681b      	ldr	r3, [r3, #0]
 80037e2:	400a      	ands	r2, r1
 80037e4:	60da      	str	r2, [r3, #12]
 80037e6:	687b      	ldr	r3, [r7, #4]
 80037e8:	681b      	ldr	r3, [r3, #0]
 80037ea:	68d9      	ldr	r1, [r3, #12]
 80037ec:	683b      	ldr	r3, [r7, #0]
 80037ee:	689a      	ldr	r2, [r3, #8]
 80037f0:	683b      	ldr	r3, [r7, #0]
 80037f2:	681b      	ldr	r3, [r3, #0]
 80037f4:	b29b      	uxth	r3, r3
 80037f6:	4618      	mov	r0, r3
 80037f8:	4603      	mov	r3, r0
 80037fa:	005b      	lsls	r3, r3, #1
 80037fc:	4403      	add	r3, r0
 80037fe:	3b1e      	subs	r3, #30
 8003800:	409a      	lsls	r2, r3
 8003802:	687b      	ldr	r3, [r7, #4]
 8003804:	681b      	ldr	r3, [r3, #0]
 8003806:	430a      	orrs	r2, r1
 8003808:	60da      	str	r2, [r3, #12]
 800380a:	e022      	b.n	8003852 <HAL_ADC_ConfigChannel+0xbe>
 800380c:	687b      	ldr	r3, [r7, #4]
 800380e:	681b      	ldr	r3, [r3, #0]
 8003810:	6919      	ldr	r1, [r3, #16]
 8003812:	683b      	ldr	r3, [r7, #0]
 8003814:	681b      	ldr	r3, [r3, #0]
 8003816:	b29b      	uxth	r3, r3
 8003818:	461a      	mov	r2, r3
 800381a:	4613      	mov	r3, r2
 800381c:	005b      	lsls	r3, r3, #1
 800381e:	4413      	add	r3, r2
 8003820:	2207      	movs	r2, #7
 8003822:	fa02 f303 	lsl.w	r3, r2, r3
 8003826:	43da      	mvns	r2, r3
 8003828:	687b      	ldr	r3, [r7, #4]
 800382a:	681b      	ldr	r3, [r3, #0]
 800382c:	400a      	ands	r2, r1
 800382e:	611a      	str	r2, [r3, #16]
 8003830:	687b      	ldr	r3, [r7, #4]
 8003832:	681b      	ldr	r3, [r3, #0]
 8003834:	6919      	ldr	r1, [r3, #16]
 8003836:	683b      	ldr	r3, [r7, #0]
 8003838:	689a      	ldr	r2, [r3, #8]
 800383a:	683b      	ldr	r3, [r7, #0]
 800383c:	681b      	ldr	r3, [r3, #0]
 800383e:	b29b      	uxth	r3, r3
 8003840:	4618      	mov	r0, r3
 8003842:	4603      	mov	r3, r0
 8003844:	005b      	lsls	r3, r3, #1
 8003846:	4403      	add	r3, r0
 8003848:	409a      	lsls	r2, r3
 800384a:	687b      	ldr	r3, [r7, #4]
 800384c:	681b      	ldr	r3, [r3, #0]
 800384e:	430a      	orrs	r2, r1
 8003850:	611a      	str	r2, [r3, #16]
 8003852:	683b      	ldr	r3, [r7, #0]
 8003854:	685b      	ldr	r3, [r3, #4]
 8003856:	2b06      	cmp	r3, #6
 8003858:	d824      	bhi.n	80038a4 <HAL_ADC_ConfigChannel+0x110>
 800385a:	687b      	ldr	r3, [r7, #4]
 800385c:	681b      	ldr	r3, [r3, #0]
 800385e:	6b59      	ldr	r1, [r3, #52]	; 0x34
 8003860:	683b      	ldr	r3, [r7, #0]
 8003862:	685a      	ldr	r2, [r3, #4]
 8003864:	4613      	mov	r3, r2
 8003866:	009b      	lsls	r3, r3, #2
 8003868:	4413      	add	r3, r2
 800386a:	3b05      	subs	r3, #5
 800386c:	221f      	movs	r2, #31
 800386e:	fa02 f303 	lsl.w	r3, r2, r3
 8003872:	43da      	mvns	r2, r3
 8003874:	687b      	ldr	r3, [r7, #4]
 8003876:	681b      	ldr	r3, [r3, #0]
 8003878:	400a      	ands	r2, r1
 800387a:	635a      	str	r2, [r3, #52]	; 0x34
 800387c:	687b      	ldr	r3, [r7, #4]
 800387e:	681b      	ldr	r3, [r3, #0]
 8003880:	6b59      	ldr	r1, [r3, #52]	; 0x34
 8003882:	683b      	ldr	r3, [r7, #0]
 8003884:	681b      	ldr	r3, [r3, #0]
 8003886:	b29b      	uxth	r3, r3
 8003888:	4618      	mov	r0, r3
 800388a:	683b      	ldr	r3, [r7, #0]
 800388c:	685a      	ldr	r2, [r3, #4]
 800388e:	4613      	mov	r3, r2
 8003890:	009b      	lsls	r3, r3, #2
 8003892:	4413      	add	r3, r2
 8003894:	3b05      	subs	r3, #5
 8003896:	fa00 f203 	lsl.w	r2, r0, r3
 800389a:	687b      	ldr	r3, [r7, #4]
 800389c:	681b      	ldr	r3, [r3, #0]
 800389e:	430a      	orrs	r2, r1
 80038a0:	635a      	str	r2, [r3, #52]	; 0x34
 80038a2:	e04c      	b.n	800393e <HAL_ADC_ConfigChannel+0x1aa>
 80038a4:	683b      	ldr	r3, [r7, #0]
 80038a6:	685b      	ldr	r3, [r3, #4]
 80038a8:	2b0c      	cmp	r3, #12
 80038aa:	d824      	bhi.n	80038f6 <HAL_ADC_ConfigChannel+0x162>
 80038ac:	687b      	ldr	r3, [r7, #4]
 80038ae:	681b      	ldr	r3, [r3, #0]
 80038b0:	6b19      	ldr	r1, [r3, #48]	; 0x30
 80038b2:	683b      	ldr	r3, [r7, #0]
 80038b4:	685a      	ldr	r2, [r3, #4]
 80038b6:	4613      	mov	r3, r2
 80038b8:	009b      	lsls	r3, r3, #2
 80038ba:	4413      	add	r3, r2
 80038bc:	3b23      	subs	r3, #35	; 0x23
 80038be:	221f      	movs	r2, #31
 80038c0:	fa02 f303 	lsl.w	r3, r2, r3
 80038c4:	43da      	mvns	r2, r3
 80038c6:	687b      	ldr	r3, [r7, #4]
 80038c8:	681b      	ldr	r3, [r3, #0]
 80038ca:	400a      	ands	r2, r1
 80038cc:	631a      	str	r2, [r3, #48]	; 0x30
 80038ce:	687b      	ldr	r3, [r7, #4]
 80038d0:	681b      	ldr	r3, [r3, #0]
 80038d2:	6b19      	ldr	r1, [r3, #48]	; 0x30
 80038d4:	683b      	ldr	r3, [r7, #0]
 80038d6:	681b      	ldr	r3, [r3, #0]
 80038d8:	b29b      	uxth	r3, r3
 80038da:	4618      	mov	r0, r3
 80038dc:	683b      	ldr	r3, [r7, #0]
 80038de:	685a      	ldr	r2, [r3, #4]
 80038e0:	4613      	mov	r3, r2
 80038e2:	009b      	lsls	r3, r3, #2
 80038e4:	4413      	add	r3, r2
 80038e6:	3b23      	subs	r3, #35	; 0x23
 80038e8:	fa00 f203 	lsl.w	r2, r0, r3
 80038ec:	687b      	ldr	r3, [r7, #4]
 80038ee:	681b      	ldr	r3, [r3, #0]
 80038f0:	430a      	orrs	r2, r1
 80038f2:	631a      	str	r2, [r3, #48]	; 0x30
 80038f4:	e023      	b.n	800393e <HAL_ADC_ConfigChannel+0x1aa>
 80038f6:	687b      	ldr	r3, [r7, #4]
 80038f8:	681b      	ldr	r3, [r3, #0]
 80038fa:	6ad9      	ldr	r1, [r3, #44]	; 0x2c
 80038fc:	683b      	ldr	r3, [r7, #0]
 80038fe:	685a      	ldr	r2, [r3, #4]
 8003900:	4613      	mov	r3, r2
 8003902:	009b      	lsls	r3, r3, #2
 8003904:	4413      	add	r3, r2
 8003906:	3b41      	subs	r3, #65	; 0x41
 8003908:	221f      	movs	r2, #31
 800390a:	fa02 f303 	lsl.w	r3, r2, r3
 800390e:	43da      	mvns	r2, r3
 8003910:	687b      	ldr	r3, [r7, #4]
 8003912:	681b      	ldr	r3, [r3, #0]
 8003914:	400a      	ands	r2, r1
 8003916:	62da      	str	r2, [r3, #44]	; 0x2c
 8003918:	687b      	ldr	r3, [r7, #4]
 800391a:	681b      	ldr	r3, [r3, #0]
 800391c:	6ad9      	ldr	r1, [r3, #44]	; 0x2c
 800391e:	683b      	ldr	r3, [r7, #0]
 8003920:	681b      	ldr	r3, [r3, #0]
 8003922:	b29b      	uxth	r3, r3
 8003924:	4618      	mov	r0, r3
 8003926:	683b      	ldr	r3, [r7, #0]
 8003928:	685a      	ldr	r2, [r3, #4]
 800392a:	4613      	mov	r3, r2
 800392c:	009b      	lsls	r3, r3, #2
 800392e:	4413      	add	r3, r2
 8003930:	3b41      	subs	r3, #65	; 0x41
 8003932:	fa00 f203 	lsl.w	r2, r0, r3
 8003936:	687b      	ldr	r3, [r7, #4]
 8003938:	681b      	ldr	r3, [r3, #0]
 800393a:	430a      	orrs	r2, r1
 800393c:	62da      	str	r2, [r3, #44]	; 0x2c
 800393e:	4b22      	ldr	r3, [pc, #136]	; (80039c8 <HAL_ADC_ConfigChannel+0x234>)
 8003940:	60fb      	str	r3, [r7, #12]
 8003942:	687b      	ldr	r3, [r7, #4]
 8003944:	681b      	ldr	r3, [r3, #0]
 8003946:	4a21      	ldr	r2, [pc, #132]	; (80039cc <HAL_ADC_ConfigChannel+0x238>)
 8003948:	4293      	cmp	r3, r2
 800394a:	d109      	bne.n	8003960 <HAL_ADC_ConfigChannel+0x1cc>
 800394c:	683b      	ldr	r3, [r7, #0]
 800394e:	681b      	ldr	r3, [r3, #0]
 8003950:	2b12      	cmp	r3, #18
 8003952:	d105      	bne.n	8003960 <HAL_ADC_ConfigChannel+0x1cc>
 8003954:	68fb      	ldr	r3, [r7, #12]
 8003956:	685b      	ldr	r3, [r3, #4]
 8003958:	f443 0280 	orr.w	r2, r3, #4194304	; 0x400000
 800395c:	68fb      	ldr	r3, [r7, #12]
 800395e:	605a      	str	r2, [r3, #4]
 8003960:	687b      	ldr	r3, [r7, #4]
 8003962:	681b      	ldr	r3, [r3, #0]
 8003964:	4a19      	ldr	r2, [pc, #100]	; (80039cc <HAL_ADC_ConfigChannel+0x238>)
 8003966:	4293      	cmp	r3, r2
 8003968:	d123      	bne.n	80039b2 <HAL_ADC_ConfigChannel+0x21e>
 800396a:	683b      	ldr	r3, [r7, #0]
 800396c:	681b      	ldr	r3, [r3, #0]
 800396e:	2b10      	cmp	r3, #16
 8003970:	d003      	beq.n	800397a <HAL_ADC_ConfigChannel+0x1e6>
 8003972:	683b      	ldr	r3, [r7, #0]
 8003974:	681b      	ldr	r3, [r3, #0]
 8003976:	2b11      	cmp	r3, #17
 8003978:	d11b      	bne.n	80039b2 <HAL_ADC_ConfigChannel+0x21e>
 800397a:	68fb      	ldr	r3, [r7, #12]
 800397c:	685b      	ldr	r3, [r3, #4]
 800397e:	f443 0200 	orr.w	r2, r3, #8388608	; 0x800000
 8003982:	68fb      	ldr	r3, [r7, #12]
 8003984:	605a      	str	r2, [r3, #4]
 8003986:	683b      	ldr	r3, [r7, #0]
 8003988:	681b      	ldr	r3, [r3, #0]
 800398a:	2b10      	cmp	r3, #16
 800398c:	d111      	bne.n	80039b2 <HAL_ADC_ConfigChannel+0x21e>
 800398e:	4b10      	ldr	r3, [pc, #64]	; (80039d0 <HAL_ADC_ConfigChannel+0x23c>)
 8003990:	681b      	ldr	r3, [r3, #0]
 8003992:	4a10      	ldr	r2, [pc, #64]	; (80039d4 <HAL_ADC_ConfigChannel+0x240>)
 8003994:	fba2 2303 	umull	r2, r3, r2, r3
 8003998:	0c9a      	lsrs	r2, r3, #18
 800399a:	4613      	mov	r3, r2
 800399c:	009b      	lsls	r3, r3, #2
 800399e:	4413      	add	r3, r2
 80039a0:	005b      	lsls	r3, r3, #1
 80039a2:	60bb      	str	r3, [r7, #8]
 80039a4:	e002      	b.n	80039ac <HAL_ADC_ConfigChannel+0x218>
 80039a6:	68bb      	ldr	r3, [r7, #8]
 80039a8:	3b01      	subs	r3, #1
 80039aa:	60bb      	str	r3, [r7, #8]
 80039ac:	68bb      	ldr	r3, [r7, #8]
 80039ae:	2b00      	cmp	r3, #0
 80039b0:	d1f9      	bne.n	80039a6 <HAL_ADC_ConfigChannel+0x212>
 80039b2:	687b      	ldr	r3, [r7, #4]
 80039b4:	2200      	movs	r2, #0
 80039b6:	f883 203c 	strb.w	r2, [r3, #60]	; 0x3c
 80039ba:	2300      	movs	r3, #0
 80039bc:	4618      	mov	r0, r3
 80039be:	3714      	adds	r7, #20
 80039c0:	46bd      	mov	sp, r7
 80039c2:	f85d 7b04 	ldr.w	r7, [sp], #4
 80039c6:	4770      	bx	lr
 80039c8:	40012300 	.word	0x40012300
 80039cc:	40012000 	.word	0x40012000
 80039d0:	20000208 	.word	0x20000208
 80039d4:	431bde83 	.word	0x431bde83

080039d8 <ADC_Init>:
 80039d8:	b480      	push	{r7}
 80039da:	b085      	sub	sp, #20
 80039dc:	af00      	add	r7, sp, #0
 80039de:	6078      	str	r0, [r7, #4]
 80039e0:	4b79      	ldr	r3, [pc, #484]	; (8003bc8 <ADC_Init+0x1f0>)
 80039e2:	60fb      	str	r3, [r7, #12]
 80039e4:	68fb      	ldr	r3, [r7, #12]
 80039e6:	685b      	ldr	r3, [r3, #4]
 80039e8:	f423 3240 	bic.w	r2, r3, #196608	; 0x30000
 80039ec:	68fb      	ldr	r3, [r7, #12]
 80039ee:	605a      	str	r2, [r3, #4]
 80039f0:	68fb      	ldr	r3, [r7, #12]
 80039f2:	685a      	ldr	r2, [r3, #4]
 80039f4:	687b      	ldr	r3, [r7, #4]
 80039f6:	685b      	ldr	r3, [r3, #4]
 80039f8:	431a      	orrs	r2, r3
 80039fa:	68fb      	ldr	r3, [r7, #12]
 80039fc:	605a      	str	r2, [r3, #4]
 80039fe:	687b      	ldr	r3, [r7, #4]
 8003a00:	681b      	ldr	r3, [r3, #0]
 8003a02:	685a      	ldr	r2, [r3, #4]
 8003a04:	687b      	ldr	r3, [r7, #4]
 8003a06:	681b      	ldr	r3, [r3, #0]
 8003a08:	f422 7280 	bic.w	r2, r2, #256	; 0x100
 8003a0c:	605a      	str	r2, [r3, #4]
 8003a0e:	687b      	ldr	r3, [r7, #4]
 8003a10:	681b      	ldr	r3, [r3, #0]
 8003a12:	6859      	ldr	r1, [r3, #4]
 8003a14:	687b      	ldr	r3, [r7, #4]
 8003a16:	691b      	ldr	r3, [r3, #16]
 8003a18:	021a      	lsls	r2, r3, #8
 8003a1a:	687b      	ldr	r3, [r7, #4]
 8003a1c:	681b      	ldr	r3, [r3, #0]
 8003a1e:	430a      	orrs	r2, r1
 8003a20:	605a      	str	r2, [r3, #4]
 8003a22:	687b      	ldr	r3, [r7, #4]
 8003a24:	681b      	ldr	r3, [r3, #0]
 8003a26:	685a      	ldr	r2, [r3, #4]
 8003a28:	687b      	ldr	r3, [r7, #4]
 8003a2a:	681b      	ldr	r3, [r3, #0]
 8003a2c:	f022 7240 	bic.w	r2, r2, #50331648	; 0x3000000
 8003a30:	605a      	str	r2, [r3, #4]
 8003a32:	687b      	ldr	r3, [r7, #4]
 8003a34:	681b      	ldr	r3, [r3, #0]
 8003a36:	6859      	ldr	r1, [r3, #4]
 8003a38:	687b      	ldr	r3, [r7, #4]
 8003a3a:	689a      	ldr	r2, [r3, #8]
 8003a3c:	687b      	ldr	r3, [r7, #4]
 8003a3e:	681b      	ldr	r3, [r3, #0]
 8003a40:	430a      	orrs	r2, r1
 8003a42:	605a      	str	r2, [r3, #4]
 8003a44:	687b      	ldr	r3, [r7, #4]
 8003a46:	681b      	ldr	r3, [r3, #0]
 8003a48:	689a      	ldr	r2, [r3, #8]
 8003a4a:	687b      	ldr	r3, [r7, #4]
 8003a4c:	681b      	ldr	r3, [r3, #0]
 8003a4e:	f422 6200 	bic.w	r2, r2, #2048	; 0x800
 8003a52:	609a      	str	r2, [r3, #8]
 8003a54:	687b      	ldr	r3, [r7, #4]
 8003a56:	681b      	ldr	r3, [r3, #0]
 8003a58:	6899      	ldr	r1, [r3, #8]
 8003a5a:	687b      	ldr	r3, [r7, #4]
 8003a5c:	68da      	ldr	r2, [r3, #12]
 8003a5e:	687b      	ldr	r3, [r7, #4]
 8003a60:	681b      	ldr	r3, [r3, #0]
 8003a62:	430a      	orrs	r2, r1
 8003a64:	609a      	str	r2, [r3, #8]
 8003a66:	687b      	ldr	r3, [r7, #4]
 8003a68:	6a9b      	ldr	r3, [r3, #40]	; 0x28
 8003a6a:	4a58      	ldr	r2, [pc, #352]	; (8003bcc <ADC_Init+0x1f4>)
 8003a6c:	4293      	cmp	r3, r2
 8003a6e:	d022      	beq.n	8003ab6 <ADC_Init+0xde>
 8003a70:	687b      	ldr	r3, [r7, #4]
 8003a72:	681b      	ldr	r3, [r3, #0]
 8003a74:	689a      	ldr	r2, [r3, #8]
 8003a76:	687b      	ldr	r3, [r7, #4]
 8003a78:	681b      	ldr	r3, [r3, #0]
 8003a7a:	f022 6270 	bic.w	r2, r2, #251658240	; 0xf000000
 8003a7e:	609a      	str	r2, [r3, #8]
 8003a80:	687b      	ldr	r3, [r7, #4]
 8003a82:	681b      	ldr	r3, [r3, #0]
 8003a84:	6899      	ldr	r1, [r3, #8]
 8003a86:	687b      	ldr	r3, [r7, #4]
 8003a88:	6a9a      	ldr	r2, [r3, #40]	; 0x28
 8003a8a:	687b      	ldr	r3, [r7, #4]
 8003a8c:	681b      	ldr	r3, [r3, #0]
 8003a8e:	430a      	orrs	r2, r1
 8003a90:	609a      	str	r2, [r3, #8]
 8003a92:	687b      	ldr	r3, [r7, #4]
 8003a94:	681b      	ldr	r3, [r3, #0]
 8003a96:	689a      	ldr	r2, [r3, #8]
 8003a98:	687b      	ldr	r3, [r7, #4]
 8003a9a:	681b      	ldr	r3, [r3, #0]
 8003a9c:	f022 5240 	bic.w	r2, r2, #805306368	; 0x30000000
 8003aa0:	609a      	str	r2, [r3, #8]
 8003aa2:	687b      	ldr	r3, [r7, #4]
 8003aa4:	681b      	ldr	r3, [r3, #0]
 8003aa6:	6899      	ldr	r1, [r3, #8]
 8003aa8:	687b      	ldr	r3, [r7, #4]
 8003aaa:	6ada      	ldr	r2, [r3, #44]	; 0x2c
 8003aac:	687b      	ldr	r3, [r7, #4]
 8003aae:	681b      	ldr	r3, [r3, #0]
 8003ab0:	430a      	orrs	r2, r1
 8003ab2:	609a      	str	r2, [r3, #8]
 8003ab4:	e00f      	b.n	8003ad6 <ADC_Init+0xfe>
 8003ab6:	687b      	ldr	r3, [r7, #4]
 8003ab8:	681b      	ldr	r3, [r3, #0]
 8003aba:	689a      	ldr	r2, [r3, #8]
 8003abc:	687b      	ldr	r3, [r7, #4]
 8003abe:	681b      	ldr	r3, [r3, #0]
 8003ac0:	f022 6270 	bic.w	r2, r2, #251658240	; 0xf000000
 8003ac4:	609a      	str	r2, [r3, #8]
 8003ac6:	687b      	ldr	r3, [r7, #4]
 8003ac8:	681b      	ldr	r3, [r3, #0]
 8003aca:	689a      	ldr	r2, [r3, #8]
 8003acc:	687b      	ldr	r3, [r7, #4]
 8003ace:	681b      	ldr	r3, [r3, #0]
 8003ad0:	f022 5240 	bic.w	r2, r2, #805306368	; 0x30000000
 8003ad4:	609a      	str	r2, [r3, #8]
 8003ad6:	687b      	ldr	r3, [r7, #4]
 8003ad8:	681b      	ldr	r3, [r3, #0]
 8003ada:	689a      	ldr	r2, [r3, #8]
 8003adc:	687b      	ldr	r3, [r7, #4]
 8003ade:	681b      	ldr	r3, [r3, #0]
 8003ae0:	f022 0202 	bic.w	r2, r2, #2
 8003ae4:	609a      	str	r2, [r3, #8]
 8003ae6:	687b      	ldr	r3, [r7, #4]
 8003ae8:	681b      	ldr	r3, [r3, #0]
 8003aea:	6899      	ldr	r1, [r3, #8]
 8003aec:	687b      	ldr	r3, [r7, #4]
 8003aee:	7e1b      	ldrb	r3, [r3, #24]
 8003af0:	005a      	lsls	r2, r3, #1
 8003af2:	687b      	ldr	r3, [r7, #4]
 8003af4:	681b      	ldr	r3, [r3, #0]
 8003af6:	430a      	orrs	r2, r1
 8003af8:	609a      	str	r2, [r3, #8]
 8003afa:	687b      	ldr	r3, [r7, #4]
 8003afc:	f893 3020 	ldrb.w	r3, [r3, #32]
 8003b00:	2b00      	cmp	r3, #0
 8003b02:	d01b      	beq.n	8003b3c <ADC_Init+0x164>
 8003b04:	687b      	ldr	r3, [r7, #4]
 8003b06:	681b      	ldr	r3, [r3, #0]
 8003b08:	685a      	ldr	r2, [r3, #4]
 8003b0a:	687b      	ldr	r3, [r7, #4]
 8003b0c:	681b      	ldr	r3, [r3, #0]
 8003b0e:	f442 6200 	orr.w	r2, r2, #2048	; 0x800
 8003b12:	605a      	str	r2, [r3, #4]
 8003b14:	687b      	ldr	r3, [r7, #4]
 8003b16:	681b      	ldr	r3, [r3, #0]
 8003b18:	685a      	ldr	r2, [r3, #4]
 8003b1a:	687b      	ldr	r3, [r7, #4]
 8003b1c:	681b      	ldr	r3, [r3, #0]
 8003b1e:	f422 4260 	bic.w	r2, r2, #57344	; 0xe000
 8003b22:	605a      	str	r2, [r3, #4]
 8003b24:	687b      	ldr	r3, [r7, #4]
 8003b26:	681b      	ldr	r3, [r3, #0]
 8003b28:	6859      	ldr	r1, [r3, #4]
 8003b2a:	687b      	ldr	r3, [r7, #4]
 8003b2c:	6a5b      	ldr	r3, [r3, #36]	; 0x24
 8003b2e:	3b01      	subs	r3, #1
 8003b30:	035a      	lsls	r2, r3, #13
 8003b32:	687b      	ldr	r3, [r7, #4]
 8003b34:	681b      	ldr	r3, [r3, #0]
 8003b36:	430a      	orrs	r2, r1
 8003b38:	605a      	str	r2, [r3, #4]
 8003b3a:	e007      	b.n	8003b4c <ADC_Init+0x174>
 8003b3c:	687b      	ldr	r3, [r7, #4]
 8003b3e:	681b      	ldr	r3, [r3, #0]
 8003b40:	685a      	ldr	r2, [r3, #4]
 8003b42:	687b      	ldr	r3, [r7, #4]
 8003b44:	681b      	ldr	r3, [r3, #0]
 8003b46:	f422 6200 	bic.w	r2, r2, #2048	; 0x800
 8003b4a:	605a      	str	r2, [r3, #4]
 8003b4c:	687b      	ldr	r3, [r7, #4]
 8003b4e:	681b      	ldr	r3, [r3, #0]
 8003b50:	6ada      	ldr	r2, [r3, #44]	; 0x2c
 8003b52:	687b      	ldr	r3, [r7, #4]
 8003b54:	681b      	ldr	r3, [r3, #0]
 8003b56:	f422 0270 	bic.w	r2, r2, #15728640	; 0xf00000
 8003b5a:	62da      	str	r2, [r3, #44]	; 0x2c
 8003b5c:	687b      	ldr	r3, [r7, #4]
 8003b5e:	681b      	ldr	r3, [r3, #0]
 8003b60:	6ad9      	ldr	r1, [r3, #44]	; 0x2c
 8003b62:	687b      	ldr	r3, [r7, #4]
 8003b64:	69db      	ldr	r3, [r3, #28]
 8003b66:	3b01      	subs	r3, #1
 8003b68:	051a      	lsls	r2, r3, #20
 8003b6a:	687b      	ldr	r3, [r7, #4]
 8003b6c:	681b      	ldr	r3, [r3, #0]
 8003b6e:	430a      	orrs	r2, r1
 8003b70:	62da      	str	r2, [r3, #44]	; 0x2c
 8003b72:	687b      	ldr	r3, [r7, #4]
 8003b74:	681b      	ldr	r3, [r3, #0]
 8003b76:	689a      	ldr	r2, [r3, #8]
 8003b78:	687b      	ldr	r3, [r7, #4]
 8003b7a:	681b      	ldr	r3, [r3, #0]
 8003b7c:	f422 7200 	bic.w	r2, r2, #512	; 0x200
 8003b80:	609a      	str	r2, [r3, #8]
 8003b82:	687b      	ldr	r3, [r7, #4]
 8003b84:	681b      	ldr	r3, [r3, #0]
 8003b86:	6899      	ldr	r1, [r3, #8]
 8003b88:	687b      	ldr	r3, [r7, #4]
 8003b8a:	f893 3030 	ldrb.w	r3, [r3, #48]	; 0x30
 8003b8e:	025a      	lsls	r2, r3, #9
 8003b90:	687b      	ldr	r3, [r7, #4]
 8003b92:	681b      	ldr	r3, [r3, #0]
 8003b94:	430a      	orrs	r2, r1
 8003b96:	609a      	str	r2, [r3, #8]
 8003b98:	687b      	ldr	r3, [r7, #4]
 8003b9a:	681b      	ldr	r3, [r3, #0]
 8003b9c:	689a      	ldr	r2, [r3, #8]
 8003b9e:	687b      	ldr	r3, [r7, #4]
 8003ba0:	681b      	ldr	r3, [r3, #0]
 8003ba2:	f422 6280 	bic.w	r2, r2, #1024	; 0x400
 8003ba6:	609a      	str	r2, [r3, #8]
 8003ba8:	687b      	ldr	r3, [r7, #4]
 8003baa:	681b      	ldr	r3, [r3, #0]
 8003bac:	6899      	ldr	r1, [r3, #8]
 8003bae:	687b      	ldr	r3, [r7, #4]
 8003bb0:	695b      	ldr	r3, [r3, #20]
 8003bb2:	029a      	lsls	r2, r3, #10
 8003bb4:	687b      	ldr	r3, [r7, #4]
 8003bb6:	681b      	ldr	r3, [r3, #0]
 8003bb8:	430a      	orrs	r2, r1
 8003bba:	609a      	str	r2, [r3, #8]
 8003bbc:	bf00      	nop
 8003bbe:	3714      	adds	r7, #20
 8003bc0:	46bd      	mov	sp, r7
 8003bc2:	f85d 7b04 	ldr.w	r7, [sp], #4
 8003bc6:	4770      	bx	lr
 8003bc8:	40012300 	.word	0x40012300
 8003bcc:	0f000001 	.word	0x0f000001

08003bd0 <ADC_DMAConvCplt>:
 8003bd0:	b580      	push	{r7, lr}
 8003bd2:	b084      	sub	sp, #16
 8003bd4:	af00      	add	r7, sp, #0
 8003bd6:	6078      	str	r0, [r7, #4]
 8003bd8:	687b      	ldr	r3, [r7, #4]
 8003bda:	6b9b      	ldr	r3, [r3, #56]	; 0x38
 8003bdc:	60fb      	str	r3, [r7, #12]
 8003bde:	68fb      	ldr	r3, [r7, #12]
 8003be0:	6c1b      	ldr	r3, [r3, #64]	; 0x40
 8003be2:	f003 0350 	and.w	r3, r3, #80	; 0x50
 8003be6:	2b00      	cmp	r3, #0
 8003be8:	d13c      	bne.n	8003c64 <ADC_DMAConvCplt+0x94>
 8003bea:	68fb      	ldr	r3, [r7, #12]
 8003bec:	6c1b      	ldr	r3, [r3, #64]	; 0x40
 8003bee:	f443 7200 	orr.w	r2, r3, #512	; 0x200
 8003bf2:	68fb      	ldr	r3, [r7, #12]
 8003bf4:	641a      	str	r2, [r3, #64]	; 0x40
 8003bf6:	68fb      	ldr	r3, [r7, #12]
 8003bf8:	681b      	ldr	r3, [r3, #0]
 8003bfa:	689b      	ldr	r3, [r3, #8]
 8003bfc:	f003 5340 	and.w	r3, r3, #805306368	; 0x30000000
 8003c00:	2b00      	cmp	r3, #0
 8003c02:	d12b      	bne.n	8003c5c <ADC_DMAConvCplt+0x8c>
 8003c04:	68fb      	ldr	r3, [r7, #12]
 8003c06:	7e1b      	ldrb	r3, [r3, #24]
 8003c08:	2b00      	cmp	r3, #0
 8003c0a:	d127      	bne.n	8003c5c <ADC_DMAConvCplt+0x8c>
 8003c0c:	68fb      	ldr	r3, [r7, #12]
 8003c0e:	681b      	ldr	r3, [r3, #0]
 8003c10:	6adb      	ldr	r3, [r3, #44]	; 0x2c
 8003c12:	f403 0370 	and.w	r3, r3, #15728640	; 0xf00000
 8003c16:	2b00      	cmp	r3, #0
 8003c18:	d006      	beq.n	8003c28 <ADC_DMAConvCplt+0x58>
 8003c1a:	68fb      	ldr	r3, [r7, #12]
 8003c1c:	681b      	ldr	r3, [r3, #0]
 8003c1e:	689b      	ldr	r3, [r3, #8]
 8003c20:	f403 6380 	and.w	r3, r3, #1024	; 0x400
 8003c24:	2b00      	cmp	r3, #0
 8003c26:	d119      	bne.n	8003c5c <ADC_DMAConvCplt+0x8c>
 8003c28:	68fb      	ldr	r3, [r7, #12]
 8003c2a:	681b      	ldr	r3, [r3, #0]
 8003c2c:	685a      	ldr	r2, [r3, #4]
 8003c2e:	68fb      	ldr	r3, [r7, #12]
 8003c30:	681b      	ldr	r3, [r3, #0]
 8003c32:	f022 0220 	bic.w	r2, r2, #32
 8003c36:	605a      	str	r2, [r3, #4]
 8003c38:	68fb      	ldr	r3, [r7, #12]
 8003c3a:	6c1b      	ldr	r3, [r3, #64]	; 0x40
 8003c3c:	f423 7280 	bic.w	r2, r3, #256	; 0x100
 8003c40:	68fb      	ldr	r3, [r7, #12]
 8003c42:	641a      	str	r2, [r3, #64]	; 0x40
 8003c44:	68fb      	ldr	r3, [r7, #12]
 8003c46:	6c1b      	ldr	r3, [r3, #64]	; 0x40
 8003c48:	f403 5380 	and.w	r3, r3, #4096	; 0x1000
 8003c4c:	2b00      	cmp	r3, #0
 8003c4e:	d105      	bne.n	8003c5c <ADC_DMAConvCplt+0x8c>
 8003c50:	68fb      	ldr	r3, [r7, #12]
 8003c52:	6c1b      	ldr	r3, [r3, #64]	; 0x40
 8003c54:	f043 0201 	orr.w	r2, r3, #1
 8003c58:	68fb      	ldr	r3, [r7, #12]
 8003c5a:	641a      	str	r2, [r3, #64]	; 0x40
 8003c5c:	68f8      	ldr	r0, [r7, #12]
 8003c5e:	f7ff fd7b 	bl	8003758 <HAL_ADC_ConvCpltCallback>
 8003c62:	e00e      	b.n	8003c82 <ADC_DMAConvCplt+0xb2>
 8003c64:	68fb      	ldr	r3, [r7, #12]
 8003c66:	6c1b      	ldr	r3, [r3, #64]	; 0x40
 8003c68:	f003 0310 	and.w	r3, r3, #16
 8003c6c:	2b00      	cmp	r3, #0
 8003c6e:	d003      	beq.n	8003c78 <ADC_DMAConvCplt+0xa8>
 8003c70:	68f8      	ldr	r0, [r7, #12]
 8003c72:	f7ff fd85 	bl	8003780 <HAL_ADC_ErrorCallback>
 8003c76:	e004      	b.n	8003c82 <ADC_DMAConvCplt+0xb2>
 8003c78:	68fb      	ldr	r3, [r7, #12]
 8003c7a:	6b9b      	ldr	r3, [r3, #56]	; 0x38
 8003c7c:	6cdb      	ldr	r3, [r3, #76]	; 0x4c
 8003c7e:	6878      	ldr	r0, [r7, #4]
 8003c80:	4798      	blx	r3
 8003c82:	bf00      	nop
 8003c84:	3710      	adds	r7, #16
 8003c86:	46bd      	mov	sp, r7
 8003c88:	bd80      	pop	{r7, pc}

08003c8a <ADC_DMAHalfConvCplt>:
 8003c8a:	b580      	push	{r7, lr}
 8003c8c:	b084      	sub	sp, #16
 8003c8e:	af00      	add	r7, sp, #0
 8003c90:	6078      	str	r0, [r7, #4]
 8003c92:	687b      	ldr	r3, [r7, #4]
 8003c94:	6b9b      	ldr	r3, [r3, #56]	; 0x38
 8003c96:	60fb      	str	r3, [r7, #12]
 8003c98:	68f8      	ldr	r0, [r7, #12]
 8003c9a:	f7ff fd67 	bl	800376c <HAL_ADC_ConvHalfCpltCallback>
 8003c9e:	bf00      	nop
 8003ca0:	3710      	adds	r7, #16
 8003ca2:	46bd      	mov	sp, r7
 8003ca4:	bd80      	pop	{r7, pc}

08003ca6 <ADC_DMAError>:
 8003ca6:	b580      	push	{r7, lr}
 8003ca8:	b084      	sub	sp, #16
 8003caa:	af00      	add	r7, sp, #0
 8003cac:	6078      	str	r0, [r7, #4]
 8003cae:	687b      	ldr	r3, [r7, #4]
 8003cb0:	6b9b      	ldr	r3, [r3, #56]	; 0x38
 8003cb2:	60fb      	str	r3, [r7, #12]
 8003cb4:	68fb      	ldr	r3, [r7, #12]
 8003cb6:	2240      	movs	r2, #64	; 0x40
 8003cb8:	641a      	str	r2, [r3, #64]	; 0x40
 8003cba:	68fb      	ldr	r3, [r7, #12]
 8003cbc:	6c5b      	ldr	r3, [r3, #68]	; 0x44
 8003cbe:	f043 0204 	orr.w	r2, r3, #4
 8003cc2:	68fb      	ldr	r3, [r7, #12]
 8003cc4:	645a      	str	r2, [r3, #68]	; 0x44
 8003cc6:	68f8      	ldr	r0, [r7, #12]
 8003cc8:	f7ff fd5a 	bl	8003780 <HAL_ADC_ErrorCallback>
 8003ccc:	bf00      	nop
 8003cce:	3710      	adds	r7, #16
 8003cd0:	46bd      	mov	sp, r7
 8003cd2:	bd80      	pop	{r7, pc}

08003cd4 <__NVIC_SetPriorityGrouping>:
 8003cd4:	b480      	push	{r7}
 8003cd6:	b085      	sub	sp, #20
 8003cd8:	af00      	add	r7, sp, #0
 8003cda:	6078      	str	r0, [r7, #4]
 8003cdc:	687b      	ldr	r3, [r7, #4]
 8003cde:	f003 0307 	and.w	r3, r3, #7
 8003ce2:	60fb      	str	r3, [r7, #12]
 8003ce4:	4b0c      	ldr	r3, [pc, #48]	; (8003d18 <__NVIC_SetPriorityGrouping+0x44>)
 8003ce6:	68db      	ldr	r3, [r3, #12]
 8003ce8:	60bb      	str	r3, [r7, #8]
 8003cea:	68ba      	ldr	r2, [r7, #8]
 8003cec:	f64f 03ff 	movw	r3, #63743	; 0xf8ff
 8003cf0:	4013      	ands	r3, r2
 8003cf2:	60bb      	str	r3, [r7, #8]
 8003cf4:	68fb      	ldr	r3, [r7, #12]
 8003cf6:	021a      	lsls	r2, r3, #8
 8003cf8:	68bb      	ldr	r3, [r7, #8]
 8003cfa:	4313      	orrs	r3, r2
 8003cfc:	f043 63bf 	orr.w	r3, r3, #100139008	; 0x5f80000
 8003d00:	f443 3300 	orr.w	r3, r3, #131072	; 0x20000
 8003d04:	60bb      	str	r3, [r7, #8]
 8003d06:	4a04      	ldr	r2, [pc, #16]	; (8003d18 <__NVIC_SetPriorityGrouping+0x44>)
 8003d08:	68bb      	ldr	r3, [r7, #8]
 8003d0a:	60d3      	str	r3, [r2, #12]
 8003d0c:	bf00      	nop
 8003d0e:	3714      	adds	r7, #20
 8003d10:	46bd      	mov	sp, r7
 8003d12:	f85d 7b04 	ldr.w	r7, [sp], #4
 8003d16:	4770      	bx	lr
 8003d18:	e000ed00 	.word	0xe000ed00

08003d1c <__NVIC_GetPriorityGrouping>:
 8003d1c:	b480      	push	{r7}
 8003d1e:	af00      	add	r7, sp, #0
 8003d20:	4b04      	ldr	r3, [pc, #16]	; (8003d34 <__NVIC_GetPriorityGrouping+0x18>)
 8003d22:	68db      	ldr	r3, [r3, #12]
 8003d24:	0a1b      	lsrs	r3, r3, #8
 8003d26:	f003 0307 	and.w	r3, r3, #7
 8003d2a:	4618      	mov	r0, r3
 8003d2c:	46bd      	mov	sp, r7
 8003d2e:	f85d 7b04 	ldr.w	r7, [sp], #4
 8003d32:	4770      	bx	lr
 8003d34:	e000ed00 	.word	0xe000ed00

08003d38 <__NVIC_EnableIRQ>:
 8003d38:	b480      	push	{r7}
 8003d3a:	b083      	sub	sp, #12
 8003d3c:	af00      	add	r7, sp, #0
 8003d3e:	4603      	mov	r3, r0
 8003d40:	71fb      	strb	r3, [r7, #7]
 8003d42:	f997 3007 	ldrsb.w	r3, [r7, #7]
 8003d46:	2b00      	cmp	r3, #0
 8003d48:	db0b      	blt.n	8003d62 <__NVIC_EnableIRQ+0x2a>
 8003d4a:	79fb      	ldrb	r3, [r7, #7]
 8003d4c:	f003 021f 	and.w	r2, r3, #31
 8003d50:	4907      	ldr	r1, [pc, #28]	; (8003d70 <__NVIC_EnableIRQ+0x38>)
 8003d52:	f997 3007 	ldrsb.w	r3, [r7, #7]
 8003d56:	095b      	lsrs	r3, r3, #5
 8003d58:	2001      	movs	r0, #1
 8003d5a:	fa00 f202 	lsl.w	r2, r0, r2
 8003d5e:	f841 2023 	str.w	r2, [r1, r3, lsl #2]
 8003d62:	bf00      	nop
 8003d64:	370c      	adds	r7, #12
 8003d66:	46bd      	mov	sp, r7
 8003d68:	f85d 7b04 	ldr.w	r7, [sp], #4
 8003d6c:	4770      	bx	lr
 8003d6e:	bf00      	nop
 8003d70:	e000e100 	.word	0xe000e100

08003d74 <__NVIC_SetPriority>:
 8003d74:	b480      	push	{r7}
 8003d76:	b083      	sub	sp, #12
 8003d78:	af00      	add	r7, sp, #0
 8003d7a:	4603      	mov	r3, r0
 8003d7c:	6039      	str	r1, [r7, #0]
 8003d7e:	71fb      	strb	r3, [r7, #7]
 8003d80:	f997 3007 	ldrsb.w	r3, [r7, #7]
 8003d84:	2b00      	cmp	r3, #0
 8003d86:	db0a      	blt.n	8003d9e <__NVIC_SetPriority+0x2a>
 8003d88:	683b      	ldr	r3, [r7, #0]
 8003d8a:	b2da      	uxtb	r2, r3
 8003d8c:	490c      	ldr	r1, [pc, #48]	; (8003dc0 <__NVIC_SetPriority+0x4c>)
 8003d8e:	f997 3007 	ldrsb.w	r3, [r7, #7]
 8003d92:	0112      	lsls	r2, r2, #4
 8003d94:	b2d2      	uxtb	r2, r2
 8003d96:	440b      	add	r3, r1
 8003d98:	f883 2300 	strb.w	r2, [r3, #768]	; 0x300
 8003d9c:	e00a      	b.n	8003db4 <__NVIC_SetPriority+0x40>
 8003d9e:	683b      	ldr	r3, [r7, #0]
 8003da0:	b2da      	uxtb	r2, r3
 8003da2:	4908      	ldr	r1, [pc, #32]	; (8003dc4 <__NVIC_SetPriority+0x50>)
 8003da4:	79fb      	ldrb	r3, [r7, #7]
 8003da6:	f003 030f 	and.w	r3, r3, #15
 8003daa:	3b04      	subs	r3, #4
 8003dac:	0112      	lsls	r2, r2, #4
 8003dae:	b2d2      	uxtb	r2, r2
 8003db0:	440b      	add	r3, r1
 8003db2:	761a      	strb	r2, [r3, #24]
 8003db4:	bf00      	nop
 8003db6:	370c      	adds	r7, #12
 8003db8:	46bd      	mov	sp, r7
 8003dba:	f85d 7b04 	ldr.w	r7, [sp], #4
 8003dbe:	4770      	bx	lr
 8003dc0:	e000e100 	.word	0xe000e100
 8003dc4:	e000ed00 	.word	0xe000ed00

08003dc8 <NVIC_EncodePriority>:
 8003dc8:	b480      	push	{r7}
 8003dca:	b089      	sub	sp, #36	; 0x24
 8003dcc:	af00      	add	r7, sp, #0
 8003dce:	60f8      	str	r0, [r7, #12]
 8003dd0:	60b9      	str	r1, [r7, #8]
 8003dd2:	607a      	str	r2, [r7, #4]
 8003dd4:	68fb      	ldr	r3, [r7, #12]
 8003dd6:	f003 0307 	and.w	r3, r3, #7
 8003dda:	61fb      	str	r3, [r7, #28]
 8003ddc:	69fb      	ldr	r3, [r7, #28]
 8003dde:	f1c3 0307 	rsb	r3, r3, #7
 8003de2:	2b04      	cmp	r3, #4
 8003de4:	bf28      	it	cs
 8003de6:	2304      	movcs	r3, #4
 8003de8:	61bb      	str	r3, [r7, #24]
 8003dea:	69fb      	ldr	r3, [r7, #28]
 8003dec:	3304      	adds	r3, #4
 8003dee:	2b06      	cmp	r3, #6
 8003df0:	d902      	bls.n	8003df8 <NVIC_EncodePriority+0x30>
 8003df2:	69fb      	ldr	r3, [r7, #28]
 8003df4:	3b03      	subs	r3, #3
 8003df6:	e000      	b.n	8003dfa <NVIC_EncodePriority+0x32>
 8003df8:	2300      	movs	r3, #0
 8003dfa:	617b      	str	r3, [r7, #20]
 8003dfc:	f04f 32ff 	mov.w	r2, #4294967295
 8003e00:	69bb      	ldr	r3, [r7, #24]
 8003e02:	fa02 f303 	lsl.w	r3, r2, r3
 8003e06:	43da      	mvns	r2, r3
 8003e08:	68bb      	ldr	r3, [r7, #8]
 8003e0a:	401a      	ands	r2, r3
 8003e0c:	697b      	ldr	r3, [r7, #20]
 8003e0e:	409a      	lsls	r2, r3
 8003e10:	f04f 31ff 	mov.w	r1, #4294967295
 8003e14:	697b      	ldr	r3, [r7, #20]
 8003e16:	fa01 f303 	lsl.w	r3, r1, r3
 8003e1a:	43d9      	mvns	r1, r3
 8003e1c:	687b      	ldr	r3, [r7, #4]
 8003e1e:	400b      	ands	r3, r1
 8003e20:	4313      	orrs	r3, r2
 8003e22:	4618      	mov	r0, r3
 8003e24:	3724      	adds	r7, #36	; 0x24
 8003e26:	46bd      	mov	sp, r7
 8003e28:	f85d 7b04 	ldr.w	r7, [sp], #4
 8003e2c:	4770      	bx	lr
	...

08003e30 <SysTick_Config>:
 8003e30:	b580      	push	{r7, lr}
 8003e32:	b082      	sub	sp, #8
 8003e34:	af00      	add	r7, sp, #0
 8003e36:	6078      	str	r0, [r7, #4]
 8003e38:	687b      	ldr	r3, [r7, #4]
 8003e3a:	3b01      	subs	r3, #1
 8003e3c:	f1b3 7f80 	cmp.w	r3, #16777216	; 0x1000000
 8003e40:	d301      	bcc.n	8003e46 <SysTick_Config+0x16>
 8003e42:	2301      	movs	r3, #1
 8003e44:	e00f      	b.n	8003e66 <SysTick_Config+0x36>
 8003e46:	4a0a      	ldr	r2, [pc, #40]	; (8003e70 <SysTick_Config+0x40>)
 8003e48:	687b      	ldr	r3, [r7, #4]
 8003e4a:	3b01      	subs	r3, #1
 8003e4c:	6053      	str	r3, [r2, #4]
 8003e4e:	210f      	movs	r1, #15
 8003e50:	f04f 30ff 	mov.w	r0, #4294967295
 8003e54:	f7ff ff8e 	bl	8003d74 <__NVIC_SetPriority>
 8003e58:	4b05      	ldr	r3, [pc, #20]	; (8003e70 <SysTick_Config+0x40>)
 8003e5a:	2200      	movs	r2, #0
 8003e5c:	609a      	str	r2, [r3, #8]
 8003e5e:	4b04      	ldr	r3, [pc, #16]	; (8003e70 <SysTick_Config+0x40>)
 8003e60:	2207      	movs	r2, #7
 8003e62:	601a      	str	r2, [r3, #0]
 8003e64:	2300      	movs	r3, #0
 8003e66:	4618      	mov	r0, r3
 8003e68:	3708      	adds	r7, #8
 8003e6a:	46bd      	mov	sp, r7
 8003e6c:	bd80      	pop	{r7, pc}
 8003e6e:	bf00      	nop
 8003e70:	e000e010 	.word	0xe000e010

08003e74 <HAL_NVIC_SetPriorityGrouping>:
 8003e74:	b580      	push	{r7, lr}
 8003e76:	b082      	sub	sp, #8
 8003e78:	af00      	add	r7, sp, #0
 8003e7a:	6078      	str	r0, [r7, #4]
 8003e7c:	6878      	ldr	r0, [r7, #4]
 8003e7e:	f7ff ff29 	bl	8003cd4 <__NVIC_SetPriorityGrouping>
 8003e82:	bf00      	nop
 8003e84:	3708      	adds	r7, #8
 8003e86:	46bd      	mov	sp, r7
 8003e88:	bd80      	pop	{r7, pc}

08003e8a <HAL_NVIC_SetPriority>:
 8003e8a:	b580      	push	{r7, lr}
 8003e8c:	b086      	sub	sp, #24
 8003e8e:	af00      	add	r7, sp, #0
 8003e90:	4603      	mov	r3, r0
 8003e92:	60b9      	str	r1, [r7, #8]
 8003e94:	607a      	str	r2, [r7, #4]
 8003e96:	73fb      	strb	r3, [r7, #15]
 8003e98:	2300      	movs	r3, #0
 8003e9a:	617b      	str	r3, [r7, #20]
 8003e9c:	f7ff ff3e 	bl	8003d1c <__NVIC_GetPriorityGrouping>
 8003ea0:	6178      	str	r0, [r7, #20]
 8003ea2:	687a      	ldr	r2, [r7, #4]
 8003ea4:	68b9      	ldr	r1, [r7, #8]
 8003ea6:	6978      	ldr	r0, [r7, #20]
 8003ea8:	f7ff ff8e 	bl	8003dc8 <NVIC_EncodePriority>
 8003eac:	4602      	mov	r2, r0
 8003eae:	f997 300f 	ldrsb.w	r3, [r7, #15]
 8003eb2:	4611      	mov	r1, r2
 8003eb4:	4618      	mov	r0, r3
 8003eb6:	f7ff ff5d 	bl	8003d74 <__NVIC_SetPriority>
 8003eba:	bf00      	nop
 8003ebc:	3718      	adds	r7, #24
 8003ebe:	46bd      	mov	sp, r7
 8003ec0:	bd80      	pop	{r7, pc}

08003ec2 <HAL_NVIC_EnableIRQ>:
 8003ec2:	b580      	push	{r7, lr}
 8003ec4:	b082      	sub	sp, #8
 8003ec6:	af00      	add	r7, sp, #0
 8003ec8:	4603      	mov	r3, r0
 8003eca:	71fb      	strb	r3, [r7, #7]
 8003ecc:	f997 3007 	ldrsb.w	r3, [r7, #7]
 8003ed0:	4618      	mov	r0, r3
 8003ed2:	f7ff ff31 	bl	8003d38 <__NVIC_EnableIRQ>
 8003ed6:	bf00      	nop
 8003ed8:	3708      	adds	r7, #8
 8003eda:	46bd      	mov	sp, r7
 8003edc:	bd80      	pop	{r7, pc}

08003ede <HAL_SYSTICK_Config>:
 8003ede:	b580      	push	{r7, lr}
 8003ee0:	b082      	sub	sp, #8
 8003ee2:	af00      	add	r7, sp, #0
 8003ee4:	6078      	str	r0, [r7, #4]
 8003ee6:	6878      	ldr	r0, [r7, #4]
 8003ee8:	f7ff ffa2 	bl	8003e30 <SysTick_Config>
 8003eec:	4603      	mov	r3, r0
 8003eee:	4618      	mov	r0, r3
 8003ef0:	3708      	adds	r7, #8
 8003ef2:	46bd      	mov	sp, r7
 8003ef4:	bd80      	pop	{r7, pc}
	...

08003ef8 <HAL_DMA_Init>:
 8003ef8:	b580      	push	{r7, lr}
 8003efa:	b086      	sub	sp, #24
 8003efc:	af00      	add	r7, sp, #0
 8003efe:	6078      	str	r0, [r7, #4]
 8003f00:	2300      	movs	r3, #0
 8003f02:	617b      	str	r3, [r7, #20]
 8003f04:	f7ff faa4 	bl	8003450 <HAL_GetTick>
 8003f08:	6138      	str	r0, [r7, #16]
 8003f0a:	687b      	ldr	r3, [r7, #4]
 8003f0c:	2b00      	cmp	r3, #0
 8003f0e:	d101      	bne.n	8003f14 <HAL_DMA_Init+0x1c>
 8003f10:	2301      	movs	r3, #1
 8003f12:	e099      	b.n	8004048 <HAL_DMA_Init+0x150>
 8003f14:	687b      	ldr	r3, [r7, #4]
 8003f16:	2202      	movs	r2, #2
 8003f18:	f883 2035 	strb.w	r2, [r3, #53]	; 0x35
 8003f1c:	687b      	ldr	r3, [r7, #4]
 8003f1e:	2200      	movs	r2, #0
 8003f20:	f883 2034 	strb.w	r2, [r3, #52]	; 0x34
 8003f24:	687b      	ldr	r3, [r7, #4]
 8003f26:	681b      	ldr	r3, [r3, #0]
 8003f28:	681a      	ldr	r2, [r3, #0]
 8003f2a:	687b      	ldr	r3, [r7, #4]
 8003f2c:	681b      	ldr	r3, [r3, #0]
 8003f2e:	f022 0201 	bic.w	r2, r2, #1
 8003f32:	601a      	str	r2, [r3, #0]
 8003f34:	e00f      	b.n	8003f56 <HAL_DMA_Init+0x5e>
 8003f36:	f7ff fa8b 	bl	8003450 <HAL_GetTick>
 8003f3a:	4602      	mov	r2, r0
 8003f3c:	693b      	ldr	r3, [r7, #16]
 8003f3e:	1ad3      	subs	r3, r2, r3
 8003f40:	2b05      	cmp	r3, #5
 8003f42:	d908      	bls.n	8003f56 <HAL_DMA_Init+0x5e>
 8003f44:	687b      	ldr	r3, [r7, #4]
 8003f46:	2220      	movs	r2, #32
 8003f48:	655a      	str	r2, [r3, #84]	; 0x54
 8003f4a:	687b      	ldr	r3, [r7, #4]
 8003f4c:	2203      	movs	r2, #3
 8003f4e:	f883 2035 	strb.w	r2, [r3, #53]	; 0x35
 8003f52:	2303      	movs	r3, #3
 8003f54:	e078      	b.n	8004048 <HAL_DMA_Init+0x150>
 8003f56:	687b      	ldr	r3, [r7, #4]
 8003f58:	681b      	ldr	r3, [r3, #0]
 8003f5a:	681b      	ldr	r3, [r3, #0]
 8003f5c:	f003 0301 	and.w	r3, r3, #1
 8003f60:	2b00      	cmp	r3, #0
 8003f62:	d1e8      	bne.n	8003f36 <HAL_DMA_Init+0x3e>
 8003f64:	687b      	ldr	r3, [r7, #4]
 8003f66:	681b      	ldr	r3, [r3, #0]
 8003f68:	681b      	ldr	r3, [r3, #0]
 8003f6a:	617b      	str	r3, [r7, #20]
 8003f6c:	697a      	ldr	r2, [r7, #20]
 8003f6e:	4b38      	ldr	r3, [pc, #224]	; (8004050 <HAL_DMA_Init+0x158>)
 8003f70:	4013      	ands	r3, r2
 8003f72:	617b      	str	r3, [r7, #20]
 8003f74:	687b      	ldr	r3, [r7, #4]
 8003f76:	685a      	ldr	r2, [r3, #4]
 8003f78:	687b      	ldr	r3, [r7, #4]
 8003f7a:	689b      	ldr	r3, [r3, #8]
 8003f7c:	431a      	orrs	r2, r3
 8003f7e:	687b      	ldr	r3, [r7, #4]
 8003f80:	68db      	ldr	r3, [r3, #12]
 8003f82:	431a      	orrs	r2, r3
 8003f84:	687b      	ldr	r3, [r7, #4]
 8003f86:	691b      	ldr	r3, [r3, #16]
 8003f88:	431a      	orrs	r2, r3
 8003f8a:	687b      	ldr	r3, [r7, #4]
 8003f8c:	695b      	ldr	r3, [r3, #20]
 8003f8e:	431a      	orrs	r2, r3
 8003f90:	687b      	ldr	r3, [r7, #4]
 8003f92:	699b      	ldr	r3, [r3, #24]
 8003f94:	431a      	orrs	r2, r3
 8003f96:	687b      	ldr	r3, [r7, #4]
 8003f98:	69db      	ldr	r3, [r3, #28]
 8003f9a:	431a      	orrs	r2, r3
 8003f9c:	687b      	ldr	r3, [r7, #4]
 8003f9e:	6a1b      	ldr	r3, [r3, #32]
 8003fa0:	4313      	orrs	r3, r2
 8003fa2:	697a      	ldr	r2, [r7, #20]
 8003fa4:	4313      	orrs	r3, r2
 8003fa6:	617b      	str	r3, [r7, #20]
 8003fa8:	687b      	ldr	r3, [r7, #4]
 8003faa:	6a5b      	ldr	r3, [r3, #36]	; 0x24
 8003fac:	2b04      	cmp	r3, #4
 8003fae:	d107      	bne.n	8003fc0 <HAL_DMA_Init+0xc8>
 8003fb0:	687b      	ldr	r3, [r7, #4]
 8003fb2:	6ada      	ldr	r2, [r3, #44]	; 0x2c
 8003fb4:	687b      	ldr	r3, [r7, #4]
 8003fb6:	6b1b      	ldr	r3, [r3, #48]	; 0x30
 8003fb8:	4313      	orrs	r3, r2
 8003fba:	697a      	ldr	r2, [r7, #20]
 8003fbc:	4313      	orrs	r3, r2
 8003fbe:	617b      	str	r3, [r7, #20]
 8003fc0:	687b      	ldr	r3, [r7, #4]
 8003fc2:	681b      	ldr	r3, [r3, #0]
 8003fc4:	697a      	ldr	r2, [r7, #20]
 8003fc6:	601a      	str	r2, [r3, #0]
 8003fc8:	687b      	ldr	r3, [r7, #4]
 8003fca:	681b      	ldr	r3, [r3, #0]
 8003fcc:	695b      	ldr	r3, [r3, #20]
 8003fce:	617b      	str	r3, [r7, #20]
 8003fd0:	697b      	ldr	r3, [r7, #20]
 8003fd2:	f023 0307 	bic.w	r3, r3, #7
 8003fd6:	617b      	str	r3, [r7, #20]
 8003fd8:	687b      	ldr	r3, [r7, #4]
 8003fda:	6a5b      	ldr	r3, [r3, #36]	; 0x24
 8003fdc:	697a      	ldr	r2, [r7, #20]
 8003fde:	4313      	orrs	r3, r2
 8003fe0:	617b      	str	r3, [r7, #20]
 8003fe2:	687b      	ldr	r3, [r7, #4]
 8003fe4:	6a5b      	ldr	r3, [r3, #36]	; 0x24
 8003fe6:	2b04      	cmp	r3, #4
 8003fe8:	d117      	bne.n	800401a <HAL_DMA_Init+0x122>
 8003fea:	687b      	ldr	r3, [r7, #4]
 8003fec:	6a9b      	ldr	r3, [r3, #40]	; 0x28
 8003fee:	697a      	ldr	r2, [r7, #20]
 8003ff0:	4313      	orrs	r3, r2
 8003ff2:	617b      	str	r3, [r7, #20]
 8003ff4:	687b      	ldr	r3, [r7, #4]
 8003ff6:	6adb      	ldr	r3, [r3, #44]	; 0x2c
 8003ff8:	2b00      	cmp	r3, #0
 8003ffa:	d00e      	beq.n	800401a <HAL_DMA_Init+0x122>
 8003ffc:	6878      	ldr	r0, [r7, #4]
 8003ffe:	f000 fb01 	bl	8004604 <DMA_CheckFifoParam>
 8004002:	4603      	mov	r3, r0
 8004004:	2b00      	cmp	r3, #0
 8004006:	d008      	beq.n	800401a <HAL_DMA_Init+0x122>
 8004008:	687b      	ldr	r3, [r7, #4]
 800400a:	2240      	movs	r2, #64	; 0x40
 800400c:	655a      	str	r2, [r3, #84]	; 0x54
 800400e:	687b      	ldr	r3, [r7, #4]
 8004010:	2201      	movs	r2, #1
 8004012:	f883 2035 	strb.w	r2, [r3, #53]	; 0x35
 8004016:	2301      	movs	r3, #1
 8004018:	e016      	b.n	8004048 <HAL_DMA_Init+0x150>
 800401a:	687b      	ldr	r3, [r7, #4]
 800401c:	681b      	ldr	r3, [r3, #0]
 800401e:	697a      	ldr	r2, [r7, #20]
 8004020:	615a      	str	r2, [r3, #20]
 8004022:	6878      	ldr	r0, [r7, #4]
 8004024:	f000 fab8 	bl	8004598 <DMA_CalcBaseAndBitshift>
 8004028:	4603      	mov	r3, r0
 800402a:	60fb      	str	r3, [r7, #12]
 800402c:	687b      	ldr	r3, [r7, #4]
 800402e:	6ddb      	ldr	r3, [r3, #92]	; 0x5c
 8004030:	223f      	movs	r2, #63	; 0x3f
 8004032:	409a      	lsls	r2, r3
 8004034:	68fb      	ldr	r3, [r7, #12]
 8004036:	609a      	str	r2, [r3, #8]
 8004038:	687b      	ldr	r3, [r7, #4]
 800403a:	2200      	movs	r2, #0
 800403c:	655a      	str	r2, [r3, #84]	; 0x54
 800403e:	687b      	ldr	r3, [r7, #4]
 8004040:	2201      	movs	r2, #1
 8004042:	f883 2035 	strb.w	r2, [r3, #53]	; 0x35
 8004046:	2300      	movs	r3, #0
 8004048:	4618      	mov	r0, r3
 800404a:	3718      	adds	r7, #24
 800404c:	46bd      	mov	sp, r7
 800404e:	bd80      	pop	{r7, pc}
 8004050:	f010803f 	.word	0xf010803f

08004054 <HAL_DMA_Start_IT>:
 8004054:	b580      	push	{r7, lr}
 8004056:	b086      	sub	sp, #24
 8004058:	af00      	add	r7, sp, #0
 800405a:	60f8      	str	r0, [r7, #12]
 800405c:	60b9      	str	r1, [r7, #8]
 800405e:	607a      	str	r2, [r7, #4]
 8004060:	603b      	str	r3, [r7, #0]
 8004062:	2300      	movs	r3, #0
 8004064:	75fb      	strb	r3, [r7, #23]
 8004066:	68fb      	ldr	r3, [r7, #12]
 8004068:	6d9b      	ldr	r3, [r3, #88]	; 0x58
 800406a:	613b      	str	r3, [r7, #16]
 800406c:	68fb      	ldr	r3, [r7, #12]
 800406e:	f893 3034 	ldrb.w	r3, [r3, #52]	; 0x34
 8004072:	2b01      	cmp	r3, #1
 8004074:	d101      	bne.n	800407a <HAL_DMA_Start_IT+0x26>
 8004076:	2302      	movs	r3, #2
 8004078:	e040      	b.n	80040fc <HAL_DMA_Start_IT+0xa8>
 800407a:	68fb      	ldr	r3, [r7, #12]
 800407c:	2201      	movs	r2, #1
 800407e:	f883 2034 	strb.w	r2, [r3, #52]	; 0x34
 8004082:	68fb      	ldr	r3, [r7, #12]
 8004084:	f893 3035 	ldrb.w	r3, [r3, #53]	; 0x35
 8004088:	b2db      	uxtb	r3, r3
 800408a:	2b01      	cmp	r3, #1
 800408c:	d12f      	bne.n	80040ee <HAL_DMA_Start_IT+0x9a>
 800408e:	68fb      	ldr	r3, [r7, #12]
 8004090:	2202      	movs	r2, #2
 8004092:	f883 2035 	strb.w	r2, [r3, #53]	; 0x35
 8004096:	68fb      	ldr	r3, [r7, #12]
 8004098:	2200      	movs	r2, #0
 800409a:	655a      	str	r2, [r3, #84]	; 0x54
 800409c:	683b      	ldr	r3, [r7, #0]
 800409e:	687a      	ldr	r2, [r7, #4]
 80040a0:	68b9      	ldr	r1, [r7, #8]
 80040a2:	68f8      	ldr	r0, [r7, #12]
 80040a4:	f000 fa4a 	bl	800453c <DMA_SetConfig>
 80040a8:	68fb      	ldr	r3, [r7, #12]
 80040aa:	6ddb      	ldr	r3, [r3, #92]	; 0x5c
 80040ac:	223f      	movs	r2, #63	; 0x3f
 80040ae:	409a      	lsls	r2, r3
 80040b0:	693b      	ldr	r3, [r7, #16]
 80040b2:	609a      	str	r2, [r3, #8]
 80040b4:	68fb      	ldr	r3, [r7, #12]
 80040b6:	681b      	ldr	r3, [r3, #0]
 80040b8:	681a      	ldr	r2, [r3, #0]
 80040ba:	68fb      	ldr	r3, [r7, #12]
 80040bc:	681b      	ldr	r3, [r3, #0]
 80040be:	f042 0216 	orr.w	r2, r2, #22
 80040c2:	601a      	str	r2, [r3, #0]
 80040c4:	68fb      	ldr	r3, [r7, #12]
 80040c6:	6c1b      	ldr	r3, [r3, #64]	; 0x40
 80040c8:	2b00      	cmp	r3, #0
 80040ca:	d007      	beq.n	80040dc <HAL_DMA_Start_IT+0x88>
 80040cc:	68fb      	ldr	r3, [r7, #12]
 80040ce:	681b      	ldr	r3, [r3, #0]
 80040d0:	681a      	ldr	r2, [r3, #0]
 80040d2:	68fb      	ldr	r3, [r7, #12]
 80040d4:	681b      	ldr	r3, [r3, #0]
 80040d6:	f042 0208 	orr.w	r2, r2, #8
 80040da:	601a      	str	r2, [r3, #0]
 80040dc:	68fb      	ldr	r3, [r7, #12]
 80040de:	681b      	ldr	r3, [r3, #0]
 80040e0:	681a      	ldr	r2, [r3, #0]
 80040e2:	68fb      	ldr	r3, [r7, #12]
 80040e4:	681b      	ldr	r3, [r3, #0]
 80040e6:	f042 0201 	orr.w	r2, r2, #1
 80040ea:	601a      	str	r2, [r3, #0]
 80040ec:	e005      	b.n	80040fa <HAL_DMA_Start_IT+0xa6>
 80040ee:	68fb      	ldr	r3, [r7, #12]
 80040f0:	2200      	movs	r2, #0
 80040f2:	f883 2034 	strb.w	r2, [r3, #52]	; 0x34
 80040f6:	2302      	movs	r3, #2
 80040f8:	75fb      	strb	r3, [r7, #23]
 80040fa:	7dfb      	ldrb	r3, [r7, #23]
 80040fc:	4618      	mov	r0, r3
 80040fe:	3718      	adds	r7, #24
 8004100:	46bd      	mov	sp, r7
 8004102:	bd80      	pop	{r7, pc}

08004104 <HAL_DMA_Abort>:
 8004104:	b580      	push	{r7, lr}
 8004106:	b084      	sub	sp, #16
 8004108:	af00      	add	r7, sp, #0
 800410a:	6078      	str	r0, [r7, #4]
 800410c:	687b      	ldr	r3, [r7, #4]
 800410e:	6d9b      	ldr	r3, [r3, #88]	; 0x58
 8004110:	60fb      	str	r3, [r7, #12]
 8004112:	f7ff f99d 	bl	8003450 <HAL_GetTick>
 8004116:	60b8      	str	r0, [r7, #8]
 8004118:	687b      	ldr	r3, [r7, #4]
 800411a:	f893 3035 	ldrb.w	r3, [r3, #53]	; 0x35
 800411e:	b2db      	uxtb	r3, r3
 8004120:	2b02      	cmp	r3, #2
 8004122:	d008      	beq.n	8004136 <HAL_DMA_Abort+0x32>
 8004124:	687b      	ldr	r3, [r7, #4]
 8004126:	2280      	movs	r2, #128	; 0x80
 8004128:	655a      	str	r2, [r3, #84]	; 0x54
 800412a:	687b      	ldr	r3, [r7, #4]
 800412c:	2200      	movs	r2, #0
 800412e:	f883 2034 	strb.w	r2, [r3, #52]	; 0x34
 8004132:	2301      	movs	r3, #1
 8004134:	e052      	b.n	80041dc <HAL_DMA_Abort+0xd8>
 8004136:	687b      	ldr	r3, [r7, #4]
 8004138:	681b      	ldr	r3, [r3, #0]
 800413a:	681a      	ldr	r2, [r3, #0]
 800413c:	687b      	ldr	r3, [r7, #4]
 800413e:	681b      	ldr	r3, [r3, #0]
 8004140:	f022 0216 	bic.w	r2, r2, #22
 8004144:	601a      	str	r2, [r3, #0]
 8004146:	687b      	ldr	r3, [r7, #4]
 8004148:	681b      	ldr	r3, [r3, #0]
 800414a:	695a      	ldr	r2, [r3, #20]
 800414c:	687b      	ldr	r3, [r7, #4]
 800414e:	681b      	ldr	r3, [r3, #0]
 8004150:	f022 0280 	bic.w	r2, r2, #128	; 0x80
 8004154:	615a      	str	r2, [r3, #20]
 8004156:	687b      	ldr	r3, [r7, #4]
 8004158:	6c1b      	ldr	r3, [r3, #64]	; 0x40
 800415a:	2b00      	cmp	r3, #0
 800415c:	d103      	bne.n	8004166 <HAL_DMA_Abort+0x62>
 800415e:	687b      	ldr	r3, [r7, #4]
 8004160:	6c9b      	ldr	r3, [r3, #72]	; 0x48
 8004162:	2b00      	cmp	r3, #0
 8004164:	d007      	beq.n	8004176 <HAL_DMA_Abort+0x72>
 8004166:	687b      	ldr	r3, [r7, #4]
 8004168:	681b      	ldr	r3, [r3, #0]
 800416a:	681a      	ldr	r2, [r3, #0]
 800416c:	687b      	ldr	r3, [r7, #4]
 800416e:	681b      	ldr	r3, [r3, #0]
 8004170:	f022 0208 	bic.w	r2, r2, #8
 8004174:	601a      	str	r2, [r3, #0]
 8004176:	687b      	ldr	r3, [r7, #4]
 8004178:	681b      	ldr	r3, [r3, #0]
 800417a:	681a      	ldr	r2, [r3, #0]
 800417c:	687b      	ldr	r3, [r7, #4]
 800417e:	681b      	ldr	r3, [r3, #0]
 8004180:	f022 0201 	bic.w	r2, r2, #1
 8004184:	601a      	str	r2, [r3, #0]
 8004186:	e013      	b.n	80041b0 <HAL_DMA_Abort+0xac>
 8004188:	f7ff f962 	bl	8003450 <HAL_GetTick>
 800418c:	4602      	mov	r2, r0
 800418e:	68bb      	ldr	r3, [r7, #8]
 8004190:	1ad3      	subs	r3, r2, r3
 8004192:	2b05      	cmp	r3, #5
 8004194:	d90c      	bls.n	80041b0 <HAL_DMA_Abort+0xac>
 8004196:	687b      	ldr	r3, [r7, #4]
 8004198:	2220      	movs	r2, #32
 800419a:	655a      	str	r2, [r3, #84]	; 0x54
 800419c:	687b      	ldr	r3, [r7, #4]
 800419e:	2203      	movs	r2, #3
 80041a0:	f883 2035 	strb.w	r2, [r3, #53]	; 0x35
 80041a4:	687b      	ldr	r3, [r7, #4]
 80041a6:	2200      	movs	r2, #0
 80041a8:	f883 2034 	strb.w	r2, [r3, #52]	; 0x34
 80041ac:	2303      	movs	r3, #3
 80041ae:	e015      	b.n	80041dc <HAL_DMA_Abort+0xd8>
 80041b0:	687b      	ldr	r3, [r7, #4]
 80041b2:	681b      	ldr	r3, [r3, #0]
 80041b4:	681b      	ldr	r3, [r3, #0]
 80041b6:	f003 0301 	and.w	r3, r3, #1
 80041ba:	2b00      	cmp	r3, #0
 80041bc:	d1e4      	bne.n	8004188 <HAL_DMA_Abort+0x84>
 80041be:	687b      	ldr	r3, [r7, #4]
 80041c0:	6ddb      	ldr	r3, [r3, #92]	; 0x5c
 80041c2:	223f      	movs	r2, #63	; 0x3f
 80041c4:	409a      	lsls	r2, r3
 80041c6:	68fb      	ldr	r3, [r7, #12]
 80041c8:	609a      	str	r2, [r3, #8]
 80041ca:	687b      	ldr	r3, [r7, #4]
 80041cc:	2201      	movs	r2, #1
 80041ce:	f883 2035 	strb.w	r2, [r3, #53]	; 0x35
 80041d2:	687b      	ldr	r3, [r7, #4]
 80041d4:	2200      	movs	r2, #0
 80041d6:	f883 2034 	strb.w	r2, [r3, #52]	; 0x34
 80041da:	2300      	movs	r3, #0
 80041dc:	4618      	mov	r0, r3
 80041de:	3710      	adds	r7, #16
 80041e0:	46bd      	mov	sp, r7
 80041e2:	bd80      	pop	{r7, pc}

080041e4 <HAL_DMA_Abort_IT>:
 80041e4:	b480      	push	{r7}
 80041e6:	b083      	sub	sp, #12
 80041e8:	af00      	add	r7, sp, #0
 80041ea:	6078      	str	r0, [r7, #4]
 80041ec:	687b      	ldr	r3, [r7, #4]
 80041ee:	f893 3035 	ldrb.w	r3, [r3, #53]	; 0x35
 80041f2:	b2db      	uxtb	r3, r3
 80041f4:	2b02      	cmp	r3, #2
 80041f6:	d004      	beq.n	8004202 <HAL_DMA_Abort_IT+0x1e>
 80041f8:	687b      	ldr	r3, [r7, #4]
 80041fa:	2280      	movs	r2, #128	; 0x80
 80041fc:	655a      	str	r2, [r3, #84]	; 0x54
 80041fe:	2301      	movs	r3, #1
 8004200:	e00c      	b.n	800421c <HAL_DMA_Abort_IT+0x38>
 8004202:	687b      	ldr	r3, [r7, #4]
 8004204:	2205      	movs	r2, #5
 8004206:	f883 2035 	strb.w	r2, [r3, #53]	; 0x35
 800420a:	687b      	ldr	r3, [r7, #4]
 800420c:	681b      	ldr	r3, [r3, #0]
 800420e:	681a      	ldr	r2, [r3, #0]
 8004210:	687b      	ldr	r3, [r7, #4]
 8004212:	681b      	ldr	r3, [r3, #0]
 8004214:	f022 0201 	bic.w	r2, r2, #1
 8004218:	601a      	str	r2, [r3, #0]
 800421a:	2300      	movs	r3, #0
 800421c:	4618      	mov	r0, r3
 800421e:	370c      	adds	r7, #12
 8004220:	46bd      	mov	sp, r7
 8004222:	f85d 7b04 	ldr.w	r7, [sp], #4
 8004226:	4770      	bx	lr

08004228 <HAL_DMA_IRQHandler>:
 8004228:	b580      	push	{r7, lr}
 800422a:	b086      	sub	sp, #24
 800422c:	af00      	add	r7, sp, #0
 800422e:	6078      	str	r0, [r7, #4]
 8004230:	2300      	movs	r3, #0
 8004232:	60bb      	str	r3, [r7, #8]
 8004234:	4b8e      	ldr	r3, [pc, #568]	; (8004470 <HAL_DMA_IRQHandler+0x248>)
 8004236:	681b      	ldr	r3, [r3, #0]
 8004238:	4a8e      	ldr	r2, [pc, #568]	; (8004474 <HAL_DMA_IRQHandler+0x24c>)
 800423a:	fba2 2303 	umull	r2, r3, r2, r3
 800423e:	0a9b      	lsrs	r3, r3, #10
 8004240:	617b      	str	r3, [r7, #20]
 8004242:	687b      	ldr	r3, [r7, #4]
 8004244:	6d9b      	ldr	r3, [r3, #88]	; 0x58
 8004246:	613b      	str	r3, [r7, #16]
 8004248:	693b      	ldr	r3, [r7, #16]
 800424a:	681b      	ldr	r3, [r3, #0]
 800424c:	60fb      	str	r3, [r7, #12]
 800424e:	687b      	ldr	r3, [r7, #4]
 8004250:	6ddb      	ldr	r3, [r3, #92]	; 0x5c
 8004252:	2208      	movs	r2, #8
 8004254:	409a      	lsls	r2, r3
 8004256:	68fb      	ldr	r3, [r7, #12]
 8004258:	4013      	ands	r3, r2
 800425a:	2b00      	cmp	r3, #0
 800425c:	d01a      	beq.n	8004294 <HAL_DMA_IRQHandler+0x6c>
 800425e:	687b      	ldr	r3, [r7, #4]
 8004260:	681b      	ldr	r3, [r3, #0]
 8004262:	681b      	ldr	r3, [r3, #0]
 8004264:	f003 0304 	and.w	r3, r3, #4
 8004268:	2b00      	cmp	r3, #0
 800426a:	d013      	beq.n	8004294 <HAL_DMA_IRQHandler+0x6c>
 800426c:	687b      	ldr	r3, [r7, #4]
 800426e:	681b      	ldr	r3, [r3, #0]
 8004270:	681a      	ldr	r2, [r3, #0]
 8004272:	687b      	ldr	r3, [r7, #4]
 8004274:	681b      	ldr	r3, [r3, #0]
 8004276:	f022 0204 	bic.w	r2, r2, #4
 800427a:	601a      	str	r2, [r3, #0]
 800427c:	687b      	ldr	r3, [r7, #4]
 800427e:	6ddb      	ldr	r3, [r3, #92]	; 0x5c
 8004280:	2208      	movs	r2, #8
 8004282:	409a      	lsls	r2, r3
 8004284:	693b      	ldr	r3, [r7, #16]
 8004286:	609a      	str	r2, [r3, #8]
 8004288:	687b      	ldr	r3, [r7, #4]
 800428a:	6d5b      	ldr	r3, [r3, #84]	; 0x54
 800428c:	f043 0201 	orr.w	r2, r3, #1
 8004290:	687b      	ldr	r3, [r7, #4]
 8004292:	655a      	str	r2, [r3, #84]	; 0x54
 8004294:	687b      	ldr	r3, [r7, #4]
 8004296:	6ddb      	ldr	r3, [r3, #92]	; 0x5c
 8004298:	2201      	movs	r2, #1
 800429a:	409a      	lsls	r2, r3
 800429c:	68fb      	ldr	r3, [r7, #12]
 800429e:	4013      	ands	r3, r2
 80042a0:	2b00      	cmp	r3, #0
 80042a2:	d012      	beq.n	80042ca <HAL_DMA_IRQHandler+0xa2>
 80042a4:	687b      	ldr	r3, [r7, #4]
 80042a6:	681b      	ldr	r3, [r3, #0]
 80042a8:	695b      	ldr	r3, [r3, #20]
 80042aa:	f003 0380 	and.w	r3, r3, #128	; 0x80
 80042ae:	2b00      	cmp	r3, #0
 80042b0:	d00b      	beq.n	80042ca <HAL_DMA_IRQHandler+0xa2>
 80042b2:	687b      	ldr	r3, [r7, #4]
 80042b4:	6ddb      	ldr	r3, [r3, #92]	; 0x5c
 80042b6:	2201      	movs	r2, #1
 80042b8:	409a      	lsls	r2, r3
 80042ba:	693b      	ldr	r3, [r7, #16]
 80042bc:	609a      	str	r2, [r3, #8]
 80042be:	687b      	ldr	r3, [r7, #4]
 80042c0:	6d5b      	ldr	r3, [r3, #84]	; 0x54
 80042c2:	f043 0202 	orr.w	r2, r3, #2
 80042c6:	687b      	ldr	r3, [r7, #4]
 80042c8:	655a      	str	r2, [r3, #84]	; 0x54
 80042ca:	687b      	ldr	r3, [r7, #4]
 80042cc:	6ddb      	ldr	r3, [r3, #92]	; 0x5c
 80042ce:	2204      	movs	r2, #4
 80042d0:	409a      	lsls	r2, r3
 80042d2:	68fb      	ldr	r3, [r7, #12]
 80042d4:	4013      	ands	r3, r2
 80042d6:	2b00      	cmp	r3, #0
 80042d8:	d012      	beq.n	8004300 <HAL_DMA_IRQHandler+0xd8>
 80042da:	687b      	ldr	r3, [r7, #4]
 80042dc:	681b      	ldr	r3, [r3, #0]
 80042de:	681b      	ldr	r3, [r3, #0]
 80042e0:	f003 0302 	and.w	r3, r3, #2
 80042e4:	2b00      	cmp	r3, #0
 80042e6:	d00b      	beq.n	8004300 <HAL_DMA_IRQHandler+0xd8>
 80042e8:	687b      	ldr	r3, [r7, #4]
 80042ea:	6ddb      	ldr	r3, [r3, #92]	; 0x5c
 80042ec:	2204      	movs	r2, #4
 80042ee:	409a      	lsls	r2, r3
 80042f0:	693b      	ldr	r3, [r7, #16]
 80042f2:	609a      	str	r2, [r3, #8]
 80042f4:	687b      	ldr	r3, [r7, #4]
 80042f6:	6d5b      	ldr	r3, [r3, #84]	; 0x54
 80042f8:	f043 0204 	orr.w	r2, r3, #4
 80042fc:	687b      	ldr	r3, [r7, #4]
 80042fe:	655a      	str	r2, [r3, #84]	; 0x54
 8004300:	687b      	ldr	r3, [r7, #4]
 8004302:	6ddb      	ldr	r3, [r3, #92]	; 0x5c
 8004304:	2210      	movs	r2, #16
 8004306:	409a      	lsls	r2, r3
 8004308:	68fb      	ldr	r3, [r7, #12]
 800430a:	4013      	ands	r3, r2
 800430c:	2b00      	cmp	r3, #0
 800430e:	d043      	beq.n	8004398 <HAL_DMA_IRQHandler+0x170>
 8004310:	687b      	ldr	r3, [r7, #4]
 8004312:	681b      	ldr	r3, [r3, #0]
 8004314:	681b      	ldr	r3, [r3, #0]
 8004316:	f003 0308 	and.w	r3, r3, #8
 800431a:	2b00      	cmp	r3, #0
 800431c:	d03c      	beq.n	8004398 <HAL_DMA_IRQHandler+0x170>
 800431e:	687b      	ldr	r3, [r7, #4]
 8004320:	6ddb      	ldr	r3, [r3, #92]	; 0x5c
 8004322:	2210      	movs	r2, #16
 8004324:	409a      	lsls	r2, r3
 8004326:	693b      	ldr	r3, [r7, #16]
 8004328:	609a      	str	r2, [r3, #8]
 800432a:	687b      	ldr	r3, [r7, #4]
 800432c:	681b      	ldr	r3, [r3, #0]
 800432e:	681b      	ldr	r3, [r3, #0]
 8004330:	f403 2380 	and.w	r3, r3, #262144	; 0x40000
 8004334:	2b00      	cmp	r3, #0
 8004336:	d018      	beq.n	800436a <HAL_DMA_IRQHandler+0x142>
 8004338:	687b      	ldr	r3, [r7, #4]
 800433a:	681b      	ldr	r3, [r3, #0]
 800433c:	681b      	ldr	r3, [r3, #0]
 800433e:	f403 2300 	and.w	r3, r3, #524288	; 0x80000
 8004342:	2b00      	cmp	r3, #0
 8004344:	d108      	bne.n	8004358 <HAL_DMA_IRQHandler+0x130>
 8004346:	687b      	ldr	r3, [r7, #4]
 8004348:	6c1b      	ldr	r3, [r3, #64]	; 0x40
 800434a:	2b00      	cmp	r3, #0
 800434c:	d024      	beq.n	8004398 <HAL_DMA_IRQHandler+0x170>
 800434e:	687b      	ldr	r3, [r7, #4]
 8004350:	6c1b      	ldr	r3, [r3, #64]	; 0x40
 8004352:	6878      	ldr	r0, [r7, #4]
 8004354:	4798      	blx	r3
 8004356:	e01f      	b.n	8004398 <HAL_DMA_IRQHandler+0x170>
 8004358:	687b      	ldr	r3, [r7, #4]
 800435a:	6c9b      	ldr	r3, [r3, #72]	; 0x48
 800435c:	2b00      	cmp	r3, #0
 800435e:	d01b      	beq.n	8004398 <HAL_DMA_IRQHandler+0x170>
 8004360:	687b      	ldr	r3, [r7, #4]
 8004362:	6c9b      	ldr	r3, [r3, #72]	; 0x48
 8004364:	6878      	ldr	r0, [r7, #4]
 8004366:	4798      	blx	r3
 8004368:	e016      	b.n	8004398 <HAL_DMA_IRQHandler+0x170>
 800436a:	687b      	ldr	r3, [r7, #4]
 800436c:	681b      	ldr	r3, [r3, #0]
 800436e:	681b      	ldr	r3, [r3, #0]
 8004370:	f403 7380 	and.w	r3, r3, #256	; 0x100
 8004374:	2b00      	cmp	r3, #0
 8004376:	d107      	bne.n	8004388 <HAL_DMA_IRQHandler+0x160>
 8004378:	687b      	ldr	r3, [r7, #4]
 800437a:	681b      	ldr	r3, [r3, #0]
 800437c:	681a      	ldr	r2, [r3, #0]
 800437e:	687b      	ldr	r3, [r7, #4]
 8004380:	681b      	ldr	r3, [r3, #0]
 8004382:	f022 0208 	bic.w	r2, r2, #8
 8004386:	601a      	str	r2, [r3, #0]
 8004388:	687b      	ldr	r3, [r7, #4]
 800438a:	6c1b      	ldr	r3, [r3, #64]	; 0x40
 800438c:	2b00      	cmp	r3, #0
 800438e:	d003      	beq.n	8004398 <HAL_DMA_IRQHandler+0x170>
 8004390:	687b      	ldr	r3, [r7, #4]
 8004392:	6c1b      	ldr	r3, [r3, #64]	; 0x40
 8004394:	6878      	ldr	r0, [r7, #4]
 8004396:	4798      	blx	r3
 8004398:	687b      	ldr	r3, [r7, #4]
 800439a:	6ddb      	ldr	r3, [r3, #92]	; 0x5c
 800439c:	2220      	movs	r2, #32
 800439e:	409a      	lsls	r2, r3
 80043a0:	68fb      	ldr	r3, [r7, #12]
 80043a2:	4013      	ands	r3, r2
 80043a4:	2b00      	cmp	r3, #0
 80043a6:	f000 808f 	beq.w	80044c8 <HAL_DMA_IRQHandler+0x2a0>
 80043aa:	687b      	ldr	r3, [r7, #4]
 80043ac:	681b      	ldr	r3, [r3, #0]
 80043ae:	681b      	ldr	r3, [r3, #0]
 80043b0:	f003 0310 	and.w	r3, r3, #16
 80043b4:	2b00      	cmp	r3, #0
 80043b6:	f000 8087 	beq.w	80044c8 <HAL_DMA_IRQHandler+0x2a0>
 80043ba:	687b      	ldr	r3, [r7, #4]
 80043bc:	6ddb      	ldr	r3, [r3, #92]	; 0x5c
 80043be:	2220      	movs	r2, #32
 80043c0:	409a      	lsls	r2, r3
 80043c2:	693b      	ldr	r3, [r7, #16]
 80043c4:	609a      	str	r2, [r3, #8]
 80043c6:	687b      	ldr	r3, [r7, #4]
 80043c8:	f893 3035 	ldrb.w	r3, [r3, #53]	; 0x35
 80043cc:	b2db      	uxtb	r3, r3
 80043ce:	2b05      	cmp	r3, #5
 80043d0:	d136      	bne.n	8004440 <HAL_DMA_IRQHandler+0x218>
 80043d2:	687b      	ldr	r3, [r7, #4]
 80043d4:	681b      	ldr	r3, [r3, #0]
 80043d6:	681a      	ldr	r2, [r3, #0]
 80043d8:	687b      	ldr	r3, [r7, #4]
 80043da:	681b      	ldr	r3, [r3, #0]
 80043dc:	f022 0216 	bic.w	r2, r2, #22
 80043e0:	601a      	str	r2, [r3, #0]
 80043e2:	687b      	ldr	r3, [r7, #4]
 80043e4:	681b      	ldr	r3, [r3, #0]
 80043e6:	695a      	ldr	r2, [r3, #20]
 80043e8:	687b      	ldr	r3, [r7, #4]
 80043ea:	681b      	ldr	r3, [r3, #0]
 80043ec:	f022 0280 	bic.w	r2, r2, #128	; 0x80
 80043f0:	615a      	str	r2, [r3, #20]
 80043f2:	687b      	ldr	r3, [r7, #4]
 80043f4:	6c1b      	ldr	r3, [r3, #64]	; 0x40
 80043f6:	2b00      	cmp	r3, #0
 80043f8:	d103      	bne.n	8004402 <HAL_DMA_IRQHandler+0x1da>
 80043fa:	687b      	ldr	r3, [r7, #4]
 80043fc:	6c9b      	ldr	r3, [r3, #72]	; 0x48
 80043fe:	2b00      	cmp	r3, #0
 8004400:	d007      	beq.n	8004412 <HAL_DMA_IRQHandler+0x1ea>
 8004402:	687b      	ldr	r3, [r7, #4]
 8004404:	681b      	ldr	r3, [r3, #0]
 8004406:	681a      	ldr	r2, [r3, #0]
 8004408:	687b      	ldr	r3, [r7, #4]
 800440a:	681b      	ldr	r3, [r3, #0]
 800440c:	f022 0208 	bic.w	r2, r2, #8
 8004410:	601a      	str	r2, [r3, #0]
 8004412:	687b      	ldr	r3, [r7, #4]
 8004414:	6ddb      	ldr	r3, [r3, #92]	; 0x5c
 8004416:	223f      	movs	r2, #63	; 0x3f
 8004418:	409a      	lsls	r2, r3
 800441a:	693b      	ldr	r3, [r7, #16]
 800441c:	609a      	str	r2, [r3, #8]
 800441e:	687b      	ldr	r3, [r7, #4]
 8004420:	2201      	movs	r2, #1
 8004422:	f883 2035 	strb.w	r2, [r3, #53]	; 0x35
 8004426:	687b      	ldr	r3, [r7, #4]
 8004428:	2200      	movs	r2, #0
 800442a:	f883 2034 	strb.w	r2, [r3, #52]	; 0x34
 800442e:	687b      	ldr	r3, [r7, #4]
 8004430:	6d1b      	ldr	r3, [r3, #80]	; 0x50
 8004432:	2b00      	cmp	r3, #0
 8004434:	d07e      	beq.n	8004534 <HAL_DMA_IRQHandler+0x30c>
 8004436:	687b      	ldr	r3, [r7, #4]
 8004438:	6d1b      	ldr	r3, [r3, #80]	; 0x50
 800443a:	6878      	ldr	r0, [r7, #4]
 800443c:	4798      	blx	r3
 800443e:	e079      	b.n	8004534 <HAL_DMA_IRQHandler+0x30c>
 8004440:	687b      	ldr	r3, [r7, #4]
 8004442:	681b      	ldr	r3, [r3, #0]
 8004444:	681b      	ldr	r3, [r3, #0]
 8004446:	f403 2380 	and.w	r3, r3, #262144	; 0x40000
 800444a:	2b00      	cmp	r3, #0
 800444c:	d01d      	beq.n	800448a <HAL_DMA_IRQHandler+0x262>
 800444e:	687b      	ldr	r3, [r7, #4]
 8004450:	681b      	ldr	r3, [r3, #0]
 8004452:	681b      	ldr	r3, [r3, #0]
 8004454:	f403 2300 	and.w	r3, r3, #524288	; 0x80000
 8004458:	2b00      	cmp	r3, #0
 800445a:	d10d      	bne.n	8004478 <HAL_DMA_IRQHandler+0x250>
 800445c:	687b      	ldr	r3, [r7, #4]
 800445e:	6c5b      	ldr	r3, [r3, #68]	; 0x44
 8004460:	2b00      	cmp	r3, #0
 8004462:	d031      	beq.n	80044c8 <HAL_DMA_IRQHandler+0x2a0>
 8004464:	687b      	ldr	r3, [r7, #4]
 8004466:	6c5b      	ldr	r3, [r3, #68]	; 0x44
 8004468:	6878      	ldr	r0, [r7, #4]
 800446a:	4798      	blx	r3
 800446c:	e02c      	b.n	80044c8 <HAL_DMA_IRQHandler+0x2a0>
 800446e:	bf00      	nop
 8004470:	20000208 	.word	0x20000208
 8004474:	1b4e81b5 	.word	0x1b4e81b5
 8004478:	687b      	ldr	r3, [r7, #4]
 800447a:	6bdb      	ldr	r3, [r3, #60]	; 0x3c
 800447c:	2b00      	cmp	r3, #0
 800447e:	d023      	beq.n	80044c8 <HAL_DMA_IRQHandler+0x2a0>
 8004480:	687b      	ldr	r3, [r7, #4]
 8004482:	6bdb      	ldr	r3, [r3, #60]	; 0x3c
 8004484:	6878      	ldr	r0, [r7, #4]
 8004486:	4798      	blx	r3
 8004488:	e01e      	b.n	80044c8 <HAL_DMA_IRQHandler+0x2a0>
 800448a:	687b      	ldr	r3, [r7, #4]
 800448c:	681b      	ldr	r3, [r3, #0]
 800448e:	681b      	ldr	r3, [r3, #0]
 8004490:	f403 7380 	and.w	r3, r3, #256	; 0x100
 8004494:	2b00      	cmp	r3, #0
 8004496:	d10f      	bne.n	80044b8 <HAL_DMA_IRQHandler+0x290>
 8004498:	687b      	ldr	r3, [r7, #4]
 800449a:	681b      	ldr	r3, [r3, #0]
 800449c:	681a      	ldr	r2, [r3, #0]
 800449e:	687b      	ldr	r3, [r7, #4]
 80044a0:	681b      	ldr	r3, [r3, #0]
 80044a2:	f022 0210 	bic.w	r2, r2, #16
 80044a6:	601a      	str	r2, [r3, #0]
 80044a8:	687b      	ldr	r3, [r7, #4]
 80044aa:	2201      	movs	r2, #1
 80044ac:	f883 2035 	strb.w	r2, [r3, #53]	; 0x35
 80044b0:	687b      	ldr	r3, [r7, #4]
 80044b2:	2200      	movs	r2, #0
 80044b4:	f883 2034 	strb.w	r2, [r3, #52]	; 0x34
 80044b8:	687b      	ldr	r3, [r7, #4]
 80044ba:	6bdb      	ldr	r3, [r3, #60]	; 0x3c
 80044bc:	2b00      	cmp	r3, #0
 80044be:	d003      	beq.n	80044c8 <HAL_DMA_IRQHandler+0x2a0>
 80044c0:	687b      	ldr	r3, [r7, #4]
 80044c2:	6bdb      	ldr	r3, [r3, #60]	; 0x3c
 80044c4:	6878      	ldr	r0, [r7, #4]
 80044c6:	4798      	blx	r3
 80044c8:	687b      	ldr	r3, [r7, #4]
 80044ca:	6d5b      	ldr	r3, [r3, #84]	; 0x54
 80044cc:	2b00      	cmp	r3, #0
 80044ce:	d032      	beq.n	8004536 <HAL_DMA_IRQHandler+0x30e>
 80044d0:	687b      	ldr	r3, [r7, #4]
 80044d2:	6d5b      	ldr	r3, [r3, #84]	; 0x54
 80044d4:	f003 0301 	and.w	r3, r3, #1
 80044d8:	2b00      	cmp	r3, #0
 80044da:	d022      	beq.n	8004522 <HAL_DMA_IRQHandler+0x2fa>
 80044dc:	687b      	ldr	r3, [r7, #4]
 80044de:	2205      	movs	r2, #5
 80044e0:	f883 2035 	strb.w	r2, [r3, #53]	; 0x35
 80044e4:	687b      	ldr	r3, [r7, #4]
 80044e6:	681b      	ldr	r3, [r3, #0]
 80044e8:	681a      	ldr	r2, [r3, #0]
 80044ea:	687b      	ldr	r3, [r7, #4]
 80044ec:	681b      	ldr	r3, [r3, #0]
 80044ee:	f022 0201 	bic.w	r2, r2, #1
 80044f2:	601a      	str	r2, [r3, #0]
 80044f4:	68bb      	ldr	r3, [r7, #8]
 80044f6:	3301      	adds	r3, #1
 80044f8:	60bb      	str	r3, [r7, #8]
 80044fa:	697a      	ldr	r2, [r7, #20]
 80044fc:	429a      	cmp	r2, r3
 80044fe:	d307      	bcc.n	8004510 <HAL_DMA_IRQHandler+0x2e8>
 8004500:	687b      	ldr	r3, [r7, #4]
 8004502:	681b      	ldr	r3, [r3, #0]
 8004504:	681b      	ldr	r3, [r3, #0]
 8004506:	f003 0301 	and.w	r3, r3, #1
 800450a:	2b00      	cmp	r3, #0
 800450c:	d1f2      	bne.n	80044f4 <HAL_DMA_IRQHandler+0x2cc>
 800450e:	e000      	b.n	8004512 <HAL_DMA_IRQHandler+0x2ea>
 8004510:	bf00      	nop
 8004512:	687b      	ldr	r3, [r7, #4]
 8004514:	2201      	movs	r2, #1
 8004516:	f883 2035 	strb.w	r2, [r3, #53]	; 0x35
 800451a:	687b      	ldr	r3, [r7, #4]
 800451c:	2200      	movs	r2, #0
 800451e:	f883 2034 	strb.w	r2, [r3, #52]	; 0x34
 8004522:	687b      	ldr	r3, [r7, #4]
 8004524:	6cdb      	ldr	r3, [r3, #76]	; 0x4c
 8004526:	2b00      	cmp	r3, #0
 8004528:	d005      	beq.n	8004536 <HAL_DMA_IRQHandler+0x30e>
 800452a:	687b      	ldr	r3, [r7, #4]
 800452c:	6cdb      	ldr	r3, [r3, #76]	; 0x4c
 800452e:	6878      	ldr	r0, [r7, #4]
 8004530:	4798      	blx	r3
 8004532:	e000      	b.n	8004536 <HAL_DMA_IRQHandler+0x30e>
 8004534:	bf00      	nop
 8004536:	3718      	adds	r7, #24
 8004538:	46bd      	mov	sp, r7
 800453a:	bd80      	pop	{r7, pc}

0800453c <DMA_SetConfig>:
 800453c:	b480      	push	{r7}
 800453e:	b085      	sub	sp, #20
 8004540:	af00      	add	r7, sp, #0
 8004542:	60f8      	str	r0, [r7, #12]
 8004544:	60b9      	str	r1, [r7, #8]
 8004546:	607a      	str	r2, [r7, #4]
 8004548:	603b      	str	r3, [r7, #0]
 800454a:	68fb      	ldr	r3, [r7, #12]
 800454c:	681b      	ldr	r3, [r3, #0]
 800454e:	681a      	ldr	r2, [r3, #0]
 8004550:	68fb      	ldr	r3, [r7, #12]
 8004552:	681b      	ldr	r3, [r3, #0]
 8004554:	f422 2280 	bic.w	r2, r2, #262144	; 0x40000
 8004558:	601a      	str	r2, [r3, #0]
 800455a:	68fb      	ldr	r3, [r7, #12]
 800455c:	681b      	ldr	r3, [r3, #0]
 800455e:	683a      	ldr	r2, [r7, #0]
 8004560:	605a      	str	r2, [r3, #4]
 8004562:	68fb      	ldr	r3, [r7, #12]
 8004564:	689b      	ldr	r3, [r3, #8]
 8004566:	2b40      	cmp	r3, #64	; 0x40
 8004568:	d108      	bne.n	800457c <DMA_SetConfig+0x40>
 800456a:	68fb      	ldr	r3, [r7, #12]
 800456c:	681b      	ldr	r3, [r3, #0]
 800456e:	687a      	ldr	r2, [r7, #4]
 8004570:	609a      	str	r2, [r3, #8]
 8004572:	68fb      	ldr	r3, [r7, #12]
 8004574:	681b      	ldr	r3, [r3, #0]
 8004576:	68ba      	ldr	r2, [r7, #8]
 8004578:	60da      	str	r2, [r3, #12]
 800457a:	e007      	b.n	800458c <DMA_SetConfig+0x50>
 800457c:	68fb      	ldr	r3, [r7, #12]
 800457e:	681b      	ldr	r3, [r3, #0]
 8004580:	68ba      	ldr	r2, [r7, #8]
 8004582:	609a      	str	r2, [r3, #8]
 8004584:	68fb      	ldr	r3, [r7, #12]
 8004586:	681b      	ldr	r3, [r3, #0]
 8004588:	687a      	ldr	r2, [r7, #4]
 800458a:	60da      	str	r2, [r3, #12]
 800458c:	bf00      	nop
 800458e:	3714      	adds	r7, #20
 8004590:	46bd      	mov	sp, r7
 8004592:	f85d 7b04 	ldr.w	r7, [sp], #4
 8004596:	4770      	bx	lr

08004598 <DMA_CalcBaseAndBitshift>:
 8004598:	b480      	push	{r7}
 800459a:	b085      	sub	sp, #20
 800459c:	af00      	add	r7, sp, #0
 800459e:	6078      	str	r0, [r7, #4]
 80045a0:	687b      	ldr	r3, [r7, #4]
 80045a2:	681b      	ldr	r3, [r3, #0]
 80045a4:	b2db      	uxtb	r3, r3
 80045a6:	3b10      	subs	r3, #16
 80045a8:	4a14      	ldr	r2, [pc, #80]	; (80045fc <DMA_CalcBaseAndBitshift+0x64>)
 80045aa:	fba2 2303 	umull	r2, r3, r2, r3
 80045ae:	091b      	lsrs	r3, r3, #4
 80045b0:	60fb      	str	r3, [r7, #12]
 80045b2:	4a13      	ldr	r2, [pc, #76]	; (8004600 <DMA_CalcBaseAndBitshift+0x68>)
 80045b4:	68fb      	ldr	r3, [r7, #12]
 80045b6:	4413      	add	r3, r2
 80045b8:	781b      	ldrb	r3, [r3, #0]
 80045ba:	461a      	mov	r2, r3
 80045bc:	687b      	ldr	r3, [r7, #4]
 80045be:	65da      	str	r2, [r3, #92]	; 0x5c
 80045c0:	68fb      	ldr	r3, [r7, #12]
 80045c2:	2b03      	cmp	r3, #3
 80045c4:	d909      	bls.n	80045da <DMA_CalcBaseAndBitshift+0x42>
 80045c6:	687b      	ldr	r3, [r7, #4]
 80045c8:	681b      	ldr	r3, [r3, #0]
 80045ca:	f423 737f 	bic.w	r3, r3, #1020	; 0x3fc
 80045ce:	f023 0303 	bic.w	r3, r3, #3
 80045d2:	1d1a      	adds	r2, r3, #4
 80045d4:	687b      	ldr	r3, [r7, #4]
 80045d6:	659a      	str	r2, [r3, #88]	; 0x58
 80045d8:	e007      	b.n	80045ea <DMA_CalcBaseAndBitshift+0x52>
 80045da:	687b      	ldr	r3, [r7, #4]
 80045dc:	681b      	ldr	r3, [r3, #0]
 80045de:	f423 737f 	bic.w	r3, r3, #1020	; 0x3fc
 80045e2:	f023 0303 	bic.w	r3, r3, #3
 80045e6:	687a      	ldr	r2, [r7, #4]
 80045e8:	6593      	str	r3, [r2, #88]	; 0x58
 80045ea:	687b      	ldr	r3, [r7, #4]
 80045ec:	6d9b      	ldr	r3, [r3, #88]	; 0x58
 80045ee:	4618      	mov	r0, r3
 80045f0:	3714      	adds	r7, #20
 80045f2:	46bd      	mov	sp, r7
 80045f4:	f85d 7b04 	ldr.w	r7, [sp], #4
 80045f8:	4770      	bx	lr
 80045fa:	bf00      	nop
 80045fc:	aaaaaaab 	.word	0xaaaaaaab
 8004600:	0800afe8 	.word	0x0800afe8

08004604 <DMA_CheckFifoParam>:
 8004604:	b480      	push	{r7}
 8004606:	b085      	sub	sp, #20
 8004608:	af00      	add	r7, sp, #0
 800460a:	6078      	str	r0, [r7, #4]
 800460c:	2300      	movs	r3, #0
 800460e:	73fb      	strb	r3, [r7, #15]
 8004610:	687b      	ldr	r3, [r7, #4]
 8004612:	6a9b      	ldr	r3, [r3, #40]	; 0x28
 8004614:	60bb      	str	r3, [r7, #8]
 8004616:	687b      	ldr	r3, [r7, #4]
 8004618:	699b      	ldr	r3, [r3, #24]
 800461a:	2b00      	cmp	r3, #0
 800461c:	d11f      	bne.n	800465e <DMA_CheckFifoParam+0x5a>
 800461e:	68bb      	ldr	r3, [r7, #8]
 8004620:	2b03      	cmp	r3, #3
 8004622:	d856      	bhi.n	80046d2 <DMA_CheckFifoParam+0xce>
 8004624:	a201      	add	r2, pc, #4	; (adr r2, 800462c <DMA_CheckFifoParam+0x28>)
 8004626:	f852 f023 	ldr.w	pc, [r2, r3, lsl #2]
 800462a:	bf00      	nop
 800462c:	0800463d 	.word	0x0800463d
 8004630:	0800464f 	.word	0x0800464f
 8004634:	0800463d 	.word	0x0800463d
 8004638:	080046d3 	.word	0x080046d3
 800463c:	687b      	ldr	r3, [r7, #4]
 800463e:	6adb      	ldr	r3, [r3, #44]	; 0x2c
 8004640:	f003 7380 	and.w	r3, r3, #16777216	; 0x1000000
 8004644:	2b00      	cmp	r3, #0
 8004646:	d046      	beq.n	80046d6 <DMA_CheckFifoParam+0xd2>
 8004648:	2301      	movs	r3, #1
 800464a:	73fb      	strb	r3, [r7, #15]
 800464c:	e043      	b.n	80046d6 <DMA_CheckFifoParam+0xd2>
 800464e:	687b      	ldr	r3, [r7, #4]
 8004650:	6adb      	ldr	r3, [r3, #44]	; 0x2c
 8004652:	f1b3 7fc0 	cmp.w	r3, #25165824	; 0x1800000
 8004656:	d140      	bne.n	80046da <DMA_CheckFifoParam+0xd6>
 8004658:	2301      	movs	r3, #1
 800465a:	73fb      	strb	r3, [r7, #15]
 800465c:	e03d      	b.n	80046da <DMA_CheckFifoParam+0xd6>
 800465e:	687b      	ldr	r3, [r7, #4]
 8004660:	699b      	ldr	r3, [r3, #24]
 8004662:	f5b3 5f00 	cmp.w	r3, #8192	; 0x2000
 8004666:	d121      	bne.n	80046ac <DMA_CheckFifoParam+0xa8>
 8004668:	68bb      	ldr	r3, [r7, #8]
 800466a:	2b03      	cmp	r3, #3
 800466c:	d837      	bhi.n	80046de <DMA_CheckFifoParam+0xda>
 800466e:	a201      	add	r2, pc, #4	; (adr r2, 8004674 <DMA_CheckFifoParam+0x70>)
 8004670:	f852 f023 	ldr.w	pc, [r2, r3, lsl #2]
 8004674:	08004685 	.word	0x08004685
 8004678:	0800468b 	.word	0x0800468b
 800467c:	08004685 	.word	0x08004685
 8004680:	0800469d 	.word	0x0800469d
 8004684:	2301      	movs	r3, #1
 8004686:	73fb      	strb	r3, [r7, #15]
 8004688:	e030      	b.n	80046ec <DMA_CheckFifoParam+0xe8>
 800468a:	687b      	ldr	r3, [r7, #4]
 800468c:	6adb      	ldr	r3, [r3, #44]	; 0x2c
 800468e:	f003 7380 	and.w	r3, r3, #16777216	; 0x1000000
 8004692:	2b00      	cmp	r3, #0
 8004694:	d025      	beq.n	80046e2 <DMA_CheckFifoParam+0xde>
 8004696:	2301      	movs	r3, #1
 8004698:	73fb      	strb	r3, [r7, #15]
 800469a:	e022      	b.n	80046e2 <DMA_CheckFifoParam+0xde>
 800469c:	687b      	ldr	r3, [r7, #4]
 800469e:	6adb      	ldr	r3, [r3, #44]	; 0x2c
 80046a0:	f1b3 7fc0 	cmp.w	r3, #25165824	; 0x1800000
 80046a4:	d11f      	bne.n	80046e6 <DMA_CheckFifoParam+0xe2>
 80046a6:	2301      	movs	r3, #1
 80046a8:	73fb      	strb	r3, [r7, #15]
 80046aa:	e01c      	b.n	80046e6 <DMA_CheckFifoParam+0xe2>
 80046ac:	68bb      	ldr	r3, [r7, #8]
 80046ae:	2b02      	cmp	r3, #2
 80046b0:	d903      	bls.n	80046ba <DMA_CheckFifoParam+0xb6>
 80046b2:	68bb      	ldr	r3, [r7, #8]
 80046b4:	2b03      	cmp	r3, #3
 80046b6:	d003      	beq.n	80046c0 <DMA_CheckFifoParam+0xbc>
 80046b8:	e018      	b.n	80046ec <DMA_CheckFifoParam+0xe8>
 80046ba:	2301      	movs	r3, #1
 80046bc:	73fb      	strb	r3, [r7, #15]
 80046be:	e015      	b.n	80046ec <DMA_CheckFifoParam+0xe8>
 80046c0:	687b      	ldr	r3, [r7, #4]
 80046c2:	6adb      	ldr	r3, [r3, #44]	; 0x2c
 80046c4:	f003 7380 	and.w	r3, r3, #16777216	; 0x1000000
 80046c8:	2b00      	cmp	r3, #0
 80046ca:	d00e      	beq.n	80046ea <DMA_CheckFifoParam+0xe6>
 80046cc:	2301      	movs	r3, #1
 80046ce:	73fb      	strb	r3, [r7, #15]
 80046d0:	e00b      	b.n	80046ea <DMA_CheckFifoParam+0xe6>
 80046d2:	bf00      	nop
 80046d4:	e00a      	b.n	80046ec <DMA_CheckFifoParam+0xe8>
 80046d6:	bf00      	nop
 80046d8:	e008      	b.n	80046ec <DMA_CheckFifoParam+0xe8>
 80046da:	bf00      	nop
 80046dc:	e006      	b.n	80046ec <DMA_CheckFifoParam+0xe8>
 80046de:	bf00      	nop
 80046e0:	e004      	b.n	80046ec <DMA_CheckFifoParam+0xe8>
 80046e2:	bf00      	nop
 80046e4:	e002      	b.n	80046ec <DMA_CheckFifoParam+0xe8>
 80046e6:	bf00      	nop
 80046e8:	e000      	b.n	80046ec <DMA_CheckFifoParam+0xe8>
 80046ea:	bf00      	nop
 80046ec:	7bfb      	ldrb	r3, [r7, #15]
 80046ee:	4618      	mov	r0, r3
 80046f0:	3714      	adds	r7, #20
 80046f2:	46bd      	mov	sp, r7
 80046f4:	f85d 7b04 	ldr.w	r7, [sp], #4
 80046f8:	4770      	bx	lr
 80046fa:	bf00      	nop

080046fc <HAL_GPIO_Init>:
 80046fc:	b480      	push	{r7}
 80046fe:	b089      	sub	sp, #36	; 0x24
 8004700:	af00      	add	r7, sp, #0
 8004702:	6078      	str	r0, [r7, #4]
 8004704:	6039      	str	r1, [r7, #0]
 8004706:	2300      	movs	r3, #0
 8004708:	617b      	str	r3, [r7, #20]
 800470a:	2300      	movs	r3, #0
 800470c:	613b      	str	r3, [r7, #16]
 800470e:	2300      	movs	r3, #0
 8004710:	61bb      	str	r3, [r7, #24]
 8004712:	2300      	movs	r3, #0
 8004714:	61fb      	str	r3, [r7, #28]
 8004716:	e16b      	b.n	80049f0 <HAL_GPIO_Init+0x2f4>
 8004718:	2201      	movs	r2, #1
 800471a:	69fb      	ldr	r3, [r7, #28]
 800471c:	fa02 f303 	lsl.w	r3, r2, r3
 8004720:	617b      	str	r3, [r7, #20]
 8004722:	683b      	ldr	r3, [r7, #0]
 8004724:	681b      	ldr	r3, [r3, #0]
 8004726:	697a      	ldr	r2, [r7, #20]
 8004728:	4013      	ands	r3, r2
 800472a:	613b      	str	r3, [r7, #16]
 800472c:	693a      	ldr	r2, [r7, #16]
 800472e:	697b      	ldr	r3, [r7, #20]
 8004730:	429a      	cmp	r2, r3
 8004732:	f040 815a 	bne.w	80049ea <HAL_GPIO_Init+0x2ee>
 8004736:	683b      	ldr	r3, [r7, #0]
 8004738:	685b      	ldr	r3, [r3, #4]
 800473a:	f003 0303 	and.w	r3, r3, #3
 800473e:	2b01      	cmp	r3, #1
 8004740:	d005      	beq.n	800474e <HAL_GPIO_Init+0x52>
 8004742:	683b      	ldr	r3, [r7, #0]
 8004744:	685b      	ldr	r3, [r3, #4]
 8004746:	f003 0303 	and.w	r3, r3, #3
 800474a:	2b02      	cmp	r3, #2
 800474c:	d130      	bne.n	80047b0 <HAL_GPIO_Init+0xb4>
 800474e:	687b      	ldr	r3, [r7, #4]
 8004750:	689b      	ldr	r3, [r3, #8]
 8004752:	61bb      	str	r3, [r7, #24]
 8004754:	69fb      	ldr	r3, [r7, #28]
 8004756:	005b      	lsls	r3, r3, #1
 8004758:	2203      	movs	r2, #3
 800475a:	fa02 f303 	lsl.w	r3, r2, r3
 800475e:	43db      	mvns	r3, r3
 8004760:	69ba      	ldr	r2, [r7, #24]
 8004762:	4013      	ands	r3, r2
 8004764:	61bb      	str	r3, [r7, #24]
 8004766:	683b      	ldr	r3, [r7, #0]
 8004768:	68da      	ldr	r2, [r3, #12]
 800476a:	69fb      	ldr	r3, [r7, #28]
 800476c:	005b      	lsls	r3, r3, #1
 800476e:	fa02 f303 	lsl.w	r3, r2, r3
 8004772:	69ba      	ldr	r2, [r7, #24]
 8004774:	4313      	orrs	r3, r2
 8004776:	61bb      	str	r3, [r7, #24]
 8004778:	687b      	ldr	r3, [r7, #4]
 800477a:	69ba      	ldr	r2, [r7, #24]
 800477c:	609a      	str	r2, [r3, #8]
 800477e:	687b      	ldr	r3, [r7, #4]
 8004780:	685b      	ldr	r3, [r3, #4]
 8004782:	61bb      	str	r3, [r7, #24]
 8004784:	2201      	movs	r2, #1
 8004786:	69fb      	ldr	r3, [r7, #28]
 8004788:	fa02 f303 	lsl.w	r3, r2, r3
 800478c:	43db      	mvns	r3, r3
 800478e:	69ba      	ldr	r2, [r7, #24]
 8004790:	4013      	ands	r3, r2
 8004792:	61bb      	str	r3, [r7, #24]
 8004794:	683b      	ldr	r3, [r7, #0]
 8004796:	685b      	ldr	r3, [r3, #4]
 8004798:	091b      	lsrs	r3, r3, #4
 800479a:	f003 0201 	and.w	r2, r3, #1
 800479e:	69fb      	ldr	r3, [r7, #28]
 80047a0:	fa02 f303 	lsl.w	r3, r2, r3
 80047a4:	69ba      	ldr	r2, [r7, #24]
 80047a6:	4313      	orrs	r3, r2
 80047a8:	61bb      	str	r3, [r7, #24]
 80047aa:	687b      	ldr	r3, [r7, #4]
 80047ac:	69ba      	ldr	r2, [r7, #24]
 80047ae:	605a      	str	r2, [r3, #4]
 80047b0:	683b      	ldr	r3, [r7, #0]
 80047b2:	685b      	ldr	r3, [r3, #4]
 80047b4:	f003 0303 	and.w	r3, r3, #3
 80047b8:	2b03      	cmp	r3, #3
 80047ba:	d017      	beq.n	80047ec <HAL_GPIO_Init+0xf0>
 80047bc:	687b      	ldr	r3, [r7, #4]
 80047be:	68db      	ldr	r3, [r3, #12]
 80047c0:	61bb      	str	r3, [r7, #24]
 80047c2:	69fb      	ldr	r3, [r7, #28]
 80047c4:	005b      	lsls	r3, r3, #1
 80047c6:	2203      	movs	r2, #3
 80047c8:	fa02 f303 	lsl.w	r3, r2, r3
 80047cc:	43db      	mvns	r3, r3
 80047ce:	69ba      	ldr	r2, [r7, #24]
 80047d0:	4013      	ands	r3, r2
 80047d2:	61bb      	str	r3, [r7, #24]
 80047d4:	683b      	ldr	r3, [r7, #0]
 80047d6:	689a      	ldr	r2, [r3, #8]
 80047d8:	69fb      	ldr	r3, [r7, #28]
 80047da:	005b      	lsls	r3, r3, #1
 80047dc:	fa02 f303 	lsl.w	r3, r2, r3
 80047e0:	69ba      	ldr	r2, [r7, #24]
 80047e2:	4313      	orrs	r3, r2
 80047e4:	61bb      	str	r3, [r7, #24]
 80047e6:	687b      	ldr	r3, [r7, #4]
 80047e8:	69ba      	ldr	r2, [r7, #24]
 80047ea:	60da      	str	r2, [r3, #12]
 80047ec:	683b      	ldr	r3, [r7, #0]
 80047ee:	685b      	ldr	r3, [r3, #4]
 80047f0:	f003 0303 	and.w	r3, r3, #3
 80047f4:	2b02      	cmp	r3, #2
 80047f6:	d123      	bne.n	8004840 <HAL_GPIO_Init+0x144>
 80047f8:	69fb      	ldr	r3, [r7, #28]
 80047fa:	08da      	lsrs	r2, r3, #3
 80047fc:	687b      	ldr	r3, [r7, #4]
 80047fe:	3208      	adds	r2, #8
 8004800:	f853 3022 	ldr.w	r3, [r3, r2, lsl #2]
 8004804:	61bb      	str	r3, [r7, #24]
 8004806:	69fb      	ldr	r3, [r7, #28]
 8004808:	f003 0307 	and.w	r3, r3, #7
 800480c:	009b      	lsls	r3, r3, #2
 800480e:	220f      	movs	r2, #15
 8004810:	fa02 f303 	lsl.w	r3, r2, r3
 8004814:	43db      	mvns	r3, r3
 8004816:	69ba      	ldr	r2, [r7, #24]
 8004818:	4013      	ands	r3, r2
 800481a:	61bb      	str	r3, [r7, #24]
 800481c:	683b      	ldr	r3, [r7, #0]
 800481e:	691a      	ldr	r2, [r3, #16]
 8004820:	69fb      	ldr	r3, [r7, #28]
 8004822:	f003 0307 	and.w	r3, r3, #7
 8004826:	009b      	lsls	r3, r3, #2
 8004828:	fa02 f303 	lsl.w	r3, r2, r3
 800482c:	69ba      	ldr	r2, [r7, #24]
 800482e:	4313      	orrs	r3, r2
 8004830:	61bb      	str	r3, [r7, #24]
 8004832:	69fb      	ldr	r3, [r7, #28]
 8004834:	08da      	lsrs	r2, r3, #3
 8004836:	687b      	ldr	r3, [r7, #4]
 8004838:	3208      	adds	r2, #8
 800483a:	69b9      	ldr	r1, [r7, #24]
 800483c:	f843 1022 	str.w	r1, [r3, r2, lsl #2]
 8004840:	687b      	ldr	r3, [r7, #4]
 8004842:	681b      	ldr	r3, [r3, #0]
 8004844:	61bb      	str	r3, [r7, #24]
 8004846:	69fb      	ldr	r3, [r7, #28]
 8004848:	005b      	lsls	r3, r3, #1
 800484a:	2203      	movs	r2, #3
 800484c:	fa02 f303 	lsl.w	r3, r2, r3
 8004850:	43db      	mvns	r3, r3
 8004852:	69ba      	ldr	r2, [r7, #24]
 8004854:	4013      	ands	r3, r2
 8004856:	61bb      	str	r3, [r7, #24]
 8004858:	683b      	ldr	r3, [r7, #0]
 800485a:	685b      	ldr	r3, [r3, #4]
 800485c:	f003 0203 	and.w	r2, r3, #3
 8004860:	69fb      	ldr	r3, [r7, #28]
 8004862:	005b      	lsls	r3, r3, #1
 8004864:	fa02 f303 	lsl.w	r3, r2, r3
 8004868:	69ba      	ldr	r2, [r7, #24]
 800486a:	4313      	orrs	r3, r2
 800486c:	61bb      	str	r3, [r7, #24]
 800486e:	687b      	ldr	r3, [r7, #4]
 8004870:	69ba      	ldr	r2, [r7, #24]
 8004872:	601a      	str	r2, [r3, #0]
 8004874:	683b      	ldr	r3, [r7, #0]
 8004876:	685b      	ldr	r3, [r3, #4]
 8004878:	f403 3340 	and.w	r3, r3, #196608	; 0x30000
 800487c:	2b00      	cmp	r3, #0
 800487e:	f000 80b4 	beq.w	80049ea <HAL_GPIO_Init+0x2ee>
 8004882:	2300      	movs	r3, #0
 8004884:	60fb      	str	r3, [r7, #12]
 8004886:	4b60      	ldr	r3, [pc, #384]	; (8004a08 <HAL_GPIO_Init+0x30c>)
 8004888:	6c5b      	ldr	r3, [r3, #68]	; 0x44
 800488a:	4a5f      	ldr	r2, [pc, #380]	; (8004a08 <HAL_GPIO_Init+0x30c>)
 800488c:	f443 4380 	orr.w	r3, r3, #16384	; 0x4000
 8004890:	6453      	str	r3, [r2, #68]	; 0x44
 8004892:	4b5d      	ldr	r3, [pc, #372]	; (8004a08 <HAL_GPIO_Init+0x30c>)
 8004894:	6c5b      	ldr	r3, [r3, #68]	; 0x44
 8004896:	f403 4380 	and.w	r3, r3, #16384	; 0x4000
 800489a:	60fb      	str	r3, [r7, #12]
 800489c:	68fb      	ldr	r3, [r7, #12]
 800489e:	4a5b      	ldr	r2, [pc, #364]	; (8004a0c <HAL_GPIO_Init+0x310>)
 80048a0:	69fb      	ldr	r3, [r7, #28]
 80048a2:	089b      	lsrs	r3, r3, #2
 80048a4:	3302      	adds	r3, #2
 80048a6:	f852 3023 	ldr.w	r3, [r2, r3, lsl #2]
 80048aa:	61bb      	str	r3, [r7, #24]
 80048ac:	69fb      	ldr	r3, [r7, #28]
 80048ae:	f003 0303 	and.w	r3, r3, #3
 80048b2:	009b      	lsls	r3, r3, #2
 80048b4:	220f      	movs	r2, #15
 80048b6:	fa02 f303 	lsl.w	r3, r2, r3
 80048ba:	43db      	mvns	r3, r3
 80048bc:	69ba      	ldr	r2, [r7, #24]
 80048be:	4013      	ands	r3, r2
 80048c0:	61bb      	str	r3, [r7, #24]
 80048c2:	687b      	ldr	r3, [r7, #4]
 80048c4:	4a52      	ldr	r2, [pc, #328]	; (8004a10 <HAL_GPIO_Init+0x314>)
 80048c6:	4293      	cmp	r3, r2
 80048c8:	d02b      	beq.n	8004922 <HAL_GPIO_Init+0x226>
 80048ca:	687b      	ldr	r3, [r7, #4]
 80048cc:	4a51      	ldr	r2, [pc, #324]	; (8004a14 <HAL_GPIO_Init+0x318>)
 80048ce:	4293      	cmp	r3, r2
 80048d0:	d025      	beq.n	800491e <HAL_GPIO_Init+0x222>
 80048d2:	687b      	ldr	r3, [r7, #4]
 80048d4:	4a50      	ldr	r2, [pc, #320]	; (8004a18 <HAL_GPIO_Init+0x31c>)
 80048d6:	4293      	cmp	r3, r2
 80048d8:	d01f      	beq.n	800491a <HAL_GPIO_Init+0x21e>
 80048da:	687b      	ldr	r3, [r7, #4]
 80048dc:	4a4f      	ldr	r2, [pc, #316]	; (8004a1c <HAL_GPIO_Init+0x320>)
 80048de:	4293      	cmp	r3, r2
 80048e0:	d019      	beq.n	8004916 <HAL_GPIO_Init+0x21a>
 80048e2:	687b      	ldr	r3, [r7, #4]
 80048e4:	4a4e      	ldr	r2, [pc, #312]	; (8004a20 <HAL_GPIO_Init+0x324>)
 80048e6:	4293      	cmp	r3, r2
 80048e8:	d013      	beq.n	8004912 <HAL_GPIO_Init+0x216>
 80048ea:	687b      	ldr	r3, [r7, #4]
 80048ec:	4a4d      	ldr	r2, [pc, #308]	; (8004a24 <HAL_GPIO_Init+0x328>)
 80048ee:	4293      	cmp	r3, r2
 80048f0:	d00d      	beq.n	800490e <HAL_GPIO_Init+0x212>
 80048f2:	687b      	ldr	r3, [r7, #4]
 80048f4:	4a4c      	ldr	r2, [pc, #304]	; (8004a28 <HAL_GPIO_Init+0x32c>)
 80048f6:	4293      	cmp	r3, r2
 80048f8:	d007      	beq.n	800490a <HAL_GPIO_Init+0x20e>
 80048fa:	687b      	ldr	r3, [r7, #4]
 80048fc:	4a4b      	ldr	r2, [pc, #300]	; (8004a2c <HAL_GPIO_Init+0x330>)
 80048fe:	4293      	cmp	r3, r2
 8004900:	d101      	bne.n	8004906 <HAL_GPIO_Init+0x20a>
 8004902:	2307      	movs	r3, #7
 8004904:	e00e      	b.n	8004924 <HAL_GPIO_Init+0x228>
 8004906:	2308      	movs	r3, #8
 8004908:	e00c      	b.n	8004924 <HAL_GPIO_Init+0x228>
 800490a:	2306      	movs	r3, #6
 800490c:	e00a      	b.n	8004924 <HAL_GPIO_Init+0x228>
 800490e:	2305      	movs	r3, #5
 8004910:	e008      	b.n	8004924 <HAL_GPIO_Init+0x228>
 8004912:	2304      	movs	r3, #4
 8004914:	e006      	b.n	8004924 <HAL_GPIO_Init+0x228>
 8004916:	2303      	movs	r3, #3
 8004918:	e004      	b.n	8004924 <HAL_GPIO_Init+0x228>
 800491a:	2302      	movs	r3, #2
 800491c:	e002      	b.n	8004924 <HAL_GPIO_Init+0x228>
 800491e:	2301      	movs	r3, #1
 8004920:	e000      	b.n	8004924 <HAL_GPIO_Init+0x228>
 8004922:	2300      	movs	r3, #0
 8004924:	69fa      	ldr	r2, [r7, #28]
 8004926:	f002 0203 	and.w	r2, r2, #3
 800492a:	0092      	lsls	r2, r2, #2
 800492c:	4093      	lsls	r3, r2
 800492e:	69ba      	ldr	r2, [r7, #24]
 8004930:	4313      	orrs	r3, r2
 8004932:	61bb      	str	r3, [r7, #24]
 8004934:	4935      	ldr	r1, [pc, #212]	; (8004a0c <HAL_GPIO_Init+0x310>)
 8004936:	69fb      	ldr	r3, [r7, #28]
 8004938:	089b      	lsrs	r3, r3, #2
 800493a:	3302      	adds	r3, #2
 800493c:	69ba      	ldr	r2, [r7, #24]
 800493e:	f841 2023 	str.w	r2, [r1, r3, lsl #2]
 8004942:	4b3b      	ldr	r3, [pc, #236]	; (8004a30 <HAL_GPIO_Init+0x334>)
 8004944:	689b      	ldr	r3, [r3, #8]
 8004946:	61bb      	str	r3, [r7, #24]
 8004948:	693b      	ldr	r3, [r7, #16]
 800494a:	43db      	mvns	r3, r3
 800494c:	69ba      	ldr	r2, [r7, #24]
 800494e:	4013      	ands	r3, r2
 8004950:	61bb      	str	r3, [r7, #24]
 8004952:	683b      	ldr	r3, [r7, #0]
 8004954:	685b      	ldr	r3, [r3, #4]
 8004956:	f403 1380 	and.w	r3, r3, #1048576	; 0x100000
 800495a:	2b00      	cmp	r3, #0
 800495c:	d003      	beq.n	8004966 <HAL_GPIO_Init+0x26a>
 800495e:	69ba      	ldr	r2, [r7, #24]
 8004960:	693b      	ldr	r3, [r7, #16]
 8004962:	4313      	orrs	r3, r2
 8004964:	61bb      	str	r3, [r7, #24]
 8004966:	4a32      	ldr	r2, [pc, #200]	; (8004a30 <HAL_GPIO_Init+0x334>)
 8004968:	69bb      	ldr	r3, [r7, #24]
 800496a:	6093      	str	r3, [r2, #8]
 800496c:	4b30      	ldr	r3, [pc, #192]	; (8004a30 <HAL_GPIO_Init+0x334>)
 800496e:	68db      	ldr	r3, [r3, #12]
 8004970:	61bb      	str	r3, [r7, #24]
 8004972:	693b      	ldr	r3, [r7, #16]
 8004974:	43db      	mvns	r3, r3
 8004976:	69ba      	ldr	r2, [r7, #24]
 8004978:	4013      	ands	r3, r2
 800497a:	61bb      	str	r3, [r7, #24]
 800497c:	683b      	ldr	r3, [r7, #0]
 800497e:	685b      	ldr	r3, [r3, #4]
 8004980:	f403 1300 	and.w	r3, r3, #2097152	; 0x200000
 8004984:	2b00      	cmp	r3, #0
 8004986:	d003      	beq.n	8004990 <HAL_GPIO_Init+0x294>
 8004988:	69ba      	ldr	r2, [r7, #24]
 800498a:	693b      	ldr	r3, [r7, #16]
 800498c:	4313      	orrs	r3, r2
 800498e:	61bb      	str	r3, [r7, #24]
 8004990:	4a27      	ldr	r2, [pc, #156]	; (8004a30 <HAL_GPIO_Init+0x334>)
 8004992:	69bb      	ldr	r3, [r7, #24]
 8004994:	60d3      	str	r3, [r2, #12]
 8004996:	4b26      	ldr	r3, [pc, #152]	; (8004a30 <HAL_GPIO_Init+0x334>)
 8004998:	685b      	ldr	r3, [r3, #4]
 800499a:	61bb      	str	r3, [r7, #24]
 800499c:	693b      	ldr	r3, [r7, #16]
 800499e:	43db      	mvns	r3, r3
 80049a0:	69ba      	ldr	r2, [r7, #24]
 80049a2:	4013      	ands	r3, r2
 80049a4:	61bb      	str	r3, [r7, #24]
 80049a6:	683b      	ldr	r3, [r7, #0]
 80049a8:	685b      	ldr	r3, [r3, #4]
 80049aa:	f403 3300 	and.w	r3, r3, #131072	; 0x20000
 80049ae:	2b00      	cmp	r3, #0
 80049b0:	d003      	beq.n	80049ba <HAL_GPIO_Init+0x2be>
 80049b2:	69ba      	ldr	r2, [r7, #24]
 80049b4:	693b      	ldr	r3, [r7, #16]
 80049b6:	4313      	orrs	r3, r2
 80049b8:	61bb      	str	r3, [r7, #24]
 80049ba:	4a1d      	ldr	r2, [pc, #116]	; (8004a30 <HAL_GPIO_Init+0x334>)
 80049bc:	69bb      	ldr	r3, [r7, #24]
 80049be:	6053      	str	r3, [r2, #4]
 80049c0:	4b1b      	ldr	r3, [pc, #108]	; (8004a30 <HAL_GPIO_Init+0x334>)
 80049c2:	681b      	ldr	r3, [r3, #0]
 80049c4:	61bb      	str	r3, [r7, #24]
 80049c6:	693b      	ldr	r3, [r7, #16]
 80049c8:	43db      	mvns	r3, r3
 80049ca:	69ba      	ldr	r2, [r7, #24]
 80049cc:	4013      	ands	r3, r2
 80049ce:	61bb      	str	r3, [r7, #24]
 80049d0:	683b      	ldr	r3, [r7, #0]
 80049d2:	685b      	ldr	r3, [r3, #4]
 80049d4:	f403 3380 	and.w	r3, r3, #65536	; 0x10000
 80049d8:	2b00      	cmp	r3, #0
 80049da:	d003      	beq.n	80049e4 <HAL_GPIO_Init+0x2e8>
 80049dc:	69ba      	ldr	r2, [r7, #24]
 80049de:	693b      	ldr	r3, [r7, #16]
 80049e0:	4313      	orrs	r3, r2
 80049e2:	61bb      	str	r3, [r7, #24]
 80049e4:	4a12      	ldr	r2, [pc, #72]	; (8004a30 <HAL_GPIO_Init+0x334>)
 80049e6:	69bb      	ldr	r3, [r7, #24]
 80049e8:	6013      	str	r3, [r2, #0]
 80049ea:	69fb      	ldr	r3, [r7, #28]
 80049ec:	3301      	adds	r3, #1
 80049ee:	61fb      	str	r3, [r7, #28]
 80049f0:	69fb      	ldr	r3, [r7, #28]
 80049f2:	2b0f      	cmp	r3, #15
 80049f4:	f67f ae90 	bls.w	8004718 <HAL_GPIO_Init+0x1c>
 80049f8:	bf00      	nop
 80049fa:	bf00      	nop
 80049fc:	3724      	adds	r7, #36	; 0x24
 80049fe:	46bd      	mov	sp, r7
 8004a00:	f85d 7b04 	ldr.w	r7, [sp], #4
 8004a04:	4770      	bx	lr
 8004a06:	bf00      	nop
 8004a08:	40023800 	.word	0x40023800
 8004a0c:	40013800 	.word	0x40013800
 8004a10:	40020000 	.word	0x40020000
 8004a14:	40020400 	.word	0x40020400
 8004a18:	40020800 	.word	0x40020800
 8004a1c:	40020c00 	.word	0x40020c00
 8004a20:	40021000 	.word	0x40021000
 8004a24:	40021400 	.word	0x40021400
 8004a28:	40021800 	.word	0x40021800
 8004a2c:	40021c00 	.word	0x40021c00
 8004a30:	40013c00 	.word	0x40013c00

08004a34 <HAL_GPIO_WritePin>:
 8004a34:	b480      	push	{r7}
 8004a36:	b083      	sub	sp, #12
 8004a38:	af00      	add	r7, sp, #0
 8004a3a:	6078      	str	r0, [r7, #4]
 8004a3c:	460b      	mov	r3, r1
 8004a3e:	807b      	strh	r3, [r7, #2]
 8004a40:	4613      	mov	r3, r2
 8004a42:	707b      	strb	r3, [r7, #1]
 8004a44:	787b      	ldrb	r3, [r7, #1]
 8004a46:	2b00      	cmp	r3, #0
 8004a48:	d003      	beq.n	8004a52 <HAL_GPIO_WritePin+0x1e>
 8004a4a:	887a      	ldrh	r2, [r7, #2]
 8004a4c:	687b      	ldr	r3, [r7, #4]
 8004a4e:	619a      	str	r2, [r3, #24]
 8004a50:	e003      	b.n	8004a5a <HAL_GPIO_WritePin+0x26>
 8004a52:	887b      	ldrh	r3, [r7, #2]
 8004a54:	041a      	lsls	r2, r3, #16
 8004a56:	687b      	ldr	r3, [r7, #4]
 8004a58:	619a      	str	r2, [r3, #24]
 8004a5a:	bf00      	nop
 8004a5c:	370c      	adds	r7, #12
 8004a5e:	46bd      	mov	sp, r7
 8004a60:	f85d 7b04 	ldr.w	r7, [sp], #4
 8004a64:	4770      	bx	lr

08004a66 <HAL_GPIO_TogglePin>:
 8004a66:	b480      	push	{r7}
 8004a68:	b085      	sub	sp, #20
 8004a6a:	af00      	add	r7, sp, #0
 8004a6c:	6078      	str	r0, [r7, #4]
 8004a6e:	460b      	mov	r3, r1
 8004a70:	807b      	strh	r3, [r7, #2]
 8004a72:	687b      	ldr	r3, [r7, #4]
 8004a74:	695b      	ldr	r3, [r3, #20]
 8004a76:	60fb      	str	r3, [r7, #12]
 8004a78:	887a      	ldrh	r2, [r7, #2]
 8004a7a:	68fb      	ldr	r3, [r7, #12]
 8004a7c:	4013      	ands	r3, r2
 8004a7e:	041a      	lsls	r2, r3, #16
 8004a80:	68fb      	ldr	r3, [r7, #12]
 8004a82:	43d9      	mvns	r1, r3
 8004a84:	887b      	ldrh	r3, [r7, #2]
 8004a86:	400b      	ands	r3, r1
 8004a88:	431a      	orrs	r2, r3
 8004a8a:	687b      	ldr	r3, [r7, #4]
 8004a8c:	619a      	str	r2, [r3, #24]
 8004a8e:	bf00      	nop
 8004a90:	3714      	adds	r7, #20
 8004a92:	46bd      	mov	sp, r7
 8004a94:	f85d 7b04 	ldr.w	r7, [sp], #4
 8004a98:	4770      	bx	lr
	...

08004a9c <HAL_I2C_Init>:
 8004a9c:	b580      	push	{r7, lr}
 8004a9e:	b084      	sub	sp, #16
 8004aa0:	af00      	add	r7, sp, #0
 8004aa2:	6078      	str	r0, [r7, #4]
 8004aa4:	687b      	ldr	r3, [r7, #4]
 8004aa6:	2b00      	cmp	r3, #0
 8004aa8:	d101      	bne.n	8004aae <HAL_I2C_Init+0x12>
 8004aaa:	2301      	movs	r3, #1
 8004aac:	e12b      	b.n	8004d06 <HAL_I2C_Init+0x26a>
 8004aae:	687b      	ldr	r3, [r7, #4]
 8004ab0:	f893 303d 	ldrb.w	r3, [r3, #61]	; 0x3d
 8004ab4:	b2db      	uxtb	r3, r3
 8004ab6:	2b00      	cmp	r3, #0
 8004ab8:	d106      	bne.n	8004ac8 <HAL_I2C_Init+0x2c>
 8004aba:	687b      	ldr	r3, [r7, #4]
 8004abc:	2200      	movs	r2, #0
 8004abe:	f883 203c 	strb.w	r2, [r3, #60]	; 0x3c
 8004ac2:	6878      	ldr	r0, [r7, #4]
 8004ac4:	f7fc fe90 	bl	80017e8 <HAL_I2C_MspInit>
 8004ac8:	687b      	ldr	r3, [r7, #4]
 8004aca:	2224      	movs	r2, #36	; 0x24
 8004acc:	f883 203d 	strb.w	r2, [r3, #61]	; 0x3d
 8004ad0:	687b      	ldr	r3, [r7, #4]
 8004ad2:	681b      	ldr	r3, [r3, #0]
 8004ad4:	681a      	ldr	r2, [r3, #0]
 8004ad6:	687b      	ldr	r3, [r7, #4]
 8004ad8:	681b      	ldr	r3, [r3, #0]
 8004ada:	f022 0201 	bic.w	r2, r2, #1
 8004ade:	601a      	str	r2, [r3, #0]
 8004ae0:	687b      	ldr	r3, [r7, #4]
 8004ae2:	681b      	ldr	r3, [r3, #0]
 8004ae4:	681a      	ldr	r2, [r3, #0]
 8004ae6:	687b      	ldr	r3, [r7, #4]
 8004ae8:	681b      	ldr	r3, [r3, #0]
 8004aea:	f442 4200 	orr.w	r2, r2, #32768	; 0x8000
 8004aee:	601a      	str	r2, [r3, #0]
 8004af0:	687b      	ldr	r3, [r7, #4]
 8004af2:	681b      	ldr	r3, [r3, #0]
 8004af4:	681a      	ldr	r2, [r3, #0]
 8004af6:	687b      	ldr	r3, [r7, #4]
 8004af8:	681b      	ldr	r3, [r3, #0]
 8004afa:	f422 4200 	bic.w	r2, r2, #32768	; 0x8000
 8004afe:	601a      	str	r2, [r3, #0]
 8004b00:	f000 fd80 	bl	8005604 <HAL_RCC_GetPCLK1Freq>
 8004b04:	60f8      	str	r0, [r7, #12]
 8004b06:	687b      	ldr	r3, [r7, #4]
 8004b08:	685b      	ldr	r3, [r3, #4]
 8004b0a:	4a81      	ldr	r2, [pc, #516]	; (8004d10 <HAL_I2C_Init+0x274>)
 8004b0c:	4293      	cmp	r3, r2
 8004b0e:	d807      	bhi.n	8004b20 <HAL_I2C_Init+0x84>
 8004b10:	68fb      	ldr	r3, [r7, #12]
 8004b12:	4a80      	ldr	r2, [pc, #512]	; (8004d14 <HAL_I2C_Init+0x278>)
 8004b14:	4293      	cmp	r3, r2
 8004b16:	bf94      	ite	ls
 8004b18:	2301      	movls	r3, #1
 8004b1a:	2300      	movhi	r3, #0
 8004b1c:	b2db      	uxtb	r3, r3
 8004b1e:	e006      	b.n	8004b2e <HAL_I2C_Init+0x92>
 8004b20:	68fb      	ldr	r3, [r7, #12]
 8004b22:	4a7d      	ldr	r2, [pc, #500]	; (8004d18 <HAL_I2C_Init+0x27c>)
 8004b24:	4293      	cmp	r3, r2
 8004b26:	bf94      	ite	ls
 8004b28:	2301      	movls	r3, #1
 8004b2a:	2300      	movhi	r3, #0
 8004b2c:	b2db      	uxtb	r3, r3
 8004b2e:	2b00      	cmp	r3, #0
 8004b30:	d001      	beq.n	8004b36 <HAL_I2C_Init+0x9a>
 8004b32:	2301      	movs	r3, #1
 8004b34:	e0e7      	b.n	8004d06 <HAL_I2C_Init+0x26a>
 8004b36:	68fb      	ldr	r3, [r7, #12]
 8004b38:	4a78      	ldr	r2, [pc, #480]	; (8004d1c <HAL_I2C_Init+0x280>)
 8004b3a:	fba2 2303 	umull	r2, r3, r2, r3
 8004b3e:	0c9b      	lsrs	r3, r3, #18
 8004b40:	60bb      	str	r3, [r7, #8]
 8004b42:	687b      	ldr	r3, [r7, #4]
 8004b44:	681b      	ldr	r3, [r3, #0]
 8004b46:	685b      	ldr	r3, [r3, #4]
 8004b48:	f023 013f 	bic.w	r1, r3, #63	; 0x3f
 8004b4c:	687b      	ldr	r3, [r7, #4]
 8004b4e:	681b      	ldr	r3, [r3, #0]
 8004b50:	68ba      	ldr	r2, [r7, #8]
 8004b52:	430a      	orrs	r2, r1
 8004b54:	605a      	str	r2, [r3, #4]
 8004b56:	687b      	ldr	r3, [r7, #4]
 8004b58:	681b      	ldr	r3, [r3, #0]
 8004b5a:	6a1b      	ldr	r3, [r3, #32]
 8004b5c:	f023 013f 	bic.w	r1, r3, #63	; 0x3f
 8004b60:	687b      	ldr	r3, [r7, #4]
 8004b62:	685b      	ldr	r3, [r3, #4]
 8004b64:	4a6a      	ldr	r2, [pc, #424]	; (8004d10 <HAL_I2C_Init+0x274>)
 8004b66:	4293      	cmp	r3, r2
 8004b68:	d802      	bhi.n	8004b70 <HAL_I2C_Init+0xd4>
 8004b6a:	68bb      	ldr	r3, [r7, #8]
 8004b6c:	3301      	adds	r3, #1
 8004b6e:	e009      	b.n	8004b84 <HAL_I2C_Init+0xe8>
 8004b70:	68bb      	ldr	r3, [r7, #8]
 8004b72:	f44f 7296 	mov.w	r2, #300	; 0x12c
 8004b76:	fb02 f303 	mul.w	r3, r2, r3
 8004b7a:	4a69      	ldr	r2, [pc, #420]	; (8004d20 <HAL_I2C_Init+0x284>)
 8004b7c:	fba2 2303 	umull	r2, r3, r2, r3
 8004b80:	099b      	lsrs	r3, r3, #6
 8004b82:	3301      	adds	r3, #1
 8004b84:	687a      	ldr	r2, [r7, #4]
 8004b86:	6812      	ldr	r2, [r2, #0]
 8004b88:	430b      	orrs	r3, r1
 8004b8a:	6213      	str	r3, [r2, #32]
 8004b8c:	687b      	ldr	r3, [r7, #4]
 8004b8e:	681b      	ldr	r3, [r3, #0]
 8004b90:	69db      	ldr	r3, [r3, #28]
 8004b92:	f423 424f 	bic.w	r2, r3, #52992	; 0xcf00
 8004b96:	f022 02ff 	bic.w	r2, r2, #255	; 0xff
 8004b9a:	687b      	ldr	r3, [r7, #4]
 8004b9c:	685b      	ldr	r3, [r3, #4]
 8004b9e:	495c      	ldr	r1, [pc, #368]	; (8004d10 <HAL_I2C_Init+0x274>)
 8004ba0:	428b      	cmp	r3, r1
 8004ba2:	d819      	bhi.n	8004bd8 <HAL_I2C_Init+0x13c>
 8004ba4:	68fb      	ldr	r3, [r7, #12]
 8004ba6:	1e59      	subs	r1, r3, #1
 8004ba8:	687b      	ldr	r3, [r7, #4]
 8004baa:	685b      	ldr	r3, [r3, #4]
 8004bac:	005b      	lsls	r3, r3, #1
 8004bae:	fbb1 f3f3 	udiv	r3, r1, r3
 8004bb2:	1c59      	adds	r1, r3, #1
 8004bb4:	f640 73fc 	movw	r3, #4092	; 0xffc
 8004bb8:	400b      	ands	r3, r1
 8004bba:	2b00      	cmp	r3, #0
 8004bbc:	d00a      	beq.n	8004bd4 <HAL_I2C_Init+0x138>
 8004bbe:	68fb      	ldr	r3, [r7, #12]
 8004bc0:	1e59      	subs	r1, r3, #1
 8004bc2:	687b      	ldr	r3, [r7, #4]
 8004bc4:	685b      	ldr	r3, [r3, #4]
 8004bc6:	005b      	lsls	r3, r3, #1
 8004bc8:	fbb1 f3f3 	udiv	r3, r1, r3
 8004bcc:	3301      	adds	r3, #1
 8004bce:	f3c3 030b 	ubfx	r3, r3, #0, #12
 8004bd2:	e051      	b.n	8004c78 <HAL_I2C_Init+0x1dc>
 8004bd4:	2304      	movs	r3, #4
 8004bd6:	e04f      	b.n	8004c78 <HAL_I2C_Init+0x1dc>
 8004bd8:	687b      	ldr	r3, [r7, #4]
 8004bda:	689b      	ldr	r3, [r3, #8]
 8004bdc:	2b00      	cmp	r3, #0
 8004bde:	d111      	bne.n	8004c04 <HAL_I2C_Init+0x168>
 8004be0:	68fb      	ldr	r3, [r7, #12]
 8004be2:	1e58      	subs	r0, r3, #1
 8004be4:	687b      	ldr	r3, [r7, #4]
 8004be6:	6859      	ldr	r1, [r3, #4]
 8004be8:	460b      	mov	r3, r1
 8004bea:	005b      	lsls	r3, r3, #1
 8004bec:	440b      	add	r3, r1
 8004bee:	fbb0 f3f3 	udiv	r3, r0, r3
 8004bf2:	3301      	adds	r3, #1
 8004bf4:	f3c3 030b 	ubfx	r3, r3, #0, #12
 8004bf8:	2b00      	cmp	r3, #0
 8004bfa:	bf0c      	ite	eq
 8004bfc:	2301      	moveq	r3, #1
 8004bfe:	2300      	movne	r3, #0
 8004c00:	b2db      	uxtb	r3, r3
 8004c02:	e012      	b.n	8004c2a <HAL_I2C_Init+0x18e>
 8004c04:	68fb      	ldr	r3, [r7, #12]
 8004c06:	1e58      	subs	r0, r3, #1
 8004c08:	687b      	ldr	r3, [r7, #4]
 8004c0a:	6859      	ldr	r1, [r3, #4]
 8004c0c:	460b      	mov	r3, r1
 8004c0e:	009b      	lsls	r3, r3, #2
 8004c10:	440b      	add	r3, r1
 8004c12:	0099      	lsls	r1, r3, #2
 8004c14:	440b      	add	r3, r1
 8004c16:	fbb0 f3f3 	udiv	r3, r0, r3
 8004c1a:	3301      	adds	r3, #1
 8004c1c:	f3c3 030b 	ubfx	r3, r3, #0, #12
 8004c20:	2b00      	cmp	r3, #0
 8004c22:	bf0c      	ite	eq
 8004c24:	2301      	moveq	r3, #1
 8004c26:	2300      	movne	r3, #0
 8004c28:	b2db      	uxtb	r3, r3
 8004c2a:	2b00      	cmp	r3, #0
 8004c2c:	d001      	beq.n	8004c32 <HAL_I2C_Init+0x196>
 8004c2e:	2301      	movs	r3, #1
 8004c30:	e022      	b.n	8004c78 <HAL_I2C_Init+0x1dc>
 8004c32:	687b      	ldr	r3, [r7, #4]
 8004c34:	689b      	ldr	r3, [r3, #8]
 8004c36:	2b00      	cmp	r3, #0
 8004c38:	d10e      	bne.n	8004c58 <HAL_I2C_Init+0x1bc>
 8004c3a:	68fb      	ldr	r3, [r7, #12]
 8004c3c:	1e58      	subs	r0, r3, #1
 8004c3e:	687b      	ldr	r3, [r7, #4]
 8004c40:	6859      	ldr	r1, [r3, #4]
 8004c42:	460b      	mov	r3, r1
 8004c44:	005b      	lsls	r3, r3, #1
 8004c46:	440b      	add	r3, r1
 8004c48:	fbb0 f3f3 	udiv	r3, r0, r3
 8004c4c:	3301      	adds	r3, #1
 8004c4e:	f3c3 030b 	ubfx	r3, r3, #0, #12
 8004c52:	f443 4300 	orr.w	r3, r3, #32768	; 0x8000
 8004c56:	e00f      	b.n	8004c78 <HAL_I2C_Init+0x1dc>
 8004c58:	68fb      	ldr	r3, [r7, #12]
 8004c5a:	1e58      	subs	r0, r3, #1
 8004c5c:	687b      	ldr	r3, [r7, #4]
 8004c5e:	6859      	ldr	r1, [r3, #4]
 8004c60:	460b      	mov	r3, r1
 8004c62:	009b      	lsls	r3, r3, #2
 8004c64:	440b      	add	r3, r1
 8004c66:	0099      	lsls	r1, r3, #2
 8004c68:	440b      	add	r3, r1
 8004c6a:	fbb0 f3f3 	udiv	r3, r0, r3
 8004c6e:	3301      	adds	r3, #1
 8004c70:	f3c3 030b 	ubfx	r3, r3, #0, #12
 8004c74:	f443 4340 	orr.w	r3, r3, #49152	; 0xc000
 8004c78:	6879      	ldr	r1, [r7, #4]
 8004c7a:	6809      	ldr	r1, [r1, #0]
 8004c7c:	4313      	orrs	r3, r2
 8004c7e:	61cb      	str	r3, [r1, #28]
 8004c80:	687b      	ldr	r3, [r7, #4]
 8004c82:	681b      	ldr	r3, [r3, #0]
 8004c84:	681b      	ldr	r3, [r3, #0]
 8004c86:	f023 01c0 	bic.w	r1, r3, #192	; 0xc0
 8004c8a:	687b      	ldr	r3, [r7, #4]
 8004c8c:	69da      	ldr	r2, [r3, #28]
 8004c8e:	687b      	ldr	r3, [r7, #4]
 8004c90:	6a1b      	ldr	r3, [r3, #32]
 8004c92:	431a      	orrs	r2, r3
 8004c94:	687b      	ldr	r3, [r7, #4]
 8004c96:	681b      	ldr	r3, [r3, #0]
 8004c98:	430a      	orrs	r2, r1
 8004c9a:	601a      	str	r2, [r3, #0]
 8004c9c:	687b      	ldr	r3, [r7, #4]
 8004c9e:	681b      	ldr	r3, [r3, #0]
 8004ca0:	689b      	ldr	r3, [r3, #8]
 8004ca2:	f423 4303 	bic.w	r3, r3, #33536	; 0x8300
 8004ca6:	f023 03ff 	bic.w	r3, r3, #255	; 0xff
 8004caa:	687a      	ldr	r2, [r7, #4]
 8004cac:	6911      	ldr	r1, [r2, #16]
 8004cae:	687a      	ldr	r2, [r7, #4]
 8004cb0:	68d2      	ldr	r2, [r2, #12]
 8004cb2:	4311      	orrs	r1, r2
 8004cb4:	687a      	ldr	r2, [r7, #4]
 8004cb6:	6812      	ldr	r2, [r2, #0]
 8004cb8:	430b      	orrs	r3, r1
 8004cba:	6093      	str	r3, [r2, #8]
 8004cbc:	687b      	ldr	r3, [r7, #4]
 8004cbe:	681b      	ldr	r3, [r3, #0]
 8004cc0:	68db      	ldr	r3, [r3, #12]
 8004cc2:	f023 01ff 	bic.w	r1, r3, #255	; 0xff
 8004cc6:	687b      	ldr	r3, [r7, #4]
 8004cc8:	695a      	ldr	r2, [r3, #20]
 8004cca:	687b      	ldr	r3, [r7, #4]
 8004ccc:	699b      	ldr	r3, [r3, #24]
 8004cce:	431a      	orrs	r2, r3
 8004cd0:	687b      	ldr	r3, [r7, #4]
 8004cd2:	681b      	ldr	r3, [r3, #0]
 8004cd4:	430a      	orrs	r2, r1
 8004cd6:	60da      	str	r2, [r3, #12]
 8004cd8:	687b      	ldr	r3, [r7, #4]
 8004cda:	681b      	ldr	r3, [r3, #0]
 8004cdc:	681a      	ldr	r2, [r3, #0]
 8004cde:	687b      	ldr	r3, [r7, #4]
 8004ce0:	681b      	ldr	r3, [r3, #0]
 8004ce2:	f042 0201 	orr.w	r2, r2, #1
 8004ce6:	601a      	str	r2, [r3, #0]
 8004ce8:	687b      	ldr	r3, [r7, #4]
 8004cea:	2200      	movs	r2, #0
 8004cec:	641a      	str	r2, [r3, #64]	; 0x40
 8004cee:	687b      	ldr	r3, [r7, #4]
 8004cf0:	2220      	movs	r2, #32
 8004cf2:	f883 203d 	strb.w	r2, [r3, #61]	; 0x3d
 8004cf6:	687b      	ldr	r3, [r7, #4]
 8004cf8:	2200      	movs	r2, #0
 8004cfa:	631a      	str	r2, [r3, #48]	; 0x30
 8004cfc:	687b      	ldr	r3, [r7, #4]
 8004cfe:	2200      	movs	r2, #0
 8004d00:	f883 203e 	strb.w	r2, [r3, #62]	; 0x3e
 8004d04:	2300      	movs	r3, #0
 8004d06:	4618      	mov	r0, r3
 8004d08:	3710      	adds	r7, #16
 8004d0a:	46bd      	mov	sp, r7
 8004d0c:	bd80      	pop	{r7, pc}
 8004d0e:	bf00      	nop
 8004d10:	000186a0 	.word	0x000186a0
 8004d14:	001e847f 	.word	0x001e847f
 8004d18:	003d08ff 	.word	0x003d08ff
 8004d1c:	431bde83 	.word	0x431bde83
 8004d20:	10624dd3 	.word	0x10624dd3

08004d24 <HAL_RCC_OscConfig>:
 8004d24:	b580      	push	{r7, lr}
 8004d26:	b086      	sub	sp, #24
 8004d28:	af00      	add	r7, sp, #0
 8004d2a:	6078      	str	r0, [r7, #4]
 8004d2c:	687b      	ldr	r3, [r7, #4]
 8004d2e:	2b00      	cmp	r3, #0
 8004d30:	d101      	bne.n	8004d36 <HAL_RCC_OscConfig+0x12>
 8004d32:	2301      	movs	r3, #1
 8004d34:	e267      	b.n	8005206 <HAL_RCC_OscConfig+0x4e2>
 8004d36:	687b      	ldr	r3, [r7, #4]
 8004d38:	681b      	ldr	r3, [r3, #0]
 8004d3a:	f003 0301 	and.w	r3, r3, #1
 8004d3e:	2b00      	cmp	r3, #0
 8004d40:	d075      	beq.n	8004e2e <HAL_RCC_OscConfig+0x10a>
 8004d42:	4b88      	ldr	r3, [pc, #544]	; (8004f64 <HAL_RCC_OscConfig+0x240>)
 8004d44:	689b      	ldr	r3, [r3, #8]
 8004d46:	f003 030c 	and.w	r3, r3, #12
 8004d4a:	2b04      	cmp	r3, #4
 8004d4c:	d00c      	beq.n	8004d68 <HAL_RCC_OscConfig+0x44>
 8004d4e:	4b85      	ldr	r3, [pc, #532]	; (8004f64 <HAL_RCC_OscConfig+0x240>)
 8004d50:	689b      	ldr	r3, [r3, #8]
 8004d52:	f003 030c 	and.w	r3, r3, #12
 8004d56:	2b08      	cmp	r3, #8
 8004d58:	d112      	bne.n	8004d80 <HAL_RCC_OscConfig+0x5c>
 8004d5a:	4b82      	ldr	r3, [pc, #520]	; (8004f64 <HAL_RCC_OscConfig+0x240>)
 8004d5c:	685b      	ldr	r3, [r3, #4]
 8004d5e:	f403 0380 	and.w	r3, r3, #4194304	; 0x400000
 8004d62:	f5b3 0f80 	cmp.w	r3, #4194304	; 0x400000
 8004d66:	d10b      	bne.n	8004d80 <HAL_RCC_OscConfig+0x5c>
 8004d68:	4b7e      	ldr	r3, [pc, #504]	; (8004f64 <HAL_RCC_OscConfig+0x240>)
 8004d6a:	681b      	ldr	r3, [r3, #0]
 8004d6c:	f403 3300 	and.w	r3, r3, #131072	; 0x20000
 8004d70:	2b00      	cmp	r3, #0
 8004d72:	d05b      	beq.n	8004e2c <HAL_RCC_OscConfig+0x108>
 8004d74:	687b      	ldr	r3, [r7, #4]
 8004d76:	685b      	ldr	r3, [r3, #4]
 8004d78:	2b00      	cmp	r3, #0
 8004d7a:	d157      	bne.n	8004e2c <HAL_RCC_OscConfig+0x108>
 8004d7c:	2301      	movs	r3, #1
 8004d7e:	e242      	b.n	8005206 <HAL_RCC_OscConfig+0x4e2>
 8004d80:	687b      	ldr	r3, [r7, #4]
 8004d82:	685b      	ldr	r3, [r3, #4]
 8004d84:	f5b3 3f80 	cmp.w	r3, #65536	; 0x10000
 8004d88:	d106      	bne.n	8004d98 <HAL_RCC_OscConfig+0x74>
 8004d8a:	4b76      	ldr	r3, [pc, #472]	; (8004f64 <HAL_RCC_OscConfig+0x240>)
 8004d8c:	681b      	ldr	r3, [r3, #0]
 8004d8e:	4a75      	ldr	r2, [pc, #468]	; (8004f64 <HAL_RCC_OscConfig+0x240>)
 8004d90:	f443 3380 	orr.w	r3, r3, #65536	; 0x10000
 8004d94:	6013      	str	r3, [r2, #0]
 8004d96:	e01d      	b.n	8004dd4 <HAL_RCC_OscConfig+0xb0>
 8004d98:	687b      	ldr	r3, [r7, #4]
 8004d9a:	685b      	ldr	r3, [r3, #4]
 8004d9c:	f5b3 2fa0 	cmp.w	r3, #327680	; 0x50000
 8004da0:	d10c      	bne.n	8004dbc <HAL_RCC_OscConfig+0x98>
 8004da2:	4b70      	ldr	r3, [pc, #448]	; (8004f64 <HAL_RCC_OscConfig+0x240>)
 8004da4:	681b      	ldr	r3, [r3, #0]
 8004da6:	4a6f      	ldr	r2, [pc, #444]	; (8004f64 <HAL_RCC_OscConfig+0x240>)
 8004da8:	f443 2380 	orr.w	r3, r3, #262144	; 0x40000
 8004dac:	6013      	str	r3, [r2, #0]
 8004dae:	4b6d      	ldr	r3, [pc, #436]	; (8004f64 <HAL_RCC_OscConfig+0x240>)
 8004db0:	681b      	ldr	r3, [r3, #0]
 8004db2:	4a6c      	ldr	r2, [pc, #432]	; (8004f64 <HAL_RCC_OscConfig+0x240>)
 8004db4:	f443 3380 	orr.w	r3, r3, #65536	; 0x10000
 8004db8:	6013      	str	r3, [r2, #0]
 8004dba:	e00b      	b.n	8004dd4 <HAL_RCC_OscConfig+0xb0>
 8004dbc:	4b69      	ldr	r3, [pc, #420]	; (8004f64 <HAL_RCC_OscConfig+0x240>)
 8004dbe:	681b      	ldr	r3, [r3, #0]
 8004dc0:	4a68      	ldr	r2, [pc, #416]	; (8004f64 <HAL_RCC_OscConfig+0x240>)
 8004dc2:	f423 3380 	bic.w	r3, r3, #65536	; 0x10000
 8004dc6:	6013      	str	r3, [r2, #0]
 8004dc8:	4b66      	ldr	r3, [pc, #408]	; (8004f64 <HAL_RCC_OscConfig+0x240>)
 8004dca:	681b      	ldr	r3, [r3, #0]
 8004dcc:	4a65      	ldr	r2, [pc, #404]	; (8004f64 <HAL_RCC_OscConfig+0x240>)
 8004dce:	f423 2380 	bic.w	r3, r3, #262144	; 0x40000
 8004dd2:	6013      	str	r3, [r2, #0]
 8004dd4:	687b      	ldr	r3, [r7, #4]
 8004dd6:	685b      	ldr	r3, [r3, #4]
 8004dd8:	2b00      	cmp	r3, #0
 8004dda:	d013      	beq.n	8004e04 <HAL_RCC_OscConfig+0xe0>
 8004ddc:	f7fe fb38 	bl	8003450 <HAL_GetTick>
 8004de0:	6138      	str	r0, [r7, #16]
 8004de2:	e008      	b.n	8004df6 <HAL_RCC_OscConfig+0xd2>
 8004de4:	f7fe fb34 	bl	8003450 <HAL_GetTick>
 8004de8:	4602      	mov	r2, r0
 8004dea:	693b      	ldr	r3, [r7, #16]
 8004dec:	1ad3      	subs	r3, r2, r3
 8004dee:	2b64      	cmp	r3, #100	; 0x64
 8004df0:	d901      	bls.n	8004df6 <HAL_RCC_OscConfig+0xd2>
 8004df2:	2303      	movs	r3, #3
 8004df4:	e207      	b.n	8005206 <HAL_RCC_OscConfig+0x4e2>
 8004df6:	4b5b      	ldr	r3, [pc, #364]	; (8004f64 <HAL_RCC_OscConfig+0x240>)
 8004df8:	681b      	ldr	r3, [r3, #0]
 8004dfa:	f403 3300 	and.w	r3, r3, #131072	; 0x20000
 8004dfe:	2b00      	cmp	r3, #0
 8004e00:	d0f0      	beq.n	8004de4 <HAL_RCC_OscConfig+0xc0>
 8004e02:	e014      	b.n	8004e2e <HAL_RCC_OscConfig+0x10a>
 8004e04:	f7fe fb24 	bl	8003450 <HAL_GetTick>
 8004e08:	6138      	str	r0, [r7, #16]
 8004e0a:	e008      	b.n	8004e1e <HAL_RCC_OscConfig+0xfa>
 8004e0c:	f7fe fb20 	bl	8003450 <HAL_GetTick>
 8004e10:	4602      	mov	r2, r0
 8004e12:	693b      	ldr	r3, [r7, #16]
 8004e14:	1ad3      	subs	r3, r2, r3
 8004e16:	2b64      	cmp	r3, #100	; 0x64
 8004e18:	d901      	bls.n	8004e1e <HAL_RCC_OscConfig+0xfa>
 8004e1a:	2303      	movs	r3, #3
 8004e1c:	e1f3      	b.n	8005206 <HAL_RCC_OscConfig+0x4e2>
 8004e1e:	4b51      	ldr	r3, [pc, #324]	; (8004f64 <HAL_RCC_OscConfig+0x240>)
 8004e20:	681b      	ldr	r3, [r3, #0]
 8004e22:	f403 3300 	and.w	r3, r3, #131072	; 0x20000
 8004e26:	2b00      	cmp	r3, #0
 8004e28:	d1f0      	bne.n	8004e0c <HAL_RCC_OscConfig+0xe8>
 8004e2a:	e000      	b.n	8004e2e <HAL_RCC_OscConfig+0x10a>
 8004e2c:	bf00      	nop
 8004e2e:	687b      	ldr	r3, [r7, #4]
 8004e30:	681b      	ldr	r3, [r3, #0]
 8004e32:	f003 0302 	and.w	r3, r3, #2
 8004e36:	2b00      	cmp	r3, #0
 8004e38:	d063      	beq.n	8004f02 <HAL_RCC_OscConfig+0x1de>
 8004e3a:	4b4a      	ldr	r3, [pc, #296]	; (8004f64 <HAL_RCC_OscConfig+0x240>)
 8004e3c:	689b      	ldr	r3, [r3, #8]
 8004e3e:	f003 030c 	and.w	r3, r3, #12
 8004e42:	2b00      	cmp	r3, #0
 8004e44:	d00b      	beq.n	8004e5e <HAL_RCC_OscConfig+0x13a>
 8004e46:	4b47      	ldr	r3, [pc, #284]	; (8004f64 <HAL_RCC_OscConfig+0x240>)
 8004e48:	689b      	ldr	r3, [r3, #8]
 8004e4a:	f003 030c 	and.w	r3, r3, #12
 8004e4e:	2b08      	cmp	r3, #8
 8004e50:	d11c      	bne.n	8004e8c <HAL_RCC_OscConfig+0x168>
 8004e52:	4b44      	ldr	r3, [pc, #272]	; (8004f64 <HAL_RCC_OscConfig+0x240>)
 8004e54:	685b      	ldr	r3, [r3, #4]
 8004e56:	f403 0380 	and.w	r3, r3, #4194304	; 0x400000
 8004e5a:	2b00      	cmp	r3, #0
 8004e5c:	d116      	bne.n	8004e8c <HAL_RCC_OscConfig+0x168>
 8004e5e:	4b41      	ldr	r3, [pc, #260]	; (8004f64 <HAL_RCC_OscConfig+0x240>)
 8004e60:	681b      	ldr	r3, [r3, #0]
 8004e62:	f003 0302 	and.w	r3, r3, #2
 8004e66:	2b00      	cmp	r3, #0
 8004e68:	d005      	beq.n	8004e76 <HAL_RCC_OscConfig+0x152>
 8004e6a:	687b      	ldr	r3, [r7, #4]
 8004e6c:	68db      	ldr	r3, [r3, #12]
 8004e6e:	2b01      	cmp	r3, #1
 8004e70:	d001      	beq.n	8004e76 <HAL_RCC_OscConfig+0x152>
 8004e72:	2301      	movs	r3, #1
 8004e74:	e1c7      	b.n	8005206 <HAL_RCC_OscConfig+0x4e2>
 8004e76:	4b3b      	ldr	r3, [pc, #236]	; (8004f64 <HAL_RCC_OscConfig+0x240>)
 8004e78:	681b      	ldr	r3, [r3, #0]
 8004e7a:	f023 02f8 	bic.w	r2, r3, #248	; 0xf8
 8004e7e:	687b      	ldr	r3, [r7, #4]
 8004e80:	691b      	ldr	r3, [r3, #16]
 8004e82:	00db      	lsls	r3, r3, #3
 8004e84:	4937      	ldr	r1, [pc, #220]	; (8004f64 <HAL_RCC_OscConfig+0x240>)
 8004e86:	4313      	orrs	r3, r2
 8004e88:	600b      	str	r3, [r1, #0]
 8004e8a:	e03a      	b.n	8004f02 <HAL_RCC_OscConfig+0x1de>
 8004e8c:	687b      	ldr	r3, [r7, #4]
 8004e8e:	68db      	ldr	r3, [r3, #12]
 8004e90:	2b00      	cmp	r3, #0
 8004e92:	d020      	beq.n	8004ed6 <HAL_RCC_OscConfig+0x1b2>
 8004e94:	4b34      	ldr	r3, [pc, #208]	; (8004f68 <HAL_RCC_OscConfig+0x244>)
 8004e96:	2201      	movs	r2, #1
 8004e98:	601a      	str	r2, [r3, #0]
 8004e9a:	f7fe fad9 	bl	8003450 <HAL_GetTick>
 8004e9e:	6138      	str	r0, [r7, #16]
 8004ea0:	e008      	b.n	8004eb4 <HAL_RCC_OscConfig+0x190>
 8004ea2:	f7fe fad5 	bl	8003450 <HAL_GetTick>
 8004ea6:	4602      	mov	r2, r0
 8004ea8:	693b      	ldr	r3, [r7, #16]
 8004eaa:	1ad3      	subs	r3, r2, r3
 8004eac:	2b02      	cmp	r3, #2
 8004eae:	d901      	bls.n	8004eb4 <HAL_RCC_OscConfig+0x190>
 8004eb0:	2303      	movs	r3, #3
 8004eb2:	e1a8      	b.n	8005206 <HAL_RCC_OscConfig+0x4e2>
 8004eb4:	4b2b      	ldr	r3, [pc, #172]	; (8004f64 <HAL_RCC_OscConfig+0x240>)
 8004eb6:	681b      	ldr	r3, [r3, #0]
 8004eb8:	f003 0302 	and.w	r3, r3, #2
 8004ebc:	2b00      	cmp	r3, #0
 8004ebe:	d0f0      	beq.n	8004ea2 <HAL_RCC_OscConfig+0x17e>
 8004ec0:	4b28      	ldr	r3, [pc, #160]	; (8004f64 <HAL_RCC_OscConfig+0x240>)
 8004ec2:	681b      	ldr	r3, [r3, #0]
 8004ec4:	f023 02f8 	bic.w	r2, r3, #248	; 0xf8
 8004ec8:	687b      	ldr	r3, [r7, #4]
 8004eca:	691b      	ldr	r3, [r3, #16]
 8004ecc:	00db      	lsls	r3, r3, #3
 8004ece:	4925      	ldr	r1, [pc, #148]	; (8004f64 <HAL_RCC_OscConfig+0x240>)
 8004ed0:	4313      	orrs	r3, r2
 8004ed2:	600b      	str	r3, [r1, #0]
 8004ed4:	e015      	b.n	8004f02 <HAL_RCC_OscConfig+0x1de>
 8004ed6:	4b24      	ldr	r3, [pc, #144]	; (8004f68 <HAL_RCC_OscConfig+0x244>)
 8004ed8:	2200      	movs	r2, #0
 8004eda:	601a      	str	r2, [r3, #0]
 8004edc:	f7fe fab8 	bl	8003450 <HAL_GetTick>
 8004ee0:	6138      	str	r0, [r7, #16]
 8004ee2:	e008      	b.n	8004ef6 <HAL_RCC_OscConfig+0x1d2>
 8004ee4:	f7fe fab4 	bl	8003450 <HAL_GetTick>
 8004ee8:	4602      	mov	r2, r0
 8004eea:	693b      	ldr	r3, [r7, #16]
 8004eec:	1ad3      	subs	r3, r2, r3
 8004eee:	2b02      	cmp	r3, #2
 8004ef0:	d901      	bls.n	8004ef6 <HAL_RCC_OscConfig+0x1d2>
 8004ef2:	2303      	movs	r3, #3
 8004ef4:	e187      	b.n	8005206 <HAL_RCC_OscConfig+0x4e2>
 8004ef6:	4b1b      	ldr	r3, [pc, #108]	; (8004f64 <HAL_RCC_OscConfig+0x240>)
 8004ef8:	681b      	ldr	r3, [r3, #0]
 8004efa:	f003 0302 	and.w	r3, r3, #2
 8004efe:	2b00      	cmp	r3, #0
 8004f00:	d1f0      	bne.n	8004ee4 <HAL_RCC_OscConfig+0x1c0>
 8004f02:	687b      	ldr	r3, [r7, #4]
 8004f04:	681b      	ldr	r3, [r3, #0]
 8004f06:	f003 0308 	and.w	r3, r3, #8
 8004f0a:	2b00      	cmp	r3, #0
 8004f0c:	d036      	beq.n	8004f7c <HAL_RCC_OscConfig+0x258>
 8004f0e:	687b      	ldr	r3, [r7, #4]
 8004f10:	695b      	ldr	r3, [r3, #20]
 8004f12:	2b00      	cmp	r3, #0
 8004f14:	d016      	beq.n	8004f44 <HAL_RCC_OscConfig+0x220>
 8004f16:	4b15      	ldr	r3, [pc, #84]	; (8004f6c <HAL_RCC_OscConfig+0x248>)
 8004f18:	2201      	movs	r2, #1
 8004f1a:	601a      	str	r2, [r3, #0]
 8004f1c:	f7fe fa98 	bl	8003450 <HAL_GetTick>
 8004f20:	6138      	str	r0, [r7, #16]
 8004f22:	e008      	b.n	8004f36 <HAL_RCC_OscConfig+0x212>
 8004f24:	f7fe fa94 	bl	8003450 <HAL_GetTick>
 8004f28:	4602      	mov	r2, r0
 8004f2a:	693b      	ldr	r3, [r7, #16]
 8004f2c:	1ad3      	subs	r3, r2, r3
 8004f2e:	2b02      	cmp	r3, #2
 8004f30:	d901      	bls.n	8004f36 <HAL_RCC_OscConfig+0x212>
 8004f32:	2303      	movs	r3, #3
 8004f34:	e167      	b.n	8005206 <HAL_RCC_OscConfig+0x4e2>
 8004f36:	4b0b      	ldr	r3, [pc, #44]	; (8004f64 <HAL_RCC_OscConfig+0x240>)
 8004f38:	6f5b      	ldr	r3, [r3, #116]	; 0x74
 8004f3a:	f003 0302 	and.w	r3, r3, #2
 8004f3e:	2b00      	cmp	r3, #0
 8004f40:	d0f0      	beq.n	8004f24 <HAL_RCC_OscConfig+0x200>
 8004f42:	e01b      	b.n	8004f7c <HAL_RCC_OscConfig+0x258>
 8004f44:	4b09      	ldr	r3, [pc, #36]	; (8004f6c <HAL_RCC_OscConfig+0x248>)
 8004f46:	2200      	movs	r2, #0
 8004f48:	601a      	str	r2, [r3, #0]
 8004f4a:	f7fe fa81 	bl	8003450 <HAL_GetTick>
 8004f4e:	6138      	str	r0, [r7, #16]
 8004f50:	e00e      	b.n	8004f70 <HAL_RCC_OscConfig+0x24c>
 8004f52:	f7fe fa7d 	bl	8003450 <HAL_GetTick>
 8004f56:	4602      	mov	r2, r0
 8004f58:	693b      	ldr	r3, [r7, #16]
 8004f5a:	1ad3      	subs	r3, r2, r3
 8004f5c:	2b02      	cmp	r3, #2
 8004f5e:	d907      	bls.n	8004f70 <HAL_RCC_OscConfig+0x24c>
 8004f60:	2303      	movs	r3, #3
 8004f62:	e150      	b.n	8005206 <HAL_RCC_OscConfig+0x4e2>
 8004f64:	40023800 	.word	0x40023800
 8004f68:	42470000 	.word	0x42470000
 8004f6c:	42470e80 	.word	0x42470e80
 8004f70:	4b88      	ldr	r3, [pc, #544]	; (8005194 <HAL_RCC_OscConfig+0x470>)
 8004f72:	6f5b      	ldr	r3, [r3, #116]	; 0x74
 8004f74:	f003 0302 	and.w	r3, r3, #2
 8004f78:	2b00      	cmp	r3, #0
 8004f7a:	d1ea      	bne.n	8004f52 <HAL_RCC_OscConfig+0x22e>
 8004f7c:	687b      	ldr	r3, [r7, #4]
 8004f7e:	681b      	ldr	r3, [r3, #0]
 8004f80:	f003 0304 	and.w	r3, r3, #4
 8004f84:	2b00      	cmp	r3, #0
 8004f86:	f000 8097 	beq.w	80050b8 <HAL_RCC_OscConfig+0x394>
 8004f8a:	2300      	movs	r3, #0
 8004f8c:	75fb      	strb	r3, [r7, #23]
 8004f8e:	4b81      	ldr	r3, [pc, #516]	; (8005194 <HAL_RCC_OscConfig+0x470>)
 8004f90:	6c1b      	ldr	r3, [r3, #64]	; 0x40
 8004f92:	f003 5380 	and.w	r3, r3, #268435456	; 0x10000000
 8004f96:	2b00      	cmp	r3, #0
 8004f98:	d10f      	bne.n	8004fba <HAL_RCC_OscConfig+0x296>
 8004f9a:	2300      	movs	r3, #0
 8004f9c:	60bb      	str	r3, [r7, #8]
 8004f9e:	4b7d      	ldr	r3, [pc, #500]	; (8005194 <HAL_RCC_OscConfig+0x470>)
 8004fa0:	6c1b      	ldr	r3, [r3, #64]	; 0x40
 8004fa2:	4a7c      	ldr	r2, [pc, #496]	; (8005194 <HAL_RCC_OscConfig+0x470>)
 8004fa4:	f043 5380 	orr.w	r3, r3, #268435456	; 0x10000000
 8004fa8:	6413      	str	r3, [r2, #64]	; 0x40
 8004faa:	4b7a      	ldr	r3, [pc, #488]	; (8005194 <HAL_RCC_OscConfig+0x470>)
 8004fac:	6c1b      	ldr	r3, [r3, #64]	; 0x40
 8004fae:	f003 5380 	and.w	r3, r3, #268435456	; 0x10000000
 8004fb2:	60bb      	str	r3, [r7, #8]
 8004fb4:	68bb      	ldr	r3, [r7, #8]
 8004fb6:	2301      	movs	r3, #1
 8004fb8:	75fb      	strb	r3, [r7, #23]
 8004fba:	4b77      	ldr	r3, [pc, #476]	; (8005198 <HAL_RCC_OscConfig+0x474>)
 8004fbc:	681b      	ldr	r3, [r3, #0]
 8004fbe:	f403 7380 	and.w	r3, r3, #256	; 0x100
 8004fc2:	2b00      	cmp	r3, #0
 8004fc4:	d118      	bne.n	8004ff8 <HAL_RCC_OscConfig+0x2d4>
 8004fc6:	4b74      	ldr	r3, [pc, #464]	; (8005198 <HAL_RCC_OscConfig+0x474>)
 8004fc8:	681b      	ldr	r3, [r3, #0]
 8004fca:	4a73      	ldr	r2, [pc, #460]	; (8005198 <HAL_RCC_OscConfig+0x474>)
 8004fcc:	f443 7380 	orr.w	r3, r3, #256	; 0x100
 8004fd0:	6013      	str	r3, [r2, #0]
 8004fd2:	f7fe fa3d 	bl	8003450 <HAL_GetTick>
 8004fd6:	6138      	str	r0, [r7, #16]
 8004fd8:	e008      	b.n	8004fec <HAL_RCC_OscConfig+0x2c8>
 8004fda:	f7fe fa39 	bl	8003450 <HAL_GetTick>
 8004fde:	4602      	mov	r2, r0
 8004fe0:	693b      	ldr	r3, [r7, #16]
 8004fe2:	1ad3      	subs	r3, r2, r3
 8004fe4:	2b02      	cmp	r3, #2
 8004fe6:	d901      	bls.n	8004fec <HAL_RCC_OscConfig+0x2c8>
 8004fe8:	2303      	movs	r3, #3
 8004fea:	e10c      	b.n	8005206 <HAL_RCC_OscConfig+0x4e2>
 8004fec:	4b6a      	ldr	r3, [pc, #424]	; (8005198 <HAL_RCC_OscConfig+0x474>)
 8004fee:	681b      	ldr	r3, [r3, #0]
 8004ff0:	f403 7380 	and.w	r3, r3, #256	; 0x100
 8004ff4:	2b00      	cmp	r3, #0
 8004ff6:	d0f0      	beq.n	8004fda <HAL_RCC_OscConfig+0x2b6>
 8004ff8:	687b      	ldr	r3, [r7, #4]
 8004ffa:	689b      	ldr	r3, [r3, #8]
 8004ffc:	2b01      	cmp	r3, #1
 8004ffe:	d106      	bne.n	800500e <HAL_RCC_OscConfig+0x2ea>
 8005000:	4b64      	ldr	r3, [pc, #400]	; (8005194 <HAL_RCC_OscConfig+0x470>)
 8005002:	6f1b      	ldr	r3, [r3, #112]	; 0x70
 8005004:	4a63      	ldr	r2, [pc, #396]	; (8005194 <HAL_RCC_OscConfig+0x470>)
 8005006:	f043 0301 	orr.w	r3, r3, #1
 800500a:	6713      	str	r3, [r2, #112]	; 0x70
 800500c:	e01c      	b.n	8005048 <HAL_RCC_OscConfig+0x324>
 800500e:	687b      	ldr	r3, [r7, #4]
 8005010:	689b      	ldr	r3, [r3, #8]
 8005012:	2b05      	cmp	r3, #5
 8005014:	d10c      	bne.n	8005030 <HAL_RCC_OscConfig+0x30c>
 8005016:	4b5f      	ldr	r3, [pc, #380]	; (8005194 <HAL_RCC_OscConfig+0x470>)
 8005018:	6f1b      	ldr	r3, [r3, #112]	; 0x70
 800501a:	4a5e      	ldr	r2, [pc, #376]	; (8005194 <HAL_RCC_OscConfig+0x470>)
 800501c:	f043 0304 	orr.w	r3, r3, #4
 8005020:	6713      	str	r3, [r2, #112]	; 0x70
 8005022:	4b5c      	ldr	r3, [pc, #368]	; (8005194 <HAL_RCC_OscConfig+0x470>)
 8005024:	6f1b      	ldr	r3, [r3, #112]	; 0x70
 8005026:	4a5b      	ldr	r2, [pc, #364]	; (8005194 <HAL_RCC_OscConfig+0x470>)
 8005028:	f043 0301 	orr.w	r3, r3, #1
 800502c:	6713      	str	r3, [r2, #112]	; 0x70
 800502e:	e00b      	b.n	8005048 <HAL_RCC_OscConfig+0x324>
 8005030:	4b58      	ldr	r3, [pc, #352]	; (8005194 <HAL_RCC_OscConfig+0x470>)
 8005032:	6f1b      	ldr	r3, [r3, #112]	; 0x70
 8005034:	4a57      	ldr	r2, [pc, #348]	; (8005194 <HAL_RCC_OscConfig+0x470>)
 8005036:	f023 0301 	bic.w	r3, r3, #1
 800503a:	6713      	str	r3, [r2, #112]	; 0x70
 800503c:	4b55      	ldr	r3, [pc, #340]	; (8005194 <HAL_RCC_OscConfig+0x470>)
 800503e:	6f1b      	ldr	r3, [r3, #112]	; 0x70
 8005040:	4a54      	ldr	r2, [pc, #336]	; (8005194 <HAL_RCC_OscConfig+0x470>)
 8005042:	f023 0304 	bic.w	r3, r3, #4
 8005046:	6713      	str	r3, [r2, #112]	; 0x70
 8005048:	687b      	ldr	r3, [r7, #4]
 800504a:	689b      	ldr	r3, [r3, #8]
 800504c:	2b00      	cmp	r3, #0
 800504e:	d015      	beq.n	800507c <HAL_RCC_OscConfig+0x358>
 8005050:	f7fe f9fe 	bl	8003450 <HAL_GetTick>
 8005054:	6138      	str	r0, [r7, #16]
 8005056:	e00a      	b.n	800506e <HAL_RCC_OscConfig+0x34a>
 8005058:	f7fe f9fa 	bl	8003450 <HAL_GetTick>
 800505c:	4602      	mov	r2, r0
 800505e:	693b      	ldr	r3, [r7, #16]
 8005060:	1ad3      	subs	r3, r2, r3
 8005062:	f241 3288 	movw	r2, #5000	; 0x1388
 8005066:	4293      	cmp	r3, r2
 8005068:	d901      	bls.n	800506e <HAL_RCC_OscConfig+0x34a>
 800506a:	2303      	movs	r3, #3
 800506c:	e0cb      	b.n	8005206 <HAL_RCC_OscConfig+0x4e2>
 800506e:	4b49      	ldr	r3, [pc, #292]	; (8005194 <HAL_RCC_OscConfig+0x470>)
 8005070:	6f1b      	ldr	r3, [r3, #112]	; 0x70
 8005072:	f003 0302 	and.w	r3, r3, #2
 8005076:	2b00      	cmp	r3, #0
 8005078:	d0ee      	beq.n	8005058 <HAL_RCC_OscConfig+0x334>
 800507a:	e014      	b.n	80050a6 <HAL_RCC_OscConfig+0x382>
 800507c:	f7fe f9e8 	bl	8003450 <HAL_GetTick>
 8005080:	6138      	str	r0, [r7, #16]
 8005082:	e00a      	b.n	800509a <HAL_RCC_OscConfig+0x376>
 8005084:	f7fe f9e4 	bl	8003450 <HAL_GetTick>
 8005088:	4602      	mov	r2, r0
 800508a:	693b      	ldr	r3, [r7, #16]
 800508c:	1ad3      	subs	r3, r2, r3
 800508e:	f241 3288 	movw	r2, #5000	; 0x1388
 8005092:	4293      	cmp	r3, r2
 8005094:	d901      	bls.n	800509a <HAL_RCC_OscConfig+0x376>
 8005096:	2303      	movs	r3, #3
 8005098:	e0b5      	b.n	8005206 <HAL_RCC_OscConfig+0x4e2>
 800509a:	4b3e      	ldr	r3, [pc, #248]	; (8005194 <HAL_RCC_OscConfig+0x470>)
 800509c:	6f1b      	ldr	r3, [r3, #112]	; 0x70
 800509e:	f003 0302 	and.w	r3, r3, #2
 80050a2:	2b00      	cmp	r3, #0
 80050a4:	d1ee      	bne.n	8005084 <HAL_RCC_OscConfig+0x360>
 80050a6:	7dfb      	ldrb	r3, [r7, #23]
 80050a8:	2b01      	cmp	r3, #1
 80050aa:	d105      	bne.n	80050b8 <HAL_RCC_OscConfig+0x394>
 80050ac:	4b39      	ldr	r3, [pc, #228]	; (8005194 <HAL_RCC_OscConfig+0x470>)
 80050ae:	6c1b      	ldr	r3, [r3, #64]	; 0x40
 80050b0:	4a38      	ldr	r2, [pc, #224]	; (8005194 <HAL_RCC_OscConfig+0x470>)
 80050b2:	f023 5380 	bic.w	r3, r3, #268435456	; 0x10000000
 80050b6:	6413      	str	r3, [r2, #64]	; 0x40
 80050b8:	687b      	ldr	r3, [r7, #4]
 80050ba:	699b      	ldr	r3, [r3, #24]
 80050bc:	2b00      	cmp	r3, #0
 80050be:	f000 80a1 	beq.w	8005204 <HAL_RCC_OscConfig+0x4e0>
 80050c2:	4b34      	ldr	r3, [pc, #208]	; (8005194 <HAL_RCC_OscConfig+0x470>)
 80050c4:	689b      	ldr	r3, [r3, #8]
 80050c6:	f003 030c 	and.w	r3, r3, #12
 80050ca:	2b08      	cmp	r3, #8
 80050cc:	d05c      	beq.n	8005188 <HAL_RCC_OscConfig+0x464>
 80050ce:	687b      	ldr	r3, [r7, #4]
 80050d0:	699b      	ldr	r3, [r3, #24]
 80050d2:	2b02      	cmp	r3, #2
 80050d4:	d141      	bne.n	800515a <HAL_RCC_OscConfig+0x436>
 80050d6:	4b31      	ldr	r3, [pc, #196]	; (800519c <HAL_RCC_OscConfig+0x478>)
 80050d8:	2200      	movs	r2, #0
 80050da:	601a      	str	r2, [r3, #0]
 80050dc:	f7fe f9b8 	bl	8003450 <HAL_GetTick>
 80050e0:	6138      	str	r0, [r7, #16]
 80050e2:	e008      	b.n	80050f6 <HAL_RCC_OscConfig+0x3d2>
 80050e4:	f7fe f9b4 	bl	8003450 <HAL_GetTick>
 80050e8:	4602      	mov	r2, r0
 80050ea:	693b      	ldr	r3, [r7, #16]
 80050ec:	1ad3      	subs	r3, r2, r3
 80050ee:	2b02      	cmp	r3, #2
 80050f0:	d901      	bls.n	80050f6 <HAL_RCC_OscConfig+0x3d2>
 80050f2:	2303      	movs	r3, #3
 80050f4:	e087      	b.n	8005206 <HAL_RCC_OscConfig+0x4e2>
 80050f6:	4b27      	ldr	r3, [pc, #156]	; (8005194 <HAL_RCC_OscConfig+0x470>)
 80050f8:	681b      	ldr	r3, [r3, #0]
 80050fa:	f003 7300 	and.w	r3, r3, #33554432	; 0x2000000
 80050fe:	2b00      	cmp	r3, #0
 8005100:	d1f0      	bne.n	80050e4 <HAL_RCC_OscConfig+0x3c0>
 8005102:	687b      	ldr	r3, [r7, #4]
 8005104:	69da      	ldr	r2, [r3, #28]
 8005106:	687b      	ldr	r3, [r7, #4]
 8005108:	6a1b      	ldr	r3, [r3, #32]
 800510a:	431a      	orrs	r2, r3
 800510c:	687b      	ldr	r3, [r7, #4]
 800510e:	6a5b      	ldr	r3, [r3, #36]	; 0x24
 8005110:	019b      	lsls	r3, r3, #6
 8005112:	431a      	orrs	r2, r3
 8005114:	687b      	ldr	r3, [r7, #4]
 8005116:	6a9b      	ldr	r3, [r3, #40]	; 0x28
 8005118:	085b      	lsrs	r3, r3, #1
 800511a:	3b01      	subs	r3, #1
 800511c:	041b      	lsls	r3, r3, #16
 800511e:	431a      	orrs	r2, r3
 8005120:	687b      	ldr	r3, [r7, #4]
 8005122:	6adb      	ldr	r3, [r3, #44]	; 0x2c
 8005124:	061b      	lsls	r3, r3, #24
 8005126:	491b      	ldr	r1, [pc, #108]	; (8005194 <HAL_RCC_OscConfig+0x470>)
 8005128:	4313      	orrs	r3, r2
 800512a:	604b      	str	r3, [r1, #4]
 800512c:	4b1b      	ldr	r3, [pc, #108]	; (800519c <HAL_RCC_OscConfig+0x478>)
 800512e:	2201      	movs	r2, #1
 8005130:	601a      	str	r2, [r3, #0]
 8005132:	f7fe f98d 	bl	8003450 <HAL_GetTick>
 8005136:	6138      	str	r0, [r7, #16]
 8005138:	e008      	b.n	800514c <HAL_RCC_OscConfig+0x428>
 800513a:	f7fe f989 	bl	8003450 <HAL_GetTick>
 800513e:	4602      	mov	r2, r0
 8005140:	693b      	ldr	r3, [r7, #16]
 8005142:	1ad3      	subs	r3, r2, r3
 8005144:	2b02      	cmp	r3, #2
 8005146:	d901      	bls.n	800514c <HAL_RCC_OscConfig+0x428>
 8005148:	2303      	movs	r3, #3
 800514a:	e05c      	b.n	8005206 <HAL_RCC_OscConfig+0x4e2>
 800514c:	4b11      	ldr	r3, [pc, #68]	; (8005194 <HAL_RCC_OscConfig+0x470>)
 800514e:	681b      	ldr	r3, [r3, #0]
 8005150:	f003 7300 	and.w	r3, r3, #33554432	; 0x2000000
 8005154:	2b00      	cmp	r3, #0
 8005156:	d0f0      	beq.n	800513a <HAL_RCC_OscConfig+0x416>
 8005158:	e054      	b.n	8005204 <HAL_RCC_OscConfig+0x4e0>
 800515a:	4b10      	ldr	r3, [pc, #64]	; (800519c <HAL_RCC_OscConfig+0x478>)
 800515c:	2200      	movs	r2, #0
 800515e:	601a      	str	r2, [r3, #0]
 8005160:	f7fe f976 	bl	8003450 <HAL_GetTick>
 8005164:	6138      	str	r0, [r7, #16]
 8005166:	e008      	b.n	800517a <HAL_RCC_OscConfig+0x456>
 8005168:	f7fe f972 	bl	8003450 <HAL_GetTick>
 800516c:	4602      	mov	r2, r0
 800516e:	693b      	ldr	r3, [r7, #16]
 8005170:	1ad3      	subs	r3, r2, r3
 8005172:	2b02      	cmp	r3, #2
 8005174:	d901      	bls.n	800517a <HAL_RCC_OscConfig+0x456>
 8005176:	2303      	movs	r3, #3
 8005178:	e045      	b.n	8005206 <HAL_RCC_OscConfig+0x4e2>
 800517a:	4b06      	ldr	r3, [pc, #24]	; (8005194 <HAL_RCC_OscConfig+0x470>)
 800517c:	681b      	ldr	r3, [r3, #0]
 800517e:	f003 7300 	and.w	r3, r3, #33554432	; 0x2000000
 8005182:	2b00      	cmp	r3, #0
 8005184:	d1f0      	bne.n	8005168 <HAL_RCC_OscConfig+0x444>
 8005186:	e03d      	b.n	8005204 <HAL_RCC_OscConfig+0x4e0>
 8005188:	687b      	ldr	r3, [r7, #4]
 800518a:	699b      	ldr	r3, [r3, #24]
 800518c:	2b01      	cmp	r3, #1
 800518e:	d107      	bne.n	80051a0 <HAL_RCC_OscConfig+0x47c>
 8005190:	2301      	movs	r3, #1
 8005192:	e038      	b.n	8005206 <HAL_RCC_OscConfig+0x4e2>
 8005194:	40023800 	.word	0x40023800
 8005198:	40007000 	.word	0x40007000
 800519c:	42470060 	.word	0x42470060
 80051a0:	4b1b      	ldr	r3, [pc, #108]	; (8005210 <HAL_RCC_OscConfig+0x4ec>)
 80051a2:	685b      	ldr	r3, [r3, #4]
 80051a4:	60fb      	str	r3, [r7, #12]
 80051a6:	687b      	ldr	r3, [r7, #4]
 80051a8:	699b      	ldr	r3, [r3, #24]
 80051aa:	2b01      	cmp	r3, #1
 80051ac:	d028      	beq.n	8005200 <HAL_RCC_OscConfig+0x4dc>
 80051ae:	68fb      	ldr	r3, [r7, #12]
 80051b0:	f403 0280 	and.w	r2, r3, #4194304	; 0x400000
 80051b4:	687b      	ldr	r3, [r7, #4]
 80051b6:	69db      	ldr	r3, [r3, #28]
 80051b8:	429a      	cmp	r2, r3
 80051ba:	d121      	bne.n	8005200 <HAL_RCC_OscConfig+0x4dc>
 80051bc:	68fb      	ldr	r3, [r7, #12]
 80051be:	f003 023f 	and.w	r2, r3, #63	; 0x3f
 80051c2:	687b      	ldr	r3, [r7, #4]
 80051c4:	6a1b      	ldr	r3, [r3, #32]
 80051c6:	429a      	cmp	r2, r3
 80051c8:	d11a      	bne.n	8005200 <HAL_RCC_OscConfig+0x4dc>
 80051ca:	68fa      	ldr	r2, [r7, #12]
 80051cc:	f647 73c0 	movw	r3, #32704	; 0x7fc0
 80051d0:	4013      	ands	r3, r2
 80051d2:	687a      	ldr	r2, [r7, #4]
 80051d4:	6a52      	ldr	r2, [r2, #36]	; 0x24
 80051d6:	0192      	lsls	r2, r2, #6
 80051d8:	4293      	cmp	r3, r2
 80051da:	d111      	bne.n	8005200 <HAL_RCC_OscConfig+0x4dc>
 80051dc:	68fb      	ldr	r3, [r7, #12]
 80051de:	f403 3240 	and.w	r2, r3, #196608	; 0x30000
 80051e2:	687b      	ldr	r3, [r7, #4]
 80051e4:	6a9b      	ldr	r3, [r3, #40]	; 0x28
 80051e6:	085b      	lsrs	r3, r3, #1
 80051e8:	3b01      	subs	r3, #1
 80051ea:	041b      	lsls	r3, r3, #16
 80051ec:	429a      	cmp	r2, r3
 80051ee:	d107      	bne.n	8005200 <HAL_RCC_OscConfig+0x4dc>
 80051f0:	68fb      	ldr	r3, [r7, #12]
 80051f2:	f003 6270 	and.w	r2, r3, #251658240	; 0xf000000
 80051f6:	687b      	ldr	r3, [r7, #4]
 80051f8:	6adb      	ldr	r3, [r3, #44]	; 0x2c
 80051fa:	061b      	lsls	r3, r3, #24
 80051fc:	429a      	cmp	r2, r3
 80051fe:	d001      	beq.n	8005204 <HAL_RCC_OscConfig+0x4e0>
 8005200:	2301      	movs	r3, #1
 8005202:	e000      	b.n	8005206 <HAL_RCC_OscConfig+0x4e2>
 8005204:	2300      	movs	r3, #0
 8005206:	4618      	mov	r0, r3
 8005208:	3718      	adds	r7, #24
 800520a:	46bd      	mov	sp, r7
 800520c:	bd80      	pop	{r7, pc}
 800520e:	bf00      	nop
 8005210:	40023800 	.word	0x40023800

08005214 <HAL_RCC_ClockConfig>:
 8005214:	b580      	push	{r7, lr}
 8005216:	b084      	sub	sp, #16
 8005218:	af00      	add	r7, sp, #0
 800521a:	6078      	str	r0, [r7, #4]
 800521c:	6039      	str	r1, [r7, #0]
 800521e:	687b      	ldr	r3, [r7, #4]
 8005220:	2b00      	cmp	r3, #0
 8005222:	d101      	bne.n	8005228 <HAL_RCC_ClockConfig+0x14>
 8005224:	2301      	movs	r3, #1
 8005226:	e0cc      	b.n	80053c2 <HAL_RCC_ClockConfig+0x1ae>
 8005228:	4b68      	ldr	r3, [pc, #416]	; (80053cc <HAL_RCC_ClockConfig+0x1b8>)
 800522a:	681b      	ldr	r3, [r3, #0]
 800522c:	f003 0307 	and.w	r3, r3, #7
 8005230:	683a      	ldr	r2, [r7, #0]
 8005232:	429a      	cmp	r2, r3
 8005234:	d90c      	bls.n	8005250 <HAL_RCC_ClockConfig+0x3c>
 8005236:	4b65      	ldr	r3, [pc, #404]	; (80053cc <HAL_RCC_ClockConfig+0x1b8>)
 8005238:	683a      	ldr	r2, [r7, #0]
 800523a:	b2d2      	uxtb	r2, r2
 800523c:	701a      	strb	r2, [r3, #0]
 800523e:	4b63      	ldr	r3, [pc, #396]	; (80053cc <HAL_RCC_ClockConfig+0x1b8>)
 8005240:	681b      	ldr	r3, [r3, #0]
 8005242:	f003 0307 	and.w	r3, r3, #7
 8005246:	683a      	ldr	r2, [r7, #0]
 8005248:	429a      	cmp	r2, r3
 800524a:	d001      	beq.n	8005250 <HAL_RCC_ClockConfig+0x3c>
 800524c:	2301      	movs	r3, #1
 800524e:	e0b8      	b.n	80053c2 <HAL_RCC_ClockConfig+0x1ae>
 8005250:	687b      	ldr	r3, [r7, #4]
 8005252:	681b      	ldr	r3, [r3, #0]
 8005254:	f003 0302 	and.w	r3, r3, #2
 8005258:	2b00      	cmp	r3, #0
 800525a:	d020      	beq.n	800529e <HAL_RCC_ClockConfig+0x8a>
 800525c:	687b      	ldr	r3, [r7, #4]
 800525e:	681b      	ldr	r3, [r3, #0]
 8005260:	f003 0304 	and.w	r3, r3, #4
 8005264:	2b00      	cmp	r3, #0
 8005266:	d005      	beq.n	8005274 <HAL_RCC_ClockConfig+0x60>
 8005268:	4b59      	ldr	r3, [pc, #356]	; (80053d0 <HAL_RCC_ClockConfig+0x1bc>)
 800526a:	689b      	ldr	r3, [r3, #8]
 800526c:	4a58      	ldr	r2, [pc, #352]	; (80053d0 <HAL_RCC_ClockConfig+0x1bc>)
 800526e:	f443 53e0 	orr.w	r3, r3, #7168	; 0x1c00
 8005272:	6093      	str	r3, [r2, #8]
 8005274:	687b      	ldr	r3, [r7, #4]
 8005276:	681b      	ldr	r3, [r3, #0]
 8005278:	f003 0308 	and.w	r3, r3, #8
 800527c:	2b00      	cmp	r3, #0
 800527e:	d005      	beq.n	800528c <HAL_RCC_ClockConfig+0x78>
 8005280:	4b53      	ldr	r3, [pc, #332]	; (80053d0 <HAL_RCC_ClockConfig+0x1bc>)
 8005282:	689b      	ldr	r3, [r3, #8]
 8005284:	4a52      	ldr	r2, [pc, #328]	; (80053d0 <HAL_RCC_ClockConfig+0x1bc>)
 8005286:	f443 4360 	orr.w	r3, r3, #57344	; 0xe000
 800528a:	6093      	str	r3, [r2, #8]
 800528c:	4b50      	ldr	r3, [pc, #320]	; (80053d0 <HAL_RCC_ClockConfig+0x1bc>)
 800528e:	689b      	ldr	r3, [r3, #8]
 8005290:	f023 02f0 	bic.w	r2, r3, #240	; 0xf0
 8005294:	687b      	ldr	r3, [r7, #4]
 8005296:	689b      	ldr	r3, [r3, #8]
 8005298:	494d      	ldr	r1, [pc, #308]	; (80053d0 <HAL_RCC_ClockConfig+0x1bc>)
 800529a:	4313      	orrs	r3, r2
 800529c:	608b      	str	r3, [r1, #8]
 800529e:	687b      	ldr	r3, [r7, #4]
 80052a0:	681b      	ldr	r3, [r3, #0]
 80052a2:	f003 0301 	and.w	r3, r3, #1
 80052a6:	2b00      	cmp	r3, #0
 80052a8:	d044      	beq.n	8005334 <HAL_RCC_ClockConfig+0x120>
 80052aa:	687b      	ldr	r3, [r7, #4]
 80052ac:	685b      	ldr	r3, [r3, #4]
 80052ae:	2b01      	cmp	r3, #1
 80052b0:	d107      	bne.n	80052c2 <HAL_RCC_ClockConfig+0xae>
 80052b2:	4b47      	ldr	r3, [pc, #284]	; (80053d0 <HAL_RCC_ClockConfig+0x1bc>)
 80052b4:	681b      	ldr	r3, [r3, #0]
 80052b6:	f403 3300 	and.w	r3, r3, #131072	; 0x20000
 80052ba:	2b00      	cmp	r3, #0
 80052bc:	d119      	bne.n	80052f2 <HAL_RCC_ClockConfig+0xde>
 80052be:	2301      	movs	r3, #1
 80052c0:	e07f      	b.n	80053c2 <HAL_RCC_ClockConfig+0x1ae>
 80052c2:	687b      	ldr	r3, [r7, #4]
 80052c4:	685b      	ldr	r3, [r3, #4]
 80052c6:	2b02      	cmp	r3, #2
 80052c8:	d003      	beq.n	80052d2 <HAL_RCC_ClockConfig+0xbe>
 80052ca:	687b      	ldr	r3, [r7, #4]
 80052cc:	685b      	ldr	r3, [r3, #4]
 80052ce:	2b03      	cmp	r3, #3
 80052d0:	d107      	bne.n	80052e2 <HAL_RCC_ClockConfig+0xce>
 80052d2:	4b3f      	ldr	r3, [pc, #252]	; (80053d0 <HAL_RCC_ClockConfig+0x1bc>)
 80052d4:	681b      	ldr	r3, [r3, #0]
 80052d6:	f003 7300 	and.w	r3, r3, #33554432	; 0x2000000
 80052da:	2b00      	cmp	r3, #0
 80052dc:	d109      	bne.n	80052f2 <HAL_RCC_ClockConfig+0xde>
 80052de:	2301      	movs	r3, #1
 80052e0:	e06f      	b.n	80053c2 <HAL_RCC_ClockConfig+0x1ae>
 80052e2:	4b3b      	ldr	r3, [pc, #236]	; (80053d0 <HAL_RCC_ClockConfig+0x1bc>)
 80052e4:	681b      	ldr	r3, [r3, #0]
 80052e6:	f003 0302 	and.w	r3, r3, #2
 80052ea:	2b00      	cmp	r3, #0
 80052ec:	d101      	bne.n	80052f2 <HAL_RCC_ClockConfig+0xde>
 80052ee:	2301      	movs	r3, #1
 80052f0:	e067      	b.n	80053c2 <HAL_RCC_ClockConfig+0x1ae>
 80052f2:	4b37      	ldr	r3, [pc, #220]	; (80053d0 <HAL_RCC_ClockConfig+0x1bc>)
 80052f4:	689b      	ldr	r3, [r3, #8]
 80052f6:	f023 0203 	bic.w	r2, r3, #3
 80052fa:	687b      	ldr	r3, [r7, #4]
 80052fc:	685b      	ldr	r3, [r3, #4]
 80052fe:	4934      	ldr	r1, [pc, #208]	; (80053d0 <HAL_RCC_ClockConfig+0x1bc>)
 8005300:	4313      	orrs	r3, r2
 8005302:	608b      	str	r3, [r1, #8]
 8005304:	f7fe f8a4 	bl	8003450 <HAL_GetTick>
 8005308:	60f8      	str	r0, [r7, #12]
 800530a:	e00a      	b.n	8005322 <HAL_RCC_ClockConfig+0x10e>
 800530c:	f7fe f8a0 	bl	8003450 <HAL_GetTick>
 8005310:	4602      	mov	r2, r0
 8005312:	68fb      	ldr	r3, [r7, #12]
 8005314:	1ad3      	subs	r3, r2, r3
 8005316:	f241 3288 	movw	r2, #5000	; 0x1388
 800531a:	4293      	cmp	r3, r2
 800531c:	d901      	bls.n	8005322 <HAL_RCC_ClockConfig+0x10e>
 800531e:	2303      	movs	r3, #3
 8005320:	e04f      	b.n	80053c2 <HAL_RCC_ClockConfig+0x1ae>
 8005322:	4b2b      	ldr	r3, [pc, #172]	; (80053d0 <HAL_RCC_ClockConfig+0x1bc>)
 8005324:	689b      	ldr	r3, [r3, #8]
 8005326:	f003 020c 	and.w	r2, r3, #12
 800532a:	687b      	ldr	r3, [r7, #4]
 800532c:	685b      	ldr	r3, [r3, #4]
 800532e:	009b      	lsls	r3, r3, #2
 8005330:	429a      	cmp	r2, r3
 8005332:	d1eb      	bne.n	800530c <HAL_RCC_ClockConfig+0xf8>
 8005334:	4b25      	ldr	r3, [pc, #148]	; (80053cc <HAL_RCC_ClockConfig+0x1b8>)
 8005336:	681b      	ldr	r3, [r3, #0]
 8005338:	f003 0307 	and.w	r3, r3, #7
 800533c:	683a      	ldr	r2, [r7, #0]
 800533e:	429a      	cmp	r2, r3
 8005340:	d20c      	bcs.n	800535c <HAL_RCC_ClockConfig+0x148>
 8005342:	4b22      	ldr	r3, [pc, #136]	; (80053cc <HAL_RCC_ClockConfig+0x1b8>)
 8005344:	683a      	ldr	r2, [r7, #0]
 8005346:	b2d2      	uxtb	r2, r2
 8005348:	701a      	strb	r2, [r3, #0]
 800534a:	4b20      	ldr	r3, [pc, #128]	; (80053cc <HAL_RCC_ClockConfig+0x1b8>)
 800534c:	681b      	ldr	r3, [r3, #0]
 800534e:	f003 0307 	and.w	r3, r3, #7
 8005352:	683a      	ldr	r2, [r7, #0]
 8005354:	429a      	cmp	r2, r3
 8005356:	d001      	beq.n	800535c <HAL_RCC_ClockConfig+0x148>
 8005358:	2301      	movs	r3, #1
 800535a:	e032      	b.n	80053c2 <HAL_RCC_ClockConfig+0x1ae>
 800535c:	687b      	ldr	r3, [r7, #4]
 800535e:	681b      	ldr	r3, [r3, #0]
 8005360:	f003 0304 	and.w	r3, r3, #4
 8005364:	2b00      	cmp	r3, #0
 8005366:	d008      	beq.n	800537a <HAL_RCC_ClockConfig+0x166>
 8005368:	4b19      	ldr	r3, [pc, #100]	; (80053d0 <HAL_RCC_ClockConfig+0x1bc>)
 800536a:	689b      	ldr	r3, [r3, #8]
 800536c:	f423 52e0 	bic.w	r2, r3, #7168	; 0x1c00
 8005370:	687b      	ldr	r3, [r7, #4]
 8005372:	68db      	ldr	r3, [r3, #12]
 8005374:	4916      	ldr	r1, [pc, #88]	; (80053d0 <HAL_RCC_ClockConfig+0x1bc>)
 8005376:	4313      	orrs	r3, r2
 8005378:	608b      	str	r3, [r1, #8]
 800537a:	687b      	ldr	r3, [r7, #4]
 800537c:	681b      	ldr	r3, [r3, #0]
 800537e:	f003 0308 	and.w	r3, r3, #8
 8005382:	2b00      	cmp	r3, #0
 8005384:	d009      	beq.n	800539a <HAL_RCC_ClockConfig+0x186>
 8005386:	4b12      	ldr	r3, [pc, #72]	; (80053d0 <HAL_RCC_ClockConfig+0x1bc>)
 8005388:	689b      	ldr	r3, [r3, #8]
 800538a:	f423 4260 	bic.w	r2, r3, #57344	; 0xe000
 800538e:	687b      	ldr	r3, [r7, #4]
 8005390:	691b      	ldr	r3, [r3, #16]
 8005392:	00db      	lsls	r3, r3, #3
 8005394:	490e      	ldr	r1, [pc, #56]	; (80053d0 <HAL_RCC_ClockConfig+0x1bc>)
 8005396:	4313      	orrs	r3, r2
 8005398:	608b      	str	r3, [r1, #8]
 800539a:	f000 f821 	bl	80053e0 <HAL_RCC_GetSysClockFreq>
 800539e:	4602      	mov	r2, r0
 80053a0:	4b0b      	ldr	r3, [pc, #44]	; (80053d0 <HAL_RCC_ClockConfig+0x1bc>)
 80053a2:	689b      	ldr	r3, [r3, #8]
 80053a4:	091b      	lsrs	r3, r3, #4
 80053a6:	f003 030f 	and.w	r3, r3, #15
 80053aa:	490a      	ldr	r1, [pc, #40]	; (80053d4 <HAL_RCC_ClockConfig+0x1c0>)
 80053ac:	5ccb      	ldrb	r3, [r1, r3]
 80053ae:	fa22 f303 	lsr.w	r3, r2, r3
 80053b2:	4a09      	ldr	r2, [pc, #36]	; (80053d8 <HAL_RCC_ClockConfig+0x1c4>)
 80053b4:	6013      	str	r3, [r2, #0]
 80053b6:	4b09      	ldr	r3, [pc, #36]	; (80053dc <HAL_RCC_ClockConfig+0x1c8>)
 80053b8:	681b      	ldr	r3, [r3, #0]
 80053ba:	4618      	mov	r0, r3
 80053bc:	f7fe f804 	bl	80033c8 <HAL_InitTick>
 80053c0:	2300      	movs	r3, #0
 80053c2:	4618      	mov	r0, r3
 80053c4:	3710      	adds	r7, #16
 80053c6:	46bd      	mov	sp, r7
 80053c8:	bd80      	pop	{r7, pc}
 80053ca:	bf00      	nop
 80053cc:	40023c00 	.word	0x40023c00
 80053d0:	40023800 	.word	0x40023800
 80053d4:	0800afd0 	.word	0x0800afd0
 80053d8:	20000208 	.word	0x20000208
 80053dc:	2000020c 	.word	0x2000020c

080053e0 <HAL_RCC_GetSysClockFreq>:
 80053e0:	e92d 4fb0 	stmdb	sp!, {r4, r5, r7, r8, r9, sl, fp, lr}
 80053e4:	b094      	sub	sp, #80	; 0x50
 80053e6:	af00      	add	r7, sp, #0
 80053e8:	2300      	movs	r3, #0
 80053ea:	647b      	str	r3, [r7, #68]	; 0x44
 80053ec:	2300      	movs	r3, #0
 80053ee:	64fb      	str	r3, [r7, #76]	; 0x4c
 80053f0:	2300      	movs	r3, #0
 80053f2:	643b      	str	r3, [r7, #64]	; 0x40
 80053f4:	2300      	movs	r3, #0
 80053f6:	64bb      	str	r3, [r7, #72]	; 0x48
 80053f8:	4b79      	ldr	r3, [pc, #484]	; (80055e0 <HAL_RCC_GetSysClockFreq+0x200>)
 80053fa:	689b      	ldr	r3, [r3, #8]
 80053fc:	f003 030c 	and.w	r3, r3, #12
 8005400:	2b08      	cmp	r3, #8
 8005402:	d00d      	beq.n	8005420 <HAL_RCC_GetSysClockFreq+0x40>
 8005404:	2b08      	cmp	r3, #8
 8005406:	f200 80e1 	bhi.w	80055cc <HAL_RCC_GetSysClockFreq+0x1ec>
 800540a:	2b00      	cmp	r3, #0
 800540c:	d002      	beq.n	8005414 <HAL_RCC_GetSysClockFreq+0x34>
 800540e:	2b04      	cmp	r3, #4
 8005410:	d003      	beq.n	800541a <HAL_RCC_GetSysClockFreq+0x3a>
 8005412:	e0db      	b.n	80055cc <HAL_RCC_GetSysClockFreq+0x1ec>
 8005414:	4b73      	ldr	r3, [pc, #460]	; (80055e4 <HAL_RCC_GetSysClockFreq+0x204>)
 8005416:	64bb      	str	r3, [r7, #72]	; 0x48
 8005418:	e0db      	b.n	80055d2 <HAL_RCC_GetSysClockFreq+0x1f2>
 800541a:	4b73      	ldr	r3, [pc, #460]	; (80055e8 <HAL_RCC_GetSysClockFreq+0x208>)
 800541c:	64bb      	str	r3, [r7, #72]	; 0x48
 800541e:	e0d8      	b.n	80055d2 <HAL_RCC_GetSysClockFreq+0x1f2>
 8005420:	4b6f      	ldr	r3, [pc, #444]	; (80055e0 <HAL_RCC_GetSysClockFreq+0x200>)
 8005422:	685b      	ldr	r3, [r3, #4]
 8005424:	f003 033f 	and.w	r3, r3, #63	; 0x3f
 8005428:	647b      	str	r3, [r7, #68]	; 0x44
 800542a:	4b6d      	ldr	r3, [pc, #436]	; (80055e0 <HAL_RCC_GetSysClockFreq+0x200>)
 800542c:	685b      	ldr	r3, [r3, #4]
 800542e:	f403 0380 	and.w	r3, r3, #4194304	; 0x400000
 8005432:	2b00      	cmp	r3, #0
 8005434:	d063      	beq.n	80054fe <HAL_RCC_GetSysClockFreq+0x11e>
 8005436:	4b6a      	ldr	r3, [pc, #424]	; (80055e0 <HAL_RCC_GetSysClockFreq+0x200>)
 8005438:	685b      	ldr	r3, [r3, #4]
 800543a:	099b      	lsrs	r3, r3, #6
 800543c:	2200      	movs	r2, #0
 800543e:	63bb      	str	r3, [r7, #56]	; 0x38
 8005440:	63fa      	str	r2, [r7, #60]	; 0x3c
 8005442:	6bbb      	ldr	r3, [r7, #56]	; 0x38
 8005444:	f3c3 0308 	ubfx	r3, r3, #0, #9
 8005448:	633b      	str	r3, [r7, #48]	; 0x30
 800544a:	2300      	movs	r3, #0
 800544c:	637b      	str	r3, [r7, #52]	; 0x34
 800544e:	e9d7 450c 	ldrd	r4, r5, [r7, #48]	; 0x30
 8005452:	4622      	mov	r2, r4
 8005454:	462b      	mov	r3, r5
 8005456:	f04f 0000 	mov.w	r0, #0
 800545a:	f04f 0100 	mov.w	r1, #0
 800545e:	0159      	lsls	r1, r3, #5
 8005460:	ea41 61d2 	orr.w	r1, r1, r2, lsr #27
 8005464:	0150      	lsls	r0, r2, #5
 8005466:	4602      	mov	r2, r0
 8005468:	460b      	mov	r3, r1
 800546a:	4621      	mov	r1, r4
 800546c:	1a51      	subs	r1, r2, r1
 800546e:	6139      	str	r1, [r7, #16]
 8005470:	4629      	mov	r1, r5
 8005472:	eb63 0301 	sbc.w	r3, r3, r1
 8005476:	617b      	str	r3, [r7, #20]
 8005478:	f04f 0200 	mov.w	r2, #0
 800547c:	f04f 0300 	mov.w	r3, #0
 8005480:	e9d7 ab04 	ldrd	sl, fp, [r7, #16]
 8005484:	4659      	mov	r1, fp
 8005486:	018b      	lsls	r3, r1, #6
 8005488:	4651      	mov	r1, sl
 800548a:	ea43 6391 	orr.w	r3, r3, r1, lsr #26
 800548e:	4651      	mov	r1, sl
 8005490:	018a      	lsls	r2, r1, #6
 8005492:	4651      	mov	r1, sl
 8005494:	ebb2 0801 	subs.w	r8, r2, r1
 8005498:	4659      	mov	r1, fp
 800549a:	eb63 0901 	sbc.w	r9, r3, r1
 800549e:	f04f 0200 	mov.w	r2, #0
 80054a2:	f04f 0300 	mov.w	r3, #0
 80054a6:	ea4f 03c9 	mov.w	r3, r9, lsl #3
 80054aa:	ea43 7358 	orr.w	r3, r3, r8, lsr #29
 80054ae:	ea4f 02c8 	mov.w	r2, r8, lsl #3
 80054b2:	4690      	mov	r8, r2
 80054b4:	4699      	mov	r9, r3
 80054b6:	4623      	mov	r3, r4
 80054b8:	eb18 0303 	adds.w	r3, r8, r3
 80054bc:	60bb      	str	r3, [r7, #8]
 80054be:	462b      	mov	r3, r5
 80054c0:	eb49 0303 	adc.w	r3, r9, r3
 80054c4:	60fb      	str	r3, [r7, #12]
 80054c6:	f04f 0200 	mov.w	r2, #0
 80054ca:	f04f 0300 	mov.w	r3, #0
 80054ce:	e9d7 4502 	ldrd	r4, r5, [r7, #8]
 80054d2:	4629      	mov	r1, r5
 80054d4:	024b      	lsls	r3, r1, #9
 80054d6:	4621      	mov	r1, r4
 80054d8:	ea43 53d1 	orr.w	r3, r3, r1, lsr #23
 80054dc:	4621      	mov	r1, r4
 80054de:	024a      	lsls	r2, r1, #9
 80054e0:	4610      	mov	r0, r2
 80054e2:	4619      	mov	r1, r3
 80054e4:	6c7b      	ldr	r3, [r7, #68]	; 0x44
 80054e6:	2200      	movs	r2, #0
 80054e8:	62bb      	str	r3, [r7, #40]	; 0x28
 80054ea:	62fa      	str	r2, [r7, #44]	; 0x2c
 80054ec:	e9d7 230a 	ldrd	r2, r3, [r7, #40]	; 0x28
 80054f0:	f7fb fa88 	bl	8000a04 <__aeabi_uldivmod>
 80054f4:	4602      	mov	r2, r0
 80054f6:	460b      	mov	r3, r1
 80054f8:	4613      	mov	r3, r2
 80054fa:	64fb      	str	r3, [r7, #76]	; 0x4c
 80054fc:	e058      	b.n	80055b0 <HAL_RCC_GetSysClockFreq+0x1d0>
 80054fe:	4b38      	ldr	r3, [pc, #224]	; (80055e0 <HAL_RCC_GetSysClockFreq+0x200>)
 8005500:	685b      	ldr	r3, [r3, #4]
 8005502:	099b      	lsrs	r3, r3, #6
 8005504:	2200      	movs	r2, #0
 8005506:	4618      	mov	r0, r3
 8005508:	4611      	mov	r1, r2
 800550a:	f3c0 0308 	ubfx	r3, r0, #0, #9
 800550e:	623b      	str	r3, [r7, #32]
 8005510:	2300      	movs	r3, #0
 8005512:	627b      	str	r3, [r7, #36]	; 0x24
 8005514:	e9d7 8908 	ldrd	r8, r9, [r7, #32]
 8005518:	4642      	mov	r2, r8
 800551a:	464b      	mov	r3, r9
 800551c:	f04f 0000 	mov.w	r0, #0
 8005520:	f04f 0100 	mov.w	r1, #0
 8005524:	0159      	lsls	r1, r3, #5
 8005526:	ea41 61d2 	orr.w	r1, r1, r2, lsr #27
 800552a:	0150      	lsls	r0, r2, #5
 800552c:	4602      	mov	r2, r0
 800552e:	460b      	mov	r3, r1
 8005530:	4641      	mov	r1, r8
 8005532:	ebb2 0a01 	subs.w	sl, r2, r1
 8005536:	4649      	mov	r1, r9
 8005538:	eb63 0b01 	sbc.w	fp, r3, r1
 800553c:	f04f 0200 	mov.w	r2, #0
 8005540:	f04f 0300 	mov.w	r3, #0
 8005544:	ea4f 138b 	mov.w	r3, fp, lsl #6
 8005548:	ea43 639a 	orr.w	r3, r3, sl, lsr #26
 800554c:	ea4f 128a 	mov.w	r2, sl, lsl #6
 8005550:	ebb2 040a 	subs.w	r4, r2, sl
 8005554:	eb63 050b 	sbc.w	r5, r3, fp
 8005558:	f04f 0200 	mov.w	r2, #0
 800555c:	f04f 0300 	mov.w	r3, #0
 8005560:	00eb      	lsls	r3, r5, #3
 8005562:	ea43 7354 	orr.w	r3, r3, r4, lsr #29
 8005566:	00e2      	lsls	r2, r4, #3
 8005568:	4614      	mov	r4, r2
 800556a:	461d      	mov	r5, r3
 800556c:	4643      	mov	r3, r8
 800556e:	18e3      	adds	r3, r4, r3
 8005570:	603b      	str	r3, [r7, #0]
 8005572:	464b      	mov	r3, r9
 8005574:	eb45 0303 	adc.w	r3, r5, r3
 8005578:	607b      	str	r3, [r7, #4]
 800557a:	f04f 0200 	mov.w	r2, #0
 800557e:	f04f 0300 	mov.w	r3, #0
 8005582:	e9d7 4500 	ldrd	r4, r5, [r7]
 8005586:	4629      	mov	r1, r5
 8005588:	028b      	lsls	r3, r1, #10
 800558a:	4621      	mov	r1, r4
 800558c:	ea43 5391 	orr.w	r3, r3, r1, lsr #22
 8005590:	4621      	mov	r1, r4
 8005592:	028a      	lsls	r2, r1, #10
 8005594:	4610      	mov	r0, r2
 8005596:	4619      	mov	r1, r3
 8005598:	6c7b      	ldr	r3, [r7, #68]	; 0x44
 800559a:	2200      	movs	r2, #0
 800559c:	61bb      	str	r3, [r7, #24]
 800559e:	61fa      	str	r2, [r7, #28]
 80055a0:	e9d7 2306 	ldrd	r2, r3, [r7, #24]
 80055a4:	f7fb fa2e 	bl	8000a04 <__aeabi_uldivmod>
 80055a8:	4602      	mov	r2, r0
 80055aa:	460b      	mov	r3, r1
 80055ac:	4613      	mov	r3, r2
 80055ae:	64fb      	str	r3, [r7, #76]	; 0x4c
 80055b0:	4b0b      	ldr	r3, [pc, #44]	; (80055e0 <HAL_RCC_GetSysClockFreq+0x200>)
 80055b2:	685b      	ldr	r3, [r3, #4]
 80055b4:	0c1b      	lsrs	r3, r3, #16
 80055b6:	f003 0303 	and.w	r3, r3, #3
 80055ba:	3301      	adds	r3, #1
 80055bc:	005b      	lsls	r3, r3, #1
 80055be:	643b      	str	r3, [r7, #64]	; 0x40
 80055c0:	6cfa      	ldr	r2, [r7, #76]	; 0x4c
 80055c2:	6c3b      	ldr	r3, [r7, #64]	; 0x40
 80055c4:	fbb2 f3f3 	udiv	r3, r2, r3
 80055c8:	64bb      	str	r3, [r7, #72]	; 0x48
 80055ca:	e002      	b.n	80055d2 <HAL_RCC_GetSysClockFreq+0x1f2>
 80055cc:	4b05      	ldr	r3, [pc, #20]	; (80055e4 <HAL_RCC_GetSysClockFreq+0x204>)
 80055ce:	64bb      	str	r3, [r7, #72]	; 0x48
 80055d0:	bf00      	nop
 80055d2:	6cbb      	ldr	r3, [r7, #72]	; 0x48
 80055d4:	4618      	mov	r0, r3
 80055d6:	3750      	adds	r7, #80	; 0x50
 80055d8:	46bd      	mov	sp, r7
 80055da:	e8bd 8fb0 	ldmia.w	sp!, {r4, r5, r7, r8, r9, sl, fp, pc}
 80055de:	bf00      	nop
 80055e0:	40023800 	.word	0x40023800
 80055e4:	00f42400 	.word	0x00f42400
 80055e8:	007a1200 	.word	0x007a1200

080055ec <HAL_RCC_GetHCLKFreq>:
 80055ec:	b480      	push	{r7}
 80055ee:	af00      	add	r7, sp, #0
 80055f0:	4b03      	ldr	r3, [pc, #12]	; (8005600 <HAL_RCC_GetHCLKFreq+0x14>)
 80055f2:	681b      	ldr	r3, [r3, #0]
 80055f4:	4618      	mov	r0, r3
 80055f6:	46bd      	mov	sp, r7
 80055f8:	f85d 7b04 	ldr.w	r7, [sp], #4
 80055fc:	4770      	bx	lr
 80055fe:	bf00      	nop
 8005600:	20000208 	.word	0x20000208

08005604 <HAL_RCC_GetPCLK1Freq>:
 8005604:	b580      	push	{r7, lr}
 8005606:	af00      	add	r7, sp, #0
 8005608:	f7ff fff0 	bl	80055ec <HAL_RCC_GetHCLKFreq>
 800560c:	4602      	mov	r2, r0
 800560e:	4b05      	ldr	r3, [pc, #20]	; (8005624 <HAL_RCC_GetPCLK1Freq+0x20>)
 8005610:	689b      	ldr	r3, [r3, #8]
 8005612:	0a9b      	lsrs	r3, r3, #10
 8005614:	f003 0307 	and.w	r3, r3, #7
 8005618:	4903      	ldr	r1, [pc, #12]	; (8005628 <HAL_RCC_GetPCLK1Freq+0x24>)
 800561a:	5ccb      	ldrb	r3, [r1, r3]
 800561c:	fa22 f303 	lsr.w	r3, r2, r3
 8005620:	4618      	mov	r0, r3
 8005622:	bd80      	pop	{r7, pc}
 8005624:	40023800 	.word	0x40023800
 8005628:	0800afe0 	.word	0x0800afe0

0800562c <HAL_RCC_GetPCLK2Freq>:
 800562c:	b580      	push	{r7, lr}
 800562e:	af00      	add	r7, sp, #0
 8005630:	f7ff ffdc 	bl	80055ec <HAL_RCC_GetHCLKFreq>
 8005634:	4602      	mov	r2, r0
 8005636:	4b05      	ldr	r3, [pc, #20]	; (800564c <HAL_RCC_GetPCLK2Freq+0x20>)
 8005638:	689b      	ldr	r3, [r3, #8]
 800563a:	0b5b      	lsrs	r3, r3, #13
 800563c:	f003 0307 	and.w	r3, r3, #7
 8005640:	4903      	ldr	r1, [pc, #12]	; (8005650 <HAL_RCC_GetPCLK2Freq+0x24>)
 8005642:	5ccb      	ldrb	r3, [r1, r3]
 8005644:	fa22 f303 	lsr.w	r3, r2, r3
 8005648:	4618      	mov	r0, r3
 800564a:	bd80      	pop	{r7, pc}
 800564c:	40023800 	.word	0x40023800
 8005650:	0800afe0 	.word	0x0800afe0

08005654 <HAL_SPI_Init>:
 8005654:	b580      	push	{r7, lr}
 8005656:	b082      	sub	sp, #8
 8005658:	af00      	add	r7, sp, #0
 800565a:	6078      	str	r0, [r7, #4]
 800565c:	687b      	ldr	r3, [r7, #4]
 800565e:	2b00      	cmp	r3, #0
 8005660:	d101      	bne.n	8005666 <HAL_SPI_Init+0x12>
 8005662:	2301      	movs	r3, #1
 8005664:	e07b      	b.n	800575e <HAL_SPI_Init+0x10a>
 8005666:	687b      	ldr	r3, [r7, #4]
 8005668:	6a5b      	ldr	r3, [r3, #36]	; 0x24
 800566a:	2b00      	cmp	r3, #0
 800566c:	d108      	bne.n	8005680 <HAL_SPI_Init+0x2c>
 800566e:	687b      	ldr	r3, [r7, #4]
 8005670:	685b      	ldr	r3, [r3, #4]
 8005672:	f5b3 7f82 	cmp.w	r3, #260	; 0x104
 8005676:	d009      	beq.n	800568c <HAL_SPI_Init+0x38>
 8005678:	687b      	ldr	r3, [r7, #4]
 800567a:	2200      	movs	r2, #0
 800567c:	61da      	str	r2, [r3, #28]
 800567e:	e005      	b.n	800568c <HAL_SPI_Init+0x38>
 8005680:	687b      	ldr	r3, [r7, #4]
 8005682:	2200      	movs	r2, #0
 8005684:	611a      	str	r2, [r3, #16]
 8005686:	687b      	ldr	r3, [r7, #4]
 8005688:	2200      	movs	r2, #0
 800568a:	615a      	str	r2, [r3, #20]
 800568c:	687b      	ldr	r3, [r7, #4]
 800568e:	2200      	movs	r2, #0
 8005690:	629a      	str	r2, [r3, #40]	; 0x28
 8005692:	687b      	ldr	r3, [r7, #4]
 8005694:	f893 3051 	ldrb.w	r3, [r3, #81]	; 0x51
 8005698:	b2db      	uxtb	r3, r3
 800569a:	2b00      	cmp	r3, #0
 800569c:	d106      	bne.n	80056ac <HAL_SPI_Init+0x58>
 800569e:	687b      	ldr	r3, [r7, #4]
 80056a0:	2200      	movs	r2, #0
 80056a2:	f883 2050 	strb.w	r2, [r3, #80]	; 0x50
 80056a6:	6878      	ldr	r0, [r7, #4]
 80056a8:	f7fd fb04 	bl	8002cb4 <HAL_SPI_MspInit>
 80056ac:	687b      	ldr	r3, [r7, #4]
 80056ae:	2202      	movs	r2, #2
 80056b0:	f883 2051 	strb.w	r2, [r3, #81]	; 0x51
 80056b4:	687b      	ldr	r3, [r7, #4]
 80056b6:	681b      	ldr	r3, [r3, #0]
 80056b8:	681a      	ldr	r2, [r3, #0]
 80056ba:	687b      	ldr	r3, [r7, #4]
 80056bc:	681b      	ldr	r3, [r3, #0]
 80056be:	f022 0240 	bic.w	r2, r2, #64	; 0x40
 80056c2:	601a      	str	r2, [r3, #0]
 80056c4:	687b      	ldr	r3, [r7, #4]
 80056c6:	685b      	ldr	r3, [r3, #4]
 80056c8:	f403 7282 	and.w	r2, r3, #260	; 0x104
 80056cc:	687b      	ldr	r3, [r7, #4]
 80056ce:	689b      	ldr	r3, [r3, #8]
 80056d0:	f403 4304 	and.w	r3, r3, #33792	; 0x8400
 80056d4:	431a      	orrs	r2, r3
 80056d6:	687b      	ldr	r3, [r7, #4]
 80056d8:	68db      	ldr	r3, [r3, #12]
 80056da:	f403 6300 	and.w	r3, r3, #2048	; 0x800
 80056de:	431a      	orrs	r2, r3
 80056e0:	687b      	ldr	r3, [r7, #4]
 80056e2:	691b      	ldr	r3, [r3, #16]
 80056e4:	f003 0302 	and.w	r3, r3, #2
 80056e8:	431a      	orrs	r2, r3
 80056ea:	687b      	ldr	r3, [r7, #4]
 80056ec:	695b      	ldr	r3, [r3, #20]
 80056ee:	f003 0301 	and.w	r3, r3, #1
 80056f2:	431a      	orrs	r2, r3
 80056f4:	687b      	ldr	r3, [r7, #4]
 80056f6:	699b      	ldr	r3, [r3, #24]
 80056f8:	f403 7300 	and.w	r3, r3, #512	; 0x200
 80056fc:	431a      	orrs	r2, r3
 80056fe:	687b      	ldr	r3, [r7, #4]
 8005700:	69db      	ldr	r3, [r3, #28]
 8005702:	f003 0338 	and.w	r3, r3, #56	; 0x38
 8005706:	431a      	orrs	r2, r3
 8005708:	687b      	ldr	r3, [r7, #4]
 800570a:	6a1b      	ldr	r3, [r3, #32]
 800570c:	f003 0380 	and.w	r3, r3, #128	; 0x80
 8005710:	ea42 0103 	orr.w	r1, r2, r3
 8005714:	687b      	ldr	r3, [r7, #4]
 8005716:	6a9b      	ldr	r3, [r3, #40]	; 0x28
 8005718:	f403 5200 	and.w	r2, r3, #8192	; 0x2000
 800571c:	687b      	ldr	r3, [r7, #4]
 800571e:	681b      	ldr	r3, [r3, #0]
 8005720:	430a      	orrs	r2, r1
 8005722:	601a      	str	r2, [r3, #0]
 8005724:	687b      	ldr	r3, [r7, #4]
 8005726:	699b      	ldr	r3, [r3, #24]
 8005728:	0c1b      	lsrs	r3, r3, #16
 800572a:	f003 0104 	and.w	r1, r3, #4
 800572e:	687b      	ldr	r3, [r7, #4]
 8005730:	6a5b      	ldr	r3, [r3, #36]	; 0x24
 8005732:	f003 0210 	and.w	r2, r3, #16
 8005736:	687b      	ldr	r3, [r7, #4]
 8005738:	681b      	ldr	r3, [r3, #0]
 800573a:	430a      	orrs	r2, r1
 800573c:	605a      	str	r2, [r3, #4]
 800573e:	687b      	ldr	r3, [r7, #4]
 8005740:	681b      	ldr	r3, [r3, #0]
 8005742:	69da      	ldr	r2, [r3, #28]
 8005744:	687b      	ldr	r3, [r7, #4]
 8005746:	681b      	ldr	r3, [r3, #0]
 8005748:	f422 6200 	bic.w	r2, r2, #2048	; 0x800
 800574c:	61da      	str	r2, [r3, #28]
 800574e:	687b      	ldr	r3, [r7, #4]
 8005750:	2200      	movs	r2, #0
 8005752:	655a      	str	r2, [r3, #84]	; 0x54
 8005754:	687b      	ldr	r3, [r7, #4]
 8005756:	2201      	movs	r2, #1
 8005758:	f883 2051 	strb.w	r2, [r3, #81]	; 0x51
 800575c:	2300      	movs	r3, #0
 800575e:	4618      	mov	r0, r3
 8005760:	3708      	adds	r7, #8
 8005762:	46bd      	mov	sp, r7
 8005764:	bd80      	pop	{r7, pc}

08005766 <HAL_SPI_Transmit>:
 8005766:	b580      	push	{r7, lr}
 8005768:	b088      	sub	sp, #32
 800576a:	af00      	add	r7, sp, #0
 800576c:	60f8      	str	r0, [r7, #12]
 800576e:	60b9      	str	r1, [r7, #8]
 8005770:	603b      	str	r3, [r7, #0]
 8005772:	4613      	mov	r3, r2
 8005774:	80fb      	strh	r3, [r7, #6]
 8005776:	f7fd fe6b 	bl	8003450 <HAL_GetTick>
 800577a:	61f8      	str	r0, [r7, #28]
 800577c:	88fb      	ldrh	r3, [r7, #6]
 800577e:	837b      	strh	r3, [r7, #26]
 8005780:	68fb      	ldr	r3, [r7, #12]
 8005782:	f893 3051 	ldrb.w	r3, [r3, #81]	; 0x51
 8005786:	b2db      	uxtb	r3, r3
 8005788:	2b01      	cmp	r3, #1
 800578a:	d001      	beq.n	8005790 <HAL_SPI_Transmit+0x2a>
 800578c:	2302      	movs	r3, #2
 800578e:	e12a      	b.n	80059e6 <HAL_SPI_Transmit+0x280>
 8005790:	68bb      	ldr	r3, [r7, #8]
 8005792:	2b00      	cmp	r3, #0
 8005794:	d002      	beq.n	800579c <HAL_SPI_Transmit+0x36>
 8005796:	88fb      	ldrh	r3, [r7, #6]
 8005798:	2b00      	cmp	r3, #0
 800579a:	d101      	bne.n	80057a0 <HAL_SPI_Transmit+0x3a>
 800579c:	2301      	movs	r3, #1
 800579e:	e122      	b.n	80059e6 <HAL_SPI_Transmit+0x280>
 80057a0:	68fb      	ldr	r3, [r7, #12]
 80057a2:	f893 3050 	ldrb.w	r3, [r3, #80]	; 0x50
 80057a6:	2b01      	cmp	r3, #1
 80057a8:	d101      	bne.n	80057ae <HAL_SPI_Transmit+0x48>
 80057aa:	2302      	movs	r3, #2
 80057ac:	e11b      	b.n	80059e6 <HAL_SPI_Transmit+0x280>
 80057ae:	68fb      	ldr	r3, [r7, #12]
 80057b0:	2201      	movs	r2, #1
 80057b2:	f883 2050 	strb.w	r2, [r3, #80]	; 0x50
 80057b6:	68fb      	ldr	r3, [r7, #12]
 80057b8:	2203      	movs	r2, #3
 80057ba:	f883 2051 	strb.w	r2, [r3, #81]	; 0x51
 80057be:	68fb      	ldr	r3, [r7, #12]
 80057c0:	2200      	movs	r2, #0
 80057c2:	655a      	str	r2, [r3, #84]	; 0x54
 80057c4:	68fb      	ldr	r3, [r7, #12]
 80057c6:	68ba      	ldr	r2, [r7, #8]
 80057c8:	631a      	str	r2, [r3, #48]	; 0x30
 80057ca:	68fb      	ldr	r3, [r7, #12]
 80057cc:	88fa      	ldrh	r2, [r7, #6]
 80057ce:	869a      	strh	r2, [r3, #52]	; 0x34
 80057d0:	68fb      	ldr	r3, [r7, #12]
 80057d2:	88fa      	ldrh	r2, [r7, #6]
 80057d4:	86da      	strh	r2, [r3, #54]	; 0x36
 80057d6:	68fb      	ldr	r3, [r7, #12]
 80057d8:	2200      	movs	r2, #0
 80057da:	639a      	str	r2, [r3, #56]	; 0x38
 80057dc:	68fb      	ldr	r3, [r7, #12]
 80057de:	2200      	movs	r2, #0
 80057e0:	879a      	strh	r2, [r3, #60]	; 0x3c
 80057e2:	68fb      	ldr	r3, [r7, #12]
 80057e4:	2200      	movs	r2, #0
 80057e6:	87da      	strh	r2, [r3, #62]	; 0x3e
 80057e8:	68fb      	ldr	r3, [r7, #12]
 80057ea:	2200      	movs	r2, #0
 80057ec:	645a      	str	r2, [r3, #68]	; 0x44
 80057ee:	68fb      	ldr	r3, [r7, #12]
 80057f0:	2200      	movs	r2, #0
 80057f2:	641a      	str	r2, [r3, #64]	; 0x40
 80057f4:	68fb      	ldr	r3, [r7, #12]
 80057f6:	689b      	ldr	r3, [r3, #8]
 80057f8:	f5b3 4f00 	cmp.w	r3, #32768	; 0x8000
 80057fc:	d10f      	bne.n	800581e <HAL_SPI_Transmit+0xb8>
 80057fe:	68fb      	ldr	r3, [r7, #12]
 8005800:	681b      	ldr	r3, [r3, #0]
 8005802:	681a      	ldr	r2, [r3, #0]
 8005804:	68fb      	ldr	r3, [r7, #12]
 8005806:	681b      	ldr	r3, [r3, #0]
 8005808:	f022 0240 	bic.w	r2, r2, #64	; 0x40
 800580c:	601a      	str	r2, [r3, #0]
 800580e:	68fb      	ldr	r3, [r7, #12]
 8005810:	681b      	ldr	r3, [r3, #0]
 8005812:	681a      	ldr	r2, [r3, #0]
 8005814:	68fb      	ldr	r3, [r7, #12]
 8005816:	681b      	ldr	r3, [r3, #0]
 8005818:	f442 4280 	orr.w	r2, r2, #16384	; 0x4000
 800581c:	601a      	str	r2, [r3, #0]
 800581e:	68fb      	ldr	r3, [r7, #12]
 8005820:	681b      	ldr	r3, [r3, #0]
 8005822:	681b      	ldr	r3, [r3, #0]
 8005824:	f003 0340 	and.w	r3, r3, #64	; 0x40
 8005828:	2b40      	cmp	r3, #64	; 0x40
 800582a:	d007      	beq.n	800583c <HAL_SPI_Transmit+0xd6>
 800582c:	68fb      	ldr	r3, [r7, #12]
 800582e:	681b      	ldr	r3, [r3, #0]
 8005830:	681a      	ldr	r2, [r3, #0]
 8005832:	68fb      	ldr	r3, [r7, #12]
 8005834:	681b      	ldr	r3, [r3, #0]
 8005836:	f042 0240 	orr.w	r2, r2, #64	; 0x40
 800583a:	601a      	str	r2, [r3, #0]
 800583c:	68fb      	ldr	r3, [r7, #12]
 800583e:	68db      	ldr	r3, [r3, #12]
 8005840:	f5b3 6f00 	cmp.w	r3, #2048	; 0x800
 8005844:	d152      	bne.n	80058ec <HAL_SPI_Transmit+0x186>
 8005846:	68fb      	ldr	r3, [r7, #12]
 8005848:	685b      	ldr	r3, [r3, #4]
 800584a:	2b00      	cmp	r3, #0
 800584c:	d002      	beq.n	8005854 <HAL_SPI_Transmit+0xee>
 800584e:	8b7b      	ldrh	r3, [r7, #26]
 8005850:	2b01      	cmp	r3, #1
 8005852:	d145      	bne.n	80058e0 <HAL_SPI_Transmit+0x17a>
 8005854:	68fb      	ldr	r3, [r7, #12]
 8005856:	6b1b      	ldr	r3, [r3, #48]	; 0x30
 8005858:	881a      	ldrh	r2, [r3, #0]
 800585a:	68fb      	ldr	r3, [r7, #12]
 800585c:	681b      	ldr	r3, [r3, #0]
 800585e:	60da      	str	r2, [r3, #12]
 8005860:	68fb      	ldr	r3, [r7, #12]
 8005862:	6b1b      	ldr	r3, [r3, #48]	; 0x30
 8005864:	1c9a      	adds	r2, r3, #2
 8005866:	68fb      	ldr	r3, [r7, #12]
 8005868:	631a      	str	r2, [r3, #48]	; 0x30
 800586a:	68fb      	ldr	r3, [r7, #12]
 800586c:	8edb      	ldrh	r3, [r3, #54]	; 0x36
 800586e:	b29b      	uxth	r3, r3
 8005870:	3b01      	subs	r3, #1
 8005872:	b29a      	uxth	r2, r3
 8005874:	68fb      	ldr	r3, [r7, #12]
 8005876:	86da      	strh	r2, [r3, #54]	; 0x36
 8005878:	e032      	b.n	80058e0 <HAL_SPI_Transmit+0x17a>
 800587a:	68fb      	ldr	r3, [r7, #12]
 800587c:	681b      	ldr	r3, [r3, #0]
 800587e:	689b      	ldr	r3, [r3, #8]
 8005880:	f003 0302 	and.w	r3, r3, #2
 8005884:	2b02      	cmp	r3, #2
 8005886:	d112      	bne.n	80058ae <HAL_SPI_Transmit+0x148>
 8005888:	68fb      	ldr	r3, [r7, #12]
 800588a:	6b1b      	ldr	r3, [r3, #48]	; 0x30
 800588c:	881a      	ldrh	r2, [r3, #0]
 800588e:	68fb      	ldr	r3, [r7, #12]
 8005890:	681b      	ldr	r3, [r3, #0]
 8005892:	60da      	str	r2, [r3, #12]
 8005894:	68fb      	ldr	r3, [r7, #12]
 8005896:	6b1b      	ldr	r3, [r3, #48]	; 0x30
 8005898:	1c9a      	adds	r2, r3, #2
 800589a:	68fb      	ldr	r3, [r7, #12]
 800589c:	631a      	str	r2, [r3, #48]	; 0x30
 800589e:	68fb      	ldr	r3, [r7, #12]
 80058a0:	8edb      	ldrh	r3, [r3, #54]	; 0x36
 80058a2:	b29b      	uxth	r3, r3
 80058a4:	3b01      	subs	r3, #1
 80058a6:	b29a      	uxth	r2, r3
 80058a8:	68fb      	ldr	r3, [r7, #12]
 80058aa:	86da      	strh	r2, [r3, #54]	; 0x36
 80058ac:	e018      	b.n	80058e0 <HAL_SPI_Transmit+0x17a>
 80058ae:	f7fd fdcf 	bl	8003450 <HAL_GetTick>
 80058b2:	4602      	mov	r2, r0
 80058b4:	69fb      	ldr	r3, [r7, #28]
 80058b6:	1ad3      	subs	r3, r2, r3
 80058b8:	683a      	ldr	r2, [r7, #0]
 80058ba:	429a      	cmp	r2, r3
 80058bc:	d803      	bhi.n	80058c6 <HAL_SPI_Transmit+0x160>
 80058be:	683b      	ldr	r3, [r7, #0]
 80058c0:	f1b3 3fff 	cmp.w	r3, #4294967295
 80058c4:	d102      	bne.n	80058cc <HAL_SPI_Transmit+0x166>
 80058c6:	683b      	ldr	r3, [r7, #0]
 80058c8:	2b00      	cmp	r3, #0
 80058ca:	d109      	bne.n	80058e0 <HAL_SPI_Transmit+0x17a>
 80058cc:	68fb      	ldr	r3, [r7, #12]
 80058ce:	2201      	movs	r2, #1
 80058d0:	f883 2051 	strb.w	r2, [r3, #81]	; 0x51
 80058d4:	68fb      	ldr	r3, [r7, #12]
 80058d6:	2200      	movs	r2, #0
 80058d8:	f883 2050 	strb.w	r2, [r3, #80]	; 0x50
 80058dc:	2303      	movs	r3, #3
 80058de:	e082      	b.n	80059e6 <HAL_SPI_Transmit+0x280>
 80058e0:	68fb      	ldr	r3, [r7, #12]
 80058e2:	8edb      	ldrh	r3, [r3, #54]	; 0x36
 80058e4:	b29b      	uxth	r3, r3
 80058e6:	2b00      	cmp	r3, #0
 80058e8:	d1c7      	bne.n	800587a <HAL_SPI_Transmit+0x114>
 80058ea:	e053      	b.n	8005994 <HAL_SPI_Transmit+0x22e>
 80058ec:	68fb      	ldr	r3, [r7, #12]
 80058ee:	685b      	ldr	r3, [r3, #4]
 80058f0:	2b00      	cmp	r3, #0
 80058f2:	d002      	beq.n	80058fa <HAL_SPI_Transmit+0x194>
 80058f4:	8b7b      	ldrh	r3, [r7, #26]
 80058f6:	2b01      	cmp	r3, #1
 80058f8:	d147      	bne.n	800598a <HAL_SPI_Transmit+0x224>
 80058fa:	68fb      	ldr	r3, [r7, #12]
 80058fc:	6b1a      	ldr	r2, [r3, #48]	; 0x30
 80058fe:	68fb      	ldr	r3, [r7, #12]
 8005900:	681b      	ldr	r3, [r3, #0]
 8005902:	330c      	adds	r3, #12
 8005904:	7812      	ldrb	r2, [r2, #0]
 8005906:	701a      	strb	r2, [r3, #0]
 8005908:	68fb      	ldr	r3, [r7, #12]
 800590a:	6b1b      	ldr	r3, [r3, #48]	; 0x30
 800590c:	1c5a      	adds	r2, r3, #1
 800590e:	68fb      	ldr	r3, [r7, #12]
 8005910:	631a      	str	r2, [r3, #48]	; 0x30
 8005912:	68fb      	ldr	r3, [r7, #12]
 8005914:	8edb      	ldrh	r3, [r3, #54]	; 0x36
 8005916:	b29b      	uxth	r3, r3
 8005918:	3b01      	subs	r3, #1
 800591a:	b29a      	uxth	r2, r3
 800591c:	68fb      	ldr	r3, [r7, #12]
 800591e:	86da      	strh	r2, [r3, #54]	; 0x36
 8005920:	e033      	b.n	800598a <HAL_SPI_Transmit+0x224>
 8005922:	68fb      	ldr	r3, [r7, #12]
 8005924:	681b      	ldr	r3, [r3, #0]
 8005926:	689b      	ldr	r3, [r3, #8]
 8005928:	f003 0302 	and.w	r3, r3, #2
 800592c:	2b02      	cmp	r3, #2
 800592e:	d113      	bne.n	8005958 <HAL_SPI_Transmit+0x1f2>
 8005930:	68fb      	ldr	r3, [r7, #12]
 8005932:	6b1a      	ldr	r2, [r3, #48]	; 0x30
 8005934:	68fb      	ldr	r3, [r7, #12]
 8005936:	681b      	ldr	r3, [r3, #0]
 8005938:	330c      	adds	r3, #12
 800593a:	7812      	ldrb	r2, [r2, #0]
 800593c:	701a      	strb	r2, [r3, #0]
 800593e:	68fb      	ldr	r3, [r7, #12]
 8005940:	6b1b      	ldr	r3, [r3, #48]	; 0x30
 8005942:	1c5a      	adds	r2, r3, #1
 8005944:	68fb      	ldr	r3, [r7, #12]
 8005946:	631a      	str	r2, [r3, #48]	; 0x30
 8005948:	68fb      	ldr	r3, [r7, #12]
 800594a:	8edb      	ldrh	r3, [r3, #54]	; 0x36
 800594c:	b29b      	uxth	r3, r3
 800594e:	3b01      	subs	r3, #1
 8005950:	b29a      	uxth	r2, r3
 8005952:	68fb      	ldr	r3, [r7, #12]
 8005954:	86da      	strh	r2, [r3, #54]	; 0x36
 8005956:	e018      	b.n	800598a <HAL_SPI_Transmit+0x224>
 8005958:	f7fd fd7a 	bl	8003450 <HAL_GetTick>
 800595c:	4602      	mov	r2, r0
 800595e:	69fb      	ldr	r3, [r7, #28]
 8005960:	1ad3      	subs	r3, r2, r3
 8005962:	683a      	ldr	r2, [r7, #0]
 8005964:	429a      	cmp	r2, r3
 8005966:	d803      	bhi.n	8005970 <HAL_SPI_Transmit+0x20a>
 8005968:	683b      	ldr	r3, [r7, #0]
 800596a:	f1b3 3fff 	cmp.w	r3, #4294967295
 800596e:	d102      	bne.n	8005976 <HAL_SPI_Transmit+0x210>
 8005970:	683b      	ldr	r3, [r7, #0]
 8005972:	2b00      	cmp	r3, #0
 8005974:	d109      	bne.n	800598a <HAL_SPI_Transmit+0x224>
 8005976:	68fb      	ldr	r3, [r7, #12]
 8005978:	2201      	movs	r2, #1
 800597a:	f883 2051 	strb.w	r2, [r3, #81]	; 0x51
 800597e:	68fb      	ldr	r3, [r7, #12]
 8005980:	2200      	movs	r2, #0
 8005982:	f883 2050 	strb.w	r2, [r3, #80]	; 0x50
 8005986:	2303      	movs	r3, #3
 8005988:	e02d      	b.n	80059e6 <HAL_SPI_Transmit+0x280>
 800598a:	68fb      	ldr	r3, [r7, #12]
 800598c:	8edb      	ldrh	r3, [r3, #54]	; 0x36
 800598e:	b29b      	uxth	r3, r3
 8005990:	2b00      	cmp	r3, #0
 8005992:	d1c6      	bne.n	8005922 <HAL_SPI_Transmit+0x1bc>
 8005994:	69fa      	ldr	r2, [r7, #28]
 8005996:	6839      	ldr	r1, [r7, #0]
 8005998:	68f8      	ldr	r0, [r7, #12]
 800599a:	f000 f8b1 	bl	8005b00 <SPI_EndRxTxTransaction>
 800599e:	4603      	mov	r3, r0
 80059a0:	2b00      	cmp	r3, #0
 80059a2:	d002      	beq.n	80059aa <HAL_SPI_Transmit+0x244>
 80059a4:	68fb      	ldr	r3, [r7, #12]
 80059a6:	2220      	movs	r2, #32
 80059a8:	655a      	str	r2, [r3, #84]	; 0x54
 80059aa:	68fb      	ldr	r3, [r7, #12]
 80059ac:	689b      	ldr	r3, [r3, #8]
 80059ae:	2b00      	cmp	r3, #0
 80059b0:	d10a      	bne.n	80059c8 <HAL_SPI_Transmit+0x262>
 80059b2:	2300      	movs	r3, #0
 80059b4:	617b      	str	r3, [r7, #20]
 80059b6:	68fb      	ldr	r3, [r7, #12]
 80059b8:	681b      	ldr	r3, [r3, #0]
 80059ba:	68db      	ldr	r3, [r3, #12]
 80059bc:	617b      	str	r3, [r7, #20]
 80059be:	68fb      	ldr	r3, [r7, #12]
 80059c0:	681b      	ldr	r3, [r3, #0]
 80059c2:	689b      	ldr	r3, [r3, #8]
 80059c4:	617b      	str	r3, [r7, #20]
 80059c6:	697b      	ldr	r3, [r7, #20]
 80059c8:	68fb      	ldr	r3, [r7, #12]
 80059ca:	2201      	movs	r2, #1
 80059cc:	f883 2051 	strb.w	r2, [r3, #81]	; 0x51
 80059d0:	68fb      	ldr	r3, [r7, #12]
 80059d2:	2200      	movs	r2, #0
 80059d4:	f883 2050 	strb.w	r2, [r3, #80]	; 0x50
 80059d8:	68fb      	ldr	r3, [r7, #12]
 80059da:	6d5b      	ldr	r3, [r3, #84]	; 0x54
 80059dc:	2b00      	cmp	r3, #0
 80059de:	d001      	beq.n	80059e4 <HAL_SPI_Transmit+0x27e>
 80059e0:	2301      	movs	r3, #1
 80059e2:	e000      	b.n	80059e6 <HAL_SPI_Transmit+0x280>
 80059e4:	2300      	movs	r3, #0
 80059e6:	4618      	mov	r0, r3
 80059e8:	3720      	adds	r7, #32
 80059ea:	46bd      	mov	sp, r7
 80059ec:	bd80      	pop	{r7, pc}
	...

080059f0 <SPI_WaitFlagStateUntilTimeout>:
 80059f0:	b580      	push	{r7, lr}
 80059f2:	b088      	sub	sp, #32
 80059f4:	af00      	add	r7, sp, #0
 80059f6:	60f8      	str	r0, [r7, #12]
 80059f8:	60b9      	str	r1, [r7, #8]
 80059fa:	603b      	str	r3, [r7, #0]
 80059fc:	4613      	mov	r3, r2
 80059fe:	71fb      	strb	r3, [r7, #7]
 8005a00:	f7fd fd26 	bl	8003450 <HAL_GetTick>
 8005a04:	4602      	mov	r2, r0
 8005a06:	6abb      	ldr	r3, [r7, #40]	; 0x28
 8005a08:	1a9b      	subs	r3, r3, r2
 8005a0a:	683a      	ldr	r2, [r7, #0]
 8005a0c:	4413      	add	r3, r2
 8005a0e:	61fb      	str	r3, [r7, #28]
 8005a10:	f7fd fd1e 	bl	8003450 <HAL_GetTick>
 8005a14:	61b8      	str	r0, [r7, #24]
 8005a16:	4b39      	ldr	r3, [pc, #228]	; (8005afc <SPI_WaitFlagStateUntilTimeout+0x10c>)
 8005a18:	681b      	ldr	r3, [r3, #0]
 8005a1a:	015b      	lsls	r3, r3, #5
 8005a1c:	0d1b      	lsrs	r3, r3, #20
 8005a1e:	69fa      	ldr	r2, [r7, #28]
 8005a20:	fb02 f303 	mul.w	r3, r2, r3
 8005a24:	617b      	str	r3, [r7, #20]
 8005a26:	e054      	b.n	8005ad2 <SPI_WaitFlagStateUntilTimeout+0xe2>
 8005a28:	683b      	ldr	r3, [r7, #0]
 8005a2a:	f1b3 3fff 	cmp.w	r3, #4294967295
 8005a2e:	d050      	beq.n	8005ad2 <SPI_WaitFlagStateUntilTimeout+0xe2>
 8005a30:	f7fd fd0e 	bl	8003450 <HAL_GetTick>
 8005a34:	4602      	mov	r2, r0
 8005a36:	69bb      	ldr	r3, [r7, #24]
 8005a38:	1ad3      	subs	r3, r2, r3
 8005a3a:	69fa      	ldr	r2, [r7, #28]
 8005a3c:	429a      	cmp	r2, r3
 8005a3e:	d902      	bls.n	8005a46 <SPI_WaitFlagStateUntilTimeout+0x56>
 8005a40:	69fb      	ldr	r3, [r7, #28]
 8005a42:	2b00      	cmp	r3, #0
 8005a44:	d13d      	bne.n	8005ac2 <SPI_WaitFlagStateUntilTimeout+0xd2>
 8005a46:	68fb      	ldr	r3, [r7, #12]
 8005a48:	681b      	ldr	r3, [r3, #0]
 8005a4a:	685a      	ldr	r2, [r3, #4]
 8005a4c:	68fb      	ldr	r3, [r7, #12]
 8005a4e:	681b      	ldr	r3, [r3, #0]
 8005a50:	f022 02e0 	bic.w	r2, r2, #224	; 0xe0
 8005a54:	605a      	str	r2, [r3, #4]
 8005a56:	68fb      	ldr	r3, [r7, #12]
 8005a58:	685b      	ldr	r3, [r3, #4]
 8005a5a:	f5b3 7f82 	cmp.w	r3, #260	; 0x104
 8005a5e:	d111      	bne.n	8005a84 <SPI_WaitFlagStateUntilTimeout+0x94>
 8005a60:	68fb      	ldr	r3, [r7, #12]
 8005a62:	689b      	ldr	r3, [r3, #8]
 8005a64:	f5b3 4f00 	cmp.w	r3, #32768	; 0x8000
 8005a68:	d004      	beq.n	8005a74 <SPI_WaitFlagStateUntilTimeout+0x84>
 8005a6a:	68fb      	ldr	r3, [r7, #12]
 8005a6c:	689b      	ldr	r3, [r3, #8]
 8005a6e:	f5b3 6f80 	cmp.w	r3, #1024	; 0x400
 8005a72:	d107      	bne.n	8005a84 <SPI_WaitFlagStateUntilTimeout+0x94>
 8005a74:	68fb      	ldr	r3, [r7, #12]
 8005a76:	681b      	ldr	r3, [r3, #0]
 8005a78:	681a      	ldr	r2, [r3, #0]
 8005a7a:	68fb      	ldr	r3, [r7, #12]
 8005a7c:	681b      	ldr	r3, [r3, #0]
 8005a7e:	f022 0240 	bic.w	r2, r2, #64	; 0x40
 8005a82:	601a      	str	r2, [r3, #0]
 8005a84:	68fb      	ldr	r3, [r7, #12]
 8005a86:	6a9b      	ldr	r3, [r3, #40]	; 0x28
 8005a88:	f5b3 5f00 	cmp.w	r3, #8192	; 0x2000
 8005a8c:	d10f      	bne.n	8005aae <SPI_WaitFlagStateUntilTimeout+0xbe>
 8005a8e:	68fb      	ldr	r3, [r7, #12]
 8005a90:	681b      	ldr	r3, [r3, #0]
 8005a92:	681a      	ldr	r2, [r3, #0]
 8005a94:	68fb      	ldr	r3, [r7, #12]
 8005a96:	681b      	ldr	r3, [r3, #0]
 8005a98:	f422 5200 	bic.w	r2, r2, #8192	; 0x2000
 8005a9c:	601a      	str	r2, [r3, #0]
 8005a9e:	68fb      	ldr	r3, [r7, #12]
 8005aa0:	681b      	ldr	r3, [r3, #0]
 8005aa2:	681a      	ldr	r2, [r3, #0]
 8005aa4:	68fb      	ldr	r3, [r7, #12]
 8005aa6:	681b      	ldr	r3, [r3, #0]
 8005aa8:	f442 5200 	orr.w	r2, r2, #8192	; 0x2000
 8005aac:	601a      	str	r2, [r3, #0]
 8005aae:	68fb      	ldr	r3, [r7, #12]
 8005ab0:	2201      	movs	r2, #1
 8005ab2:	f883 2051 	strb.w	r2, [r3, #81]	; 0x51
 8005ab6:	68fb      	ldr	r3, [r7, #12]
 8005ab8:	2200      	movs	r2, #0
 8005aba:	f883 2050 	strb.w	r2, [r3, #80]	; 0x50
 8005abe:	2303      	movs	r3, #3
 8005ac0:	e017      	b.n	8005af2 <SPI_WaitFlagStateUntilTimeout+0x102>
 8005ac2:	697b      	ldr	r3, [r7, #20]
 8005ac4:	2b00      	cmp	r3, #0
 8005ac6:	d101      	bne.n	8005acc <SPI_WaitFlagStateUntilTimeout+0xdc>
 8005ac8:	2300      	movs	r3, #0
 8005aca:	61fb      	str	r3, [r7, #28]
 8005acc:	697b      	ldr	r3, [r7, #20]
 8005ace:	3b01      	subs	r3, #1
 8005ad0:	617b      	str	r3, [r7, #20]
 8005ad2:	68fb      	ldr	r3, [r7, #12]
 8005ad4:	681b      	ldr	r3, [r3, #0]
 8005ad6:	689a      	ldr	r2, [r3, #8]
 8005ad8:	68bb      	ldr	r3, [r7, #8]
 8005ada:	4013      	ands	r3, r2
 8005adc:	68ba      	ldr	r2, [r7, #8]
 8005ade:	429a      	cmp	r2, r3
 8005ae0:	bf0c      	ite	eq
 8005ae2:	2301      	moveq	r3, #1
 8005ae4:	2300      	movne	r3, #0
 8005ae6:	b2db      	uxtb	r3, r3
 8005ae8:	461a      	mov	r2, r3
 8005aea:	79fb      	ldrb	r3, [r7, #7]
 8005aec:	429a      	cmp	r2, r3
 8005aee:	d19b      	bne.n	8005a28 <SPI_WaitFlagStateUntilTimeout+0x38>
 8005af0:	2300      	movs	r3, #0
 8005af2:	4618      	mov	r0, r3
 8005af4:	3720      	adds	r7, #32
 8005af6:	46bd      	mov	sp, r7
 8005af8:	bd80      	pop	{r7, pc}
 8005afa:	bf00      	nop
 8005afc:	20000208 	.word	0x20000208

08005b00 <SPI_EndRxTxTransaction>:
 8005b00:	b580      	push	{r7, lr}
 8005b02:	b088      	sub	sp, #32
 8005b04:	af02      	add	r7, sp, #8
 8005b06:	60f8      	str	r0, [r7, #12]
 8005b08:	60b9      	str	r1, [r7, #8]
 8005b0a:	607a      	str	r2, [r7, #4]
 8005b0c:	687b      	ldr	r3, [r7, #4]
 8005b0e:	9300      	str	r3, [sp, #0]
 8005b10:	68bb      	ldr	r3, [r7, #8]
 8005b12:	2201      	movs	r2, #1
 8005b14:	2102      	movs	r1, #2
 8005b16:	68f8      	ldr	r0, [r7, #12]
 8005b18:	f7ff ff6a 	bl	80059f0 <SPI_WaitFlagStateUntilTimeout>
 8005b1c:	4603      	mov	r3, r0
 8005b1e:	2b00      	cmp	r3, #0
 8005b20:	d007      	beq.n	8005b32 <SPI_EndRxTxTransaction+0x32>
 8005b22:	68fb      	ldr	r3, [r7, #12]
 8005b24:	6d5b      	ldr	r3, [r3, #84]	; 0x54
 8005b26:	f043 0220 	orr.w	r2, r3, #32
 8005b2a:	68fb      	ldr	r3, [r7, #12]
 8005b2c:	655a      	str	r2, [r3, #84]	; 0x54
 8005b2e:	2303      	movs	r3, #3
 8005b30:	e032      	b.n	8005b98 <SPI_EndRxTxTransaction+0x98>
 8005b32:	4b1b      	ldr	r3, [pc, #108]	; (8005ba0 <SPI_EndRxTxTransaction+0xa0>)
 8005b34:	681b      	ldr	r3, [r3, #0]
 8005b36:	4a1b      	ldr	r2, [pc, #108]	; (8005ba4 <SPI_EndRxTxTransaction+0xa4>)
 8005b38:	fba2 2303 	umull	r2, r3, r2, r3
 8005b3c:	0d5b      	lsrs	r3, r3, #21
 8005b3e:	f44f 727a 	mov.w	r2, #1000	; 0x3e8
 8005b42:	fb02 f303 	mul.w	r3, r2, r3
 8005b46:	617b      	str	r3, [r7, #20]
 8005b48:	68fb      	ldr	r3, [r7, #12]
 8005b4a:	685b      	ldr	r3, [r3, #4]
 8005b4c:	f5b3 7f82 	cmp.w	r3, #260	; 0x104
 8005b50:	d112      	bne.n	8005b78 <SPI_EndRxTxTransaction+0x78>
 8005b52:	687b      	ldr	r3, [r7, #4]
 8005b54:	9300      	str	r3, [sp, #0]
 8005b56:	68bb      	ldr	r3, [r7, #8]
 8005b58:	2200      	movs	r2, #0
 8005b5a:	2180      	movs	r1, #128	; 0x80
 8005b5c:	68f8      	ldr	r0, [r7, #12]
 8005b5e:	f7ff ff47 	bl	80059f0 <SPI_WaitFlagStateUntilTimeout>
 8005b62:	4603      	mov	r3, r0
 8005b64:	2b00      	cmp	r3, #0
 8005b66:	d016      	beq.n	8005b96 <SPI_EndRxTxTransaction+0x96>
 8005b68:	68fb      	ldr	r3, [r7, #12]
 8005b6a:	6d5b      	ldr	r3, [r3, #84]	; 0x54
 8005b6c:	f043 0220 	orr.w	r2, r3, #32
 8005b70:	68fb      	ldr	r3, [r7, #12]
 8005b72:	655a      	str	r2, [r3, #84]	; 0x54
 8005b74:	2303      	movs	r3, #3
 8005b76:	e00f      	b.n	8005b98 <SPI_EndRxTxTransaction+0x98>
 8005b78:	697b      	ldr	r3, [r7, #20]
 8005b7a:	2b00      	cmp	r3, #0
 8005b7c:	d00a      	beq.n	8005b94 <SPI_EndRxTxTransaction+0x94>
 8005b7e:	697b      	ldr	r3, [r7, #20]
 8005b80:	3b01      	subs	r3, #1
 8005b82:	617b      	str	r3, [r7, #20]
 8005b84:	68fb      	ldr	r3, [r7, #12]
 8005b86:	681b      	ldr	r3, [r3, #0]
 8005b88:	689b      	ldr	r3, [r3, #8]
 8005b8a:	f003 0380 	and.w	r3, r3, #128	; 0x80
 8005b8e:	2b80      	cmp	r3, #128	; 0x80
 8005b90:	d0f2      	beq.n	8005b78 <SPI_EndRxTxTransaction+0x78>
 8005b92:	e000      	b.n	8005b96 <SPI_EndRxTxTransaction+0x96>
 8005b94:	bf00      	nop
 8005b96:	2300      	movs	r3, #0
 8005b98:	4618      	mov	r0, r3
 8005b9a:	3718      	adds	r7, #24
 8005b9c:	46bd      	mov	sp, r7
 8005b9e:	bd80      	pop	{r7, pc}
 8005ba0:	20000208 	.word	0x20000208
 8005ba4:	165e9f81 	.word	0x165e9f81

08005ba8 <HAL_SRAM_Init>:
 8005ba8:	b580      	push	{r7, lr}
 8005baa:	b084      	sub	sp, #16
 8005bac:	af00      	add	r7, sp, #0
 8005bae:	60f8      	str	r0, [r7, #12]
 8005bb0:	60b9      	str	r1, [r7, #8]
 8005bb2:	607a      	str	r2, [r7, #4]
 8005bb4:	68fb      	ldr	r3, [r7, #12]
 8005bb6:	2b00      	cmp	r3, #0
 8005bb8:	d101      	bne.n	8005bbe <HAL_SRAM_Init+0x16>
 8005bba:	2301      	movs	r3, #1
 8005bbc:	e038      	b.n	8005c30 <HAL_SRAM_Init+0x88>
 8005bbe:	68fb      	ldr	r3, [r7, #12]
 8005bc0:	f893 3049 	ldrb.w	r3, [r3, #73]	; 0x49
 8005bc4:	b2db      	uxtb	r3, r3
 8005bc6:	2b00      	cmp	r3, #0
 8005bc8:	d106      	bne.n	8005bd8 <HAL_SRAM_Init+0x30>
 8005bca:	68fb      	ldr	r3, [r7, #12]
 8005bcc:	2200      	movs	r2, #0
 8005bce:	f883 2048 	strb.w	r2, [r3, #72]	; 0x48
 8005bd2:	68f8      	ldr	r0, [r7, #12]
 8005bd4:	f7fb fcca 	bl	800156c <HAL_SRAM_MspInit>
 8005bd8:	68fb      	ldr	r3, [r7, #12]
 8005bda:	681a      	ldr	r2, [r3, #0]
 8005bdc:	68fb      	ldr	r3, [r7, #12]
 8005bde:	3308      	adds	r3, #8
 8005be0:	4619      	mov	r1, r3
 8005be2:	4610      	mov	r0, r2
 8005be4:	f002 f8e4 	bl	8007db0 <FSMC_NORSRAM_Init>
 8005be8:	68fb      	ldr	r3, [r7, #12]
 8005bea:	6818      	ldr	r0, [r3, #0]
 8005bec:	68fb      	ldr	r3, [r7, #12]
 8005bee:	689b      	ldr	r3, [r3, #8]
 8005bf0:	461a      	mov	r2, r3
 8005bf2:	68b9      	ldr	r1, [r7, #8]
 8005bf4:	f002 f946 	bl	8007e84 <FSMC_NORSRAM_Timing_Init>
 8005bf8:	68fb      	ldr	r3, [r7, #12]
 8005bfa:	6858      	ldr	r0, [r3, #4]
 8005bfc:	68fb      	ldr	r3, [r7, #12]
 8005bfe:	689a      	ldr	r2, [r3, #8]
 8005c00:	68fb      	ldr	r3, [r7, #12]
 8005c02:	6b1b      	ldr	r3, [r3, #48]	; 0x30
 8005c04:	6879      	ldr	r1, [r7, #4]
 8005c06:	f002 f973 	bl	8007ef0 <FSMC_NORSRAM_Extended_Timing_Init>
 8005c0a:	68fb      	ldr	r3, [r7, #12]
 8005c0c:	681b      	ldr	r3, [r3, #0]
 8005c0e:	68fa      	ldr	r2, [r7, #12]
 8005c10:	6892      	ldr	r2, [r2, #8]
 8005c12:	f853 1022 	ldr.w	r1, [r3, r2, lsl #2]
 8005c16:	68fb      	ldr	r3, [r7, #12]
 8005c18:	681b      	ldr	r3, [r3, #0]
 8005c1a:	68fa      	ldr	r2, [r7, #12]
 8005c1c:	6892      	ldr	r2, [r2, #8]
 8005c1e:	f041 0101 	orr.w	r1, r1, #1
 8005c22:	f843 1022 	str.w	r1, [r3, r2, lsl #2]
 8005c26:	68fb      	ldr	r3, [r7, #12]
 8005c28:	2201      	movs	r2, #1
 8005c2a:	f883 2049 	strb.w	r2, [r3, #73]	; 0x49
 8005c2e:	2300      	movs	r3, #0
 8005c30:	4618      	mov	r0, r3
 8005c32:	3710      	adds	r7, #16
 8005c34:	46bd      	mov	sp, r7
 8005c36:	bd80      	pop	{r7, pc}

08005c38 <HAL_TIM_Base_Init>:
 8005c38:	b580      	push	{r7, lr}
 8005c3a:	b082      	sub	sp, #8
 8005c3c:	af00      	add	r7, sp, #0
 8005c3e:	6078      	str	r0, [r7, #4]
 8005c40:	687b      	ldr	r3, [r7, #4]
 8005c42:	2b00      	cmp	r3, #0
 8005c44:	d101      	bne.n	8005c4a <HAL_TIM_Base_Init+0x12>
 8005c46:	2301      	movs	r3, #1
 8005c48:	e041      	b.n	8005cce <HAL_TIM_Base_Init+0x96>
 8005c4a:	687b      	ldr	r3, [r7, #4]
 8005c4c:	f893 303d 	ldrb.w	r3, [r3, #61]	; 0x3d
 8005c50:	b2db      	uxtb	r3, r3
 8005c52:	2b00      	cmp	r3, #0
 8005c54:	d106      	bne.n	8005c64 <HAL_TIM_Base_Init+0x2c>
 8005c56:	687b      	ldr	r3, [r7, #4]
 8005c58:	2200      	movs	r2, #0
 8005c5a:	f883 203c 	strb.w	r2, [r3, #60]	; 0x3c
 8005c5e:	6878      	ldr	r0, [r7, #4]
 8005c60:	f7fd f9ee 	bl	8003040 <HAL_TIM_Base_MspInit>
 8005c64:	687b      	ldr	r3, [r7, #4]
 8005c66:	2202      	movs	r2, #2
 8005c68:	f883 203d 	strb.w	r2, [r3, #61]	; 0x3d
 8005c6c:	687b      	ldr	r3, [r7, #4]
 8005c6e:	681a      	ldr	r2, [r3, #0]
 8005c70:	687b      	ldr	r3, [r7, #4]
 8005c72:	3304      	adds	r3, #4
 8005c74:	4619      	mov	r1, r3
 8005c76:	4610      	mov	r0, r2
 8005c78:	f000 fc62 	bl	8006540 <TIM_Base_SetConfig>
 8005c7c:	687b      	ldr	r3, [r7, #4]
 8005c7e:	2201      	movs	r2, #1
 8005c80:	f883 2046 	strb.w	r2, [r3, #70]	; 0x46
 8005c84:	687b      	ldr	r3, [r7, #4]
 8005c86:	2201      	movs	r2, #1
 8005c88:	f883 203e 	strb.w	r2, [r3, #62]	; 0x3e
 8005c8c:	687b      	ldr	r3, [r7, #4]
 8005c8e:	2201      	movs	r2, #1
 8005c90:	f883 203f 	strb.w	r2, [r3, #63]	; 0x3f
 8005c94:	687b      	ldr	r3, [r7, #4]
 8005c96:	2201      	movs	r2, #1
 8005c98:	f883 2040 	strb.w	r2, [r3, #64]	; 0x40
 8005c9c:	687b      	ldr	r3, [r7, #4]
 8005c9e:	2201      	movs	r2, #1
 8005ca0:	f883 2041 	strb.w	r2, [r3, #65]	; 0x41
 8005ca4:	687b      	ldr	r3, [r7, #4]
 8005ca6:	2201      	movs	r2, #1
 8005ca8:	f883 2042 	strb.w	r2, [r3, #66]	; 0x42
 8005cac:	687b      	ldr	r3, [r7, #4]
 8005cae:	2201      	movs	r2, #1
 8005cb0:	f883 2043 	strb.w	r2, [r3, #67]	; 0x43
 8005cb4:	687b      	ldr	r3, [r7, #4]
 8005cb6:	2201      	movs	r2, #1
 8005cb8:	f883 2044 	strb.w	r2, [r3, #68]	; 0x44
 8005cbc:	687b      	ldr	r3, [r7, #4]
 8005cbe:	2201      	movs	r2, #1
 8005cc0:	f883 2045 	strb.w	r2, [r3, #69]	; 0x45
 8005cc4:	687b      	ldr	r3, [r7, #4]
 8005cc6:	2201      	movs	r2, #1
 8005cc8:	f883 203d 	strb.w	r2, [r3, #61]	; 0x3d
 8005ccc:	2300      	movs	r3, #0
 8005cce:	4618      	mov	r0, r3
 8005cd0:	3708      	adds	r7, #8
 8005cd2:	46bd      	mov	sp, r7
 8005cd4:	bd80      	pop	{r7, pc}
	...

08005cd8 <HAL_TIM_Base_Start_IT>:
 8005cd8:	b480      	push	{r7}
 8005cda:	b085      	sub	sp, #20
 8005cdc:	af00      	add	r7, sp, #0
 8005cde:	6078      	str	r0, [r7, #4]
 8005ce0:	687b      	ldr	r3, [r7, #4]
 8005ce2:	f893 303d 	ldrb.w	r3, [r3, #61]	; 0x3d
 8005ce6:	b2db      	uxtb	r3, r3
 8005ce8:	2b01      	cmp	r3, #1
 8005cea:	d001      	beq.n	8005cf0 <HAL_TIM_Base_Start_IT+0x18>
 8005cec:	2301      	movs	r3, #1
 8005cee:	e04e      	b.n	8005d8e <HAL_TIM_Base_Start_IT+0xb6>
 8005cf0:	687b      	ldr	r3, [r7, #4]
 8005cf2:	2202      	movs	r2, #2
 8005cf4:	f883 203d 	strb.w	r2, [r3, #61]	; 0x3d
 8005cf8:	687b      	ldr	r3, [r7, #4]
 8005cfa:	681b      	ldr	r3, [r3, #0]
 8005cfc:	68da      	ldr	r2, [r3, #12]
 8005cfe:	687b      	ldr	r3, [r7, #4]
 8005d00:	681b      	ldr	r3, [r3, #0]
 8005d02:	f042 0201 	orr.w	r2, r2, #1
 8005d06:	60da      	str	r2, [r3, #12]
 8005d08:	687b      	ldr	r3, [r7, #4]
 8005d0a:	681b      	ldr	r3, [r3, #0]
 8005d0c:	4a23      	ldr	r2, [pc, #140]	; (8005d9c <HAL_TIM_Base_Start_IT+0xc4>)
 8005d0e:	4293      	cmp	r3, r2
 8005d10:	d022      	beq.n	8005d58 <HAL_TIM_Base_Start_IT+0x80>
 8005d12:	687b      	ldr	r3, [r7, #4]
 8005d14:	681b      	ldr	r3, [r3, #0]
 8005d16:	f1b3 4f80 	cmp.w	r3, #1073741824	; 0x40000000
 8005d1a:	d01d      	beq.n	8005d58 <HAL_TIM_Base_Start_IT+0x80>
 8005d1c:	687b      	ldr	r3, [r7, #4]
 8005d1e:	681b      	ldr	r3, [r3, #0]
 8005d20:	4a1f      	ldr	r2, [pc, #124]	; (8005da0 <HAL_TIM_Base_Start_IT+0xc8>)
 8005d22:	4293      	cmp	r3, r2
 8005d24:	d018      	beq.n	8005d58 <HAL_TIM_Base_Start_IT+0x80>
 8005d26:	687b      	ldr	r3, [r7, #4]
 8005d28:	681b      	ldr	r3, [r3, #0]
 8005d2a:	4a1e      	ldr	r2, [pc, #120]	; (8005da4 <HAL_TIM_Base_Start_IT+0xcc>)
 8005d2c:	4293      	cmp	r3, r2
 8005d2e:	d013      	beq.n	8005d58 <HAL_TIM_Base_Start_IT+0x80>
 8005d30:	687b      	ldr	r3, [r7, #4]
 8005d32:	681b      	ldr	r3, [r3, #0]
 8005d34:	4a1c      	ldr	r2, [pc, #112]	; (8005da8 <HAL_TIM_Base_Start_IT+0xd0>)
 8005d36:	4293      	cmp	r3, r2
 8005d38:	d00e      	beq.n	8005d58 <HAL_TIM_Base_Start_IT+0x80>
 8005d3a:	687b      	ldr	r3, [r7, #4]
 8005d3c:	681b      	ldr	r3, [r3, #0]
 8005d3e:	4a1b      	ldr	r2, [pc, #108]	; (8005dac <HAL_TIM_Base_Start_IT+0xd4>)
 8005d40:	4293      	cmp	r3, r2
 8005d42:	d009      	beq.n	8005d58 <HAL_TIM_Base_Start_IT+0x80>
 8005d44:	687b      	ldr	r3, [r7, #4]
 8005d46:	681b      	ldr	r3, [r3, #0]
 8005d48:	4a19      	ldr	r2, [pc, #100]	; (8005db0 <HAL_TIM_Base_Start_IT+0xd8>)
 8005d4a:	4293      	cmp	r3, r2
 8005d4c:	d004      	beq.n	8005d58 <HAL_TIM_Base_Start_IT+0x80>
 8005d4e:	687b      	ldr	r3, [r7, #4]
 8005d50:	681b      	ldr	r3, [r3, #0]
 8005d52:	4a18      	ldr	r2, [pc, #96]	; (8005db4 <HAL_TIM_Base_Start_IT+0xdc>)
 8005d54:	4293      	cmp	r3, r2
 8005d56:	d111      	bne.n	8005d7c <HAL_TIM_Base_Start_IT+0xa4>
 8005d58:	687b      	ldr	r3, [r7, #4]
 8005d5a:	681b      	ldr	r3, [r3, #0]
 8005d5c:	689b      	ldr	r3, [r3, #8]
 8005d5e:	f003 0307 	and.w	r3, r3, #7
 8005d62:	60fb      	str	r3, [r7, #12]
 8005d64:	68fb      	ldr	r3, [r7, #12]
 8005d66:	2b06      	cmp	r3, #6
 8005d68:	d010      	beq.n	8005d8c <HAL_TIM_Base_Start_IT+0xb4>
 8005d6a:	687b      	ldr	r3, [r7, #4]
 8005d6c:	681b      	ldr	r3, [r3, #0]
 8005d6e:	681a      	ldr	r2, [r3, #0]
 8005d70:	687b      	ldr	r3, [r7, #4]
 8005d72:	681b      	ldr	r3, [r3, #0]
 8005d74:	f042 0201 	orr.w	r2, r2, #1
 8005d78:	601a      	str	r2, [r3, #0]
 8005d7a:	e007      	b.n	8005d8c <HAL_TIM_Base_Start_IT+0xb4>
 8005d7c:	687b      	ldr	r3, [r7, #4]
 8005d7e:	681b      	ldr	r3, [r3, #0]
 8005d80:	681a      	ldr	r2, [r3, #0]
 8005d82:	687b      	ldr	r3, [r7, #4]
 8005d84:	681b      	ldr	r3, [r3, #0]
 8005d86:	f042 0201 	orr.w	r2, r2, #1
 8005d8a:	601a      	str	r2, [r3, #0]
 8005d8c:	2300      	movs	r3, #0
 8005d8e:	4618      	mov	r0, r3
 8005d90:	3714      	adds	r7, #20
 8005d92:	46bd      	mov	sp, r7
 8005d94:	f85d 7b04 	ldr.w	r7, [sp], #4
 8005d98:	4770      	bx	lr
 8005d9a:	bf00      	nop
 8005d9c:	40010000 	.word	0x40010000
 8005da0:	40000400 	.word	0x40000400
 8005da4:	40000800 	.word	0x40000800
 8005da8:	40000c00 	.word	0x40000c00
 8005dac:	40010400 	.word	0x40010400
 8005db0:	40014000 	.word	0x40014000
 8005db4:	40001800 	.word	0x40001800

08005db8 <HAL_TIM_PWM_Init>:
 8005db8:	b580      	push	{r7, lr}
 8005dba:	b082      	sub	sp, #8
 8005dbc:	af00      	add	r7, sp, #0
 8005dbe:	6078      	str	r0, [r7, #4]
 8005dc0:	687b      	ldr	r3, [r7, #4]
 8005dc2:	2b00      	cmp	r3, #0
 8005dc4:	d101      	bne.n	8005dca <HAL_TIM_PWM_Init+0x12>
 8005dc6:	2301      	movs	r3, #1
 8005dc8:	e041      	b.n	8005e4e <HAL_TIM_PWM_Init+0x96>
 8005dca:	687b      	ldr	r3, [r7, #4]
 8005dcc:	f893 303d 	ldrb.w	r3, [r3, #61]	; 0x3d
 8005dd0:	b2db      	uxtb	r3, r3
 8005dd2:	2b00      	cmp	r3, #0
 8005dd4:	d106      	bne.n	8005de4 <HAL_TIM_PWM_Init+0x2c>
 8005dd6:	687b      	ldr	r3, [r7, #4]
 8005dd8:	2200      	movs	r2, #0
 8005dda:	f883 203c 	strb.w	r2, [r3, #60]	; 0x3c
 8005dde:	6878      	ldr	r0, [r7, #4]
 8005de0:	f000 f839 	bl	8005e56 <HAL_TIM_PWM_MspInit>
 8005de4:	687b      	ldr	r3, [r7, #4]
 8005de6:	2202      	movs	r2, #2
 8005de8:	f883 203d 	strb.w	r2, [r3, #61]	; 0x3d
 8005dec:	687b      	ldr	r3, [r7, #4]
 8005dee:	681a      	ldr	r2, [r3, #0]
 8005df0:	687b      	ldr	r3, [r7, #4]
 8005df2:	3304      	adds	r3, #4
 8005df4:	4619      	mov	r1, r3
 8005df6:	4610      	mov	r0, r2
 8005df8:	f000 fba2 	bl	8006540 <TIM_Base_SetConfig>
 8005dfc:	687b      	ldr	r3, [r7, #4]
 8005dfe:	2201      	movs	r2, #1
 8005e00:	f883 2046 	strb.w	r2, [r3, #70]	; 0x46
 8005e04:	687b      	ldr	r3, [r7, #4]
 8005e06:	2201      	movs	r2, #1
 8005e08:	f883 203e 	strb.w	r2, [r3, #62]	; 0x3e
 8005e0c:	687b      	ldr	r3, [r7, #4]
 8005e0e:	2201      	movs	r2, #1
 8005e10:	f883 203f 	strb.w	r2, [r3, #63]	; 0x3f
 8005e14:	687b      	ldr	r3, [r7, #4]
 8005e16:	2201      	movs	r2, #1
 8005e18:	f883 2040 	strb.w	r2, [r3, #64]	; 0x40
 8005e1c:	687b      	ldr	r3, [r7, #4]
 8005e1e:	2201      	movs	r2, #1
 8005e20:	f883 2041 	strb.w	r2, [r3, #65]	; 0x41
 8005e24:	687b      	ldr	r3, [r7, #4]
 8005e26:	2201      	movs	r2, #1
 8005e28:	f883 2042 	strb.w	r2, [r3, #66]	; 0x42
 8005e2c:	687b      	ldr	r3, [r7, #4]
 8005e2e:	2201      	movs	r2, #1
 8005e30:	f883 2043 	strb.w	r2, [r3, #67]	; 0x43
 8005e34:	687b      	ldr	r3, [r7, #4]
 8005e36:	2201      	movs	r2, #1
 8005e38:	f883 2044 	strb.w	r2, [r3, #68]	; 0x44
 8005e3c:	687b      	ldr	r3, [r7, #4]
 8005e3e:	2201      	movs	r2, #1
 8005e40:	f883 2045 	strb.w	r2, [r3, #69]	; 0x45
 8005e44:	687b      	ldr	r3, [r7, #4]
 8005e46:	2201      	movs	r2, #1
 8005e48:	f883 203d 	strb.w	r2, [r3, #61]	; 0x3d
 8005e4c:	2300      	movs	r3, #0
 8005e4e:	4618      	mov	r0, r3
 8005e50:	3708      	adds	r7, #8
 8005e52:	46bd      	mov	sp, r7
 8005e54:	bd80      	pop	{r7, pc}

08005e56 <HAL_TIM_PWM_MspInit>:
 8005e56:	b480      	push	{r7}
 8005e58:	b083      	sub	sp, #12
 8005e5a:	af00      	add	r7, sp, #0
 8005e5c:	6078      	str	r0, [r7, #4]
 8005e5e:	bf00      	nop
 8005e60:	370c      	adds	r7, #12
 8005e62:	46bd      	mov	sp, r7
 8005e64:	f85d 7b04 	ldr.w	r7, [sp], #4
 8005e68:	4770      	bx	lr
	...

08005e6c <HAL_TIM_PWM_Start>:
 8005e6c:	b580      	push	{r7, lr}
 8005e6e:	b084      	sub	sp, #16
 8005e70:	af00      	add	r7, sp, #0
 8005e72:	6078      	str	r0, [r7, #4]
 8005e74:	6039      	str	r1, [r7, #0]
 8005e76:	683b      	ldr	r3, [r7, #0]
 8005e78:	2b00      	cmp	r3, #0
 8005e7a:	d109      	bne.n	8005e90 <HAL_TIM_PWM_Start+0x24>
 8005e7c:	687b      	ldr	r3, [r7, #4]
 8005e7e:	f893 303e 	ldrb.w	r3, [r3, #62]	; 0x3e
 8005e82:	b2db      	uxtb	r3, r3
 8005e84:	2b01      	cmp	r3, #1
 8005e86:	bf14      	ite	ne
 8005e88:	2301      	movne	r3, #1
 8005e8a:	2300      	moveq	r3, #0
 8005e8c:	b2db      	uxtb	r3, r3
 8005e8e:	e022      	b.n	8005ed6 <HAL_TIM_PWM_Start+0x6a>
 8005e90:	683b      	ldr	r3, [r7, #0]
 8005e92:	2b04      	cmp	r3, #4
 8005e94:	d109      	bne.n	8005eaa <HAL_TIM_PWM_Start+0x3e>
 8005e96:	687b      	ldr	r3, [r7, #4]
 8005e98:	f893 303f 	ldrb.w	r3, [r3, #63]	; 0x3f
 8005e9c:	b2db      	uxtb	r3, r3
 8005e9e:	2b01      	cmp	r3, #1
 8005ea0:	bf14      	ite	ne
 8005ea2:	2301      	movne	r3, #1
 8005ea4:	2300      	moveq	r3, #0
 8005ea6:	b2db      	uxtb	r3, r3
 8005ea8:	e015      	b.n	8005ed6 <HAL_TIM_PWM_Start+0x6a>
 8005eaa:	683b      	ldr	r3, [r7, #0]
 8005eac:	2b08      	cmp	r3, #8
 8005eae:	d109      	bne.n	8005ec4 <HAL_TIM_PWM_Start+0x58>
 8005eb0:	687b      	ldr	r3, [r7, #4]
 8005eb2:	f893 3040 	ldrb.w	r3, [r3, #64]	; 0x40
 8005eb6:	b2db      	uxtb	r3, r3
 8005eb8:	2b01      	cmp	r3, #1
 8005eba:	bf14      	ite	ne
 8005ebc:	2301      	movne	r3, #1
 8005ebe:	2300      	moveq	r3, #0
 8005ec0:	b2db      	uxtb	r3, r3
 8005ec2:	e008      	b.n	8005ed6 <HAL_TIM_PWM_Start+0x6a>
 8005ec4:	687b      	ldr	r3, [r7, #4]
 8005ec6:	f893 3041 	ldrb.w	r3, [r3, #65]	; 0x41
 8005eca:	b2db      	uxtb	r3, r3
 8005ecc:	2b01      	cmp	r3, #1
 8005ece:	bf14      	ite	ne
 8005ed0:	2301      	movne	r3, #1
 8005ed2:	2300      	moveq	r3, #0
 8005ed4:	b2db      	uxtb	r3, r3
 8005ed6:	2b00      	cmp	r3, #0
 8005ed8:	d001      	beq.n	8005ede <HAL_TIM_PWM_Start+0x72>
 8005eda:	2301      	movs	r3, #1
 8005edc:	e07c      	b.n	8005fd8 <HAL_TIM_PWM_Start+0x16c>
 8005ede:	683b      	ldr	r3, [r7, #0]
 8005ee0:	2b00      	cmp	r3, #0
 8005ee2:	d104      	bne.n	8005eee <HAL_TIM_PWM_Start+0x82>
 8005ee4:	687b      	ldr	r3, [r7, #4]
 8005ee6:	2202      	movs	r2, #2
 8005ee8:	f883 203e 	strb.w	r2, [r3, #62]	; 0x3e
 8005eec:	e013      	b.n	8005f16 <HAL_TIM_PWM_Start+0xaa>
 8005eee:	683b      	ldr	r3, [r7, #0]
 8005ef0:	2b04      	cmp	r3, #4
 8005ef2:	d104      	bne.n	8005efe <HAL_TIM_PWM_Start+0x92>
 8005ef4:	687b      	ldr	r3, [r7, #4]
 8005ef6:	2202      	movs	r2, #2
 8005ef8:	f883 203f 	strb.w	r2, [r3, #63]	; 0x3f
 8005efc:	e00b      	b.n	8005f16 <HAL_TIM_PWM_Start+0xaa>
 8005efe:	683b      	ldr	r3, [r7, #0]
 8005f00:	2b08      	cmp	r3, #8
 8005f02:	d104      	bne.n	8005f0e <HAL_TIM_PWM_Start+0xa2>
 8005f04:	687b      	ldr	r3, [r7, #4]
 8005f06:	2202      	movs	r2, #2
 8005f08:	f883 2040 	strb.w	r2, [r3, #64]	; 0x40
 8005f0c:	e003      	b.n	8005f16 <HAL_TIM_PWM_Start+0xaa>
 8005f0e:	687b      	ldr	r3, [r7, #4]
 8005f10:	2202      	movs	r2, #2
 8005f12:	f883 2041 	strb.w	r2, [r3, #65]	; 0x41
 8005f16:	687b      	ldr	r3, [r7, #4]
 8005f18:	681b      	ldr	r3, [r3, #0]
 8005f1a:	2201      	movs	r2, #1
 8005f1c:	6839      	ldr	r1, [r7, #0]
 8005f1e:	4618      	mov	r0, r3
 8005f20:	f000 fe04 	bl	8006b2c <TIM_CCxChannelCmd>
 8005f24:	687b      	ldr	r3, [r7, #4]
 8005f26:	681b      	ldr	r3, [r3, #0]
 8005f28:	4a2d      	ldr	r2, [pc, #180]	; (8005fe0 <HAL_TIM_PWM_Start+0x174>)
 8005f2a:	4293      	cmp	r3, r2
 8005f2c:	d004      	beq.n	8005f38 <HAL_TIM_PWM_Start+0xcc>
 8005f2e:	687b      	ldr	r3, [r7, #4]
 8005f30:	681b      	ldr	r3, [r3, #0]
 8005f32:	4a2c      	ldr	r2, [pc, #176]	; (8005fe4 <HAL_TIM_PWM_Start+0x178>)
 8005f34:	4293      	cmp	r3, r2
 8005f36:	d101      	bne.n	8005f3c <HAL_TIM_PWM_Start+0xd0>
 8005f38:	2301      	movs	r3, #1
 8005f3a:	e000      	b.n	8005f3e <HAL_TIM_PWM_Start+0xd2>
 8005f3c:	2300      	movs	r3, #0
 8005f3e:	2b00      	cmp	r3, #0
 8005f40:	d007      	beq.n	8005f52 <HAL_TIM_PWM_Start+0xe6>
 8005f42:	687b      	ldr	r3, [r7, #4]
 8005f44:	681b      	ldr	r3, [r3, #0]
 8005f46:	6c5a      	ldr	r2, [r3, #68]	; 0x44
 8005f48:	687b      	ldr	r3, [r7, #4]
 8005f4a:	681b      	ldr	r3, [r3, #0]
 8005f4c:	f442 4200 	orr.w	r2, r2, #32768	; 0x8000
 8005f50:	645a      	str	r2, [r3, #68]	; 0x44
 8005f52:	687b      	ldr	r3, [r7, #4]
 8005f54:	681b      	ldr	r3, [r3, #0]
 8005f56:	4a22      	ldr	r2, [pc, #136]	; (8005fe0 <HAL_TIM_PWM_Start+0x174>)
 8005f58:	4293      	cmp	r3, r2
 8005f5a:	d022      	beq.n	8005fa2 <HAL_TIM_PWM_Start+0x136>
 8005f5c:	687b      	ldr	r3, [r7, #4]
 8005f5e:	681b      	ldr	r3, [r3, #0]
 8005f60:	f1b3 4f80 	cmp.w	r3, #1073741824	; 0x40000000
 8005f64:	d01d      	beq.n	8005fa2 <HAL_TIM_PWM_Start+0x136>
 8005f66:	687b      	ldr	r3, [r7, #4]
 8005f68:	681b      	ldr	r3, [r3, #0]
 8005f6a:	4a1f      	ldr	r2, [pc, #124]	; (8005fe8 <HAL_TIM_PWM_Start+0x17c>)
 8005f6c:	4293      	cmp	r3, r2
 8005f6e:	d018      	beq.n	8005fa2 <HAL_TIM_PWM_Start+0x136>
 8005f70:	687b      	ldr	r3, [r7, #4]
 8005f72:	681b      	ldr	r3, [r3, #0]
 8005f74:	4a1d      	ldr	r2, [pc, #116]	; (8005fec <HAL_TIM_PWM_Start+0x180>)
 8005f76:	4293      	cmp	r3, r2
 8005f78:	d013      	beq.n	8005fa2 <HAL_TIM_PWM_Start+0x136>
 8005f7a:	687b      	ldr	r3, [r7, #4]
 8005f7c:	681b      	ldr	r3, [r3, #0]
 8005f7e:	4a1c      	ldr	r2, [pc, #112]	; (8005ff0 <HAL_TIM_PWM_Start+0x184>)
 8005f80:	4293      	cmp	r3, r2
 8005f82:	d00e      	beq.n	8005fa2 <HAL_TIM_PWM_Start+0x136>
 8005f84:	687b      	ldr	r3, [r7, #4]
 8005f86:	681b      	ldr	r3, [r3, #0]
 8005f88:	4a16      	ldr	r2, [pc, #88]	; (8005fe4 <HAL_TIM_PWM_Start+0x178>)
 8005f8a:	4293      	cmp	r3, r2
 8005f8c:	d009      	beq.n	8005fa2 <HAL_TIM_PWM_Start+0x136>
 8005f8e:	687b      	ldr	r3, [r7, #4]
 8005f90:	681b      	ldr	r3, [r3, #0]
 8005f92:	4a18      	ldr	r2, [pc, #96]	; (8005ff4 <HAL_TIM_PWM_Start+0x188>)
 8005f94:	4293      	cmp	r3, r2
 8005f96:	d004      	beq.n	8005fa2 <HAL_TIM_PWM_Start+0x136>
 8005f98:	687b      	ldr	r3, [r7, #4]
 8005f9a:	681b      	ldr	r3, [r3, #0]
 8005f9c:	4a16      	ldr	r2, [pc, #88]	; (8005ff8 <HAL_TIM_PWM_Start+0x18c>)
 8005f9e:	4293      	cmp	r3, r2
 8005fa0:	d111      	bne.n	8005fc6 <HAL_TIM_PWM_Start+0x15a>
 8005fa2:	687b      	ldr	r3, [r7, #4]
 8005fa4:	681b      	ldr	r3, [r3, #0]
 8005fa6:	689b      	ldr	r3, [r3, #8]
 8005fa8:	f003 0307 	and.w	r3, r3, #7
 8005fac:	60fb      	str	r3, [r7, #12]
 8005fae:	68fb      	ldr	r3, [r7, #12]
 8005fb0:	2b06      	cmp	r3, #6
 8005fb2:	d010      	beq.n	8005fd6 <HAL_TIM_PWM_Start+0x16a>
 8005fb4:	687b      	ldr	r3, [r7, #4]
 8005fb6:	681b      	ldr	r3, [r3, #0]
 8005fb8:	681a      	ldr	r2, [r3, #0]
 8005fba:	687b      	ldr	r3, [r7, #4]
 8005fbc:	681b      	ldr	r3, [r3, #0]
 8005fbe:	f042 0201 	orr.w	r2, r2, #1
 8005fc2:	601a      	str	r2, [r3, #0]
 8005fc4:	e007      	b.n	8005fd6 <HAL_TIM_PWM_Start+0x16a>
 8005fc6:	687b      	ldr	r3, [r7, #4]
 8005fc8:	681b      	ldr	r3, [r3, #0]
 8005fca:	681a      	ldr	r2, [r3, #0]
 8005fcc:	687b      	ldr	r3, [r7, #4]
 8005fce:	681b      	ldr	r3, [r3, #0]
 8005fd0:	f042 0201 	orr.w	r2, r2, #1
 8005fd4:	601a      	str	r2, [r3, #0]
 8005fd6:	2300      	movs	r3, #0
 8005fd8:	4618      	mov	r0, r3
 8005fda:	3710      	adds	r7, #16
 8005fdc:	46bd      	mov	sp, r7
 8005fde:	bd80      	pop	{r7, pc}
 8005fe0:	40010000 	.word	0x40010000
 8005fe4:	40010400 	.word	0x40010400
 8005fe8:	40000400 	.word	0x40000400
 8005fec:	40000800 	.word	0x40000800
 8005ff0:	40000c00 	.word	0x40000c00
 8005ff4:	40014000 	.word	0x40014000
 8005ff8:	40001800 	.word	0x40001800

08005ffc <HAL_TIM_IRQHandler>:
 8005ffc:	b580      	push	{r7, lr}
 8005ffe:	b084      	sub	sp, #16
 8006000:	af00      	add	r7, sp, #0
 8006002:	6078      	str	r0, [r7, #4]
 8006004:	687b      	ldr	r3, [r7, #4]
 8006006:	681b      	ldr	r3, [r3, #0]
 8006008:	68db      	ldr	r3, [r3, #12]
 800600a:	60fb      	str	r3, [r7, #12]
 800600c:	687b      	ldr	r3, [r7, #4]
 800600e:	681b      	ldr	r3, [r3, #0]
 8006010:	691b      	ldr	r3, [r3, #16]
 8006012:	60bb      	str	r3, [r7, #8]
 8006014:	68bb      	ldr	r3, [r7, #8]
 8006016:	f003 0302 	and.w	r3, r3, #2
 800601a:	2b00      	cmp	r3, #0
 800601c:	d020      	beq.n	8006060 <HAL_TIM_IRQHandler+0x64>
 800601e:	68fb      	ldr	r3, [r7, #12]
 8006020:	f003 0302 	and.w	r3, r3, #2
 8006024:	2b00      	cmp	r3, #0
 8006026:	d01b      	beq.n	8006060 <HAL_TIM_IRQHandler+0x64>
 8006028:	687b      	ldr	r3, [r7, #4]
 800602a:	681b      	ldr	r3, [r3, #0]
 800602c:	f06f 0202 	mvn.w	r2, #2
 8006030:	611a      	str	r2, [r3, #16]
 8006032:	687b      	ldr	r3, [r7, #4]
 8006034:	2201      	movs	r2, #1
 8006036:	771a      	strb	r2, [r3, #28]
 8006038:	687b      	ldr	r3, [r7, #4]
 800603a:	681b      	ldr	r3, [r3, #0]
 800603c:	699b      	ldr	r3, [r3, #24]
 800603e:	f003 0303 	and.w	r3, r3, #3
 8006042:	2b00      	cmp	r3, #0
 8006044:	d003      	beq.n	800604e <HAL_TIM_IRQHandler+0x52>
 8006046:	6878      	ldr	r0, [r7, #4]
 8006048:	f000 fa5b 	bl	8006502 <HAL_TIM_IC_CaptureCallback>
 800604c:	e005      	b.n	800605a <HAL_TIM_IRQHandler+0x5e>
 800604e:	6878      	ldr	r0, [r7, #4]
 8006050:	f000 fa4d 	bl	80064ee <HAL_TIM_OC_DelayElapsedCallback>
 8006054:	6878      	ldr	r0, [r7, #4]
 8006056:	f000 fa5e 	bl	8006516 <HAL_TIM_PWM_PulseFinishedCallback>
 800605a:	687b      	ldr	r3, [r7, #4]
 800605c:	2200      	movs	r2, #0
 800605e:	771a      	strb	r2, [r3, #28]
 8006060:	68bb      	ldr	r3, [r7, #8]
 8006062:	f003 0304 	and.w	r3, r3, #4
 8006066:	2b00      	cmp	r3, #0
 8006068:	d020      	beq.n	80060ac <HAL_TIM_IRQHandler+0xb0>
 800606a:	68fb      	ldr	r3, [r7, #12]
 800606c:	f003 0304 	and.w	r3, r3, #4
 8006070:	2b00      	cmp	r3, #0
 8006072:	d01b      	beq.n	80060ac <HAL_TIM_IRQHandler+0xb0>
 8006074:	687b      	ldr	r3, [r7, #4]
 8006076:	681b      	ldr	r3, [r3, #0]
 8006078:	f06f 0204 	mvn.w	r2, #4
 800607c:	611a      	str	r2, [r3, #16]
 800607e:	687b      	ldr	r3, [r7, #4]
 8006080:	2202      	movs	r2, #2
 8006082:	771a      	strb	r2, [r3, #28]
 8006084:	687b      	ldr	r3, [r7, #4]
 8006086:	681b      	ldr	r3, [r3, #0]
 8006088:	699b      	ldr	r3, [r3, #24]
 800608a:	f403 7340 	and.w	r3, r3, #768	; 0x300
 800608e:	2b00      	cmp	r3, #0
 8006090:	d003      	beq.n	800609a <HAL_TIM_IRQHandler+0x9e>
 8006092:	6878      	ldr	r0, [r7, #4]
 8006094:	f000 fa35 	bl	8006502 <HAL_TIM_IC_CaptureCallback>
 8006098:	e005      	b.n	80060a6 <HAL_TIM_IRQHandler+0xaa>
 800609a:	6878      	ldr	r0, [r7, #4]
 800609c:	f000 fa27 	bl	80064ee <HAL_TIM_OC_DelayElapsedCallback>
 80060a0:	6878      	ldr	r0, [r7, #4]
 80060a2:	f000 fa38 	bl	8006516 <HAL_TIM_PWM_PulseFinishedCallback>
 80060a6:	687b      	ldr	r3, [r7, #4]
 80060a8:	2200      	movs	r2, #0
 80060aa:	771a      	strb	r2, [r3, #28]
 80060ac:	68bb      	ldr	r3, [r7, #8]
 80060ae:	f003 0308 	and.w	r3, r3, #8
 80060b2:	2b00      	cmp	r3, #0
 80060b4:	d020      	beq.n	80060f8 <HAL_TIM_IRQHandler+0xfc>
 80060b6:	68fb      	ldr	r3, [r7, #12]
 80060b8:	f003 0308 	and.w	r3, r3, #8
 80060bc:	2b00      	cmp	r3, #0
 80060be:	d01b      	beq.n	80060f8 <HAL_TIM_IRQHandler+0xfc>
 80060c0:	687b      	ldr	r3, [r7, #4]
 80060c2:	681b      	ldr	r3, [r3, #0]
 80060c4:	f06f 0208 	mvn.w	r2, #8
 80060c8:	611a      	str	r2, [r3, #16]
 80060ca:	687b      	ldr	r3, [r7, #4]
 80060cc:	2204      	movs	r2, #4
 80060ce:	771a      	strb	r2, [r3, #28]
 80060d0:	687b      	ldr	r3, [r7, #4]
 80060d2:	681b      	ldr	r3, [r3, #0]
 80060d4:	69db      	ldr	r3, [r3, #28]
 80060d6:	f003 0303 	and.w	r3, r3, #3
 80060da:	2b00      	cmp	r3, #0
 80060dc:	d003      	beq.n	80060e6 <HAL_TIM_IRQHandler+0xea>
 80060de:	6878      	ldr	r0, [r7, #4]
 80060e0:	f000 fa0f 	bl	8006502 <HAL_TIM_IC_CaptureCallback>
 80060e4:	e005      	b.n	80060f2 <HAL_TIM_IRQHandler+0xf6>
 80060e6:	6878      	ldr	r0, [r7, #4]
 80060e8:	f000 fa01 	bl	80064ee <HAL_TIM_OC_DelayElapsedCallback>
 80060ec:	6878      	ldr	r0, [r7, #4]
 80060ee:	f000 fa12 	bl	8006516 <HAL_TIM_PWM_PulseFinishedCallback>
 80060f2:	687b      	ldr	r3, [r7, #4]
 80060f4:	2200      	movs	r2, #0
 80060f6:	771a      	strb	r2, [r3, #28]
 80060f8:	68bb      	ldr	r3, [r7, #8]
 80060fa:	f003 0310 	and.w	r3, r3, #16
 80060fe:	2b00      	cmp	r3, #0
 8006100:	d020      	beq.n	8006144 <HAL_TIM_IRQHandler+0x148>
 8006102:	68fb      	ldr	r3, [r7, #12]
 8006104:	f003 0310 	and.w	r3, r3, #16
 8006108:	2b00      	cmp	r3, #0
 800610a:	d01b      	beq.n	8006144 <HAL_TIM_IRQHandler+0x148>
 800610c:	687b      	ldr	r3, [r7, #4]
 800610e:	681b      	ldr	r3, [r3, #0]
 8006110:	f06f 0210 	mvn.w	r2, #16
 8006114:	611a      	str	r2, [r3, #16]
 8006116:	687b      	ldr	r3, [r7, #4]
 8006118:	2208      	movs	r2, #8
 800611a:	771a      	strb	r2, [r3, #28]
 800611c:	687b      	ldr	r3, [r7, #4]
 800611e:	681b      	ldr	r3, [r3, #0]
 8006120:	69db      	ldr	r3, [r3, #28]
 8006122:	f403 7340 	and.w	r3, r3, #768	; 0x300
 8006126:	2b00      	cmp	r3, #0
 8006128:	d003      	beq.n	8006132 <HAL_TIM_IRQHandler+0x136>
 800612a:	6878      	ldr	r0, [r7, #4]
 800612c:	f000 f9e9 	bl	8006502 <HAL_TIM_IC_CaptureCallback>
 8006130:	e005      	b.n	800613e <HAL_TIM_IRQHandler+0x142>
 8006132:	6878      	ldr	r0, [r7, #4]
 8006134:	f000 f9db 	bl	80064ee <HAL_TIM_OC_DelayElapsedCallback>
 8006138:	6878      	ldr	r0, [r7, #4]
 800613a:	f000 f9ec 	bl	8006516 <HAL_TIM_PWM_PulseFinishedCallback>
 800613e:	687b      	ldr	r3, [r7, #4]
 8006140:	2200      	movs	r2, #0
 8006142:	771a      	strb	r2, [r3, #28]
 8006144:	68bb      	ldr	r3, [r7, #8]
 8006146:	f003 0301 	and.w	r3, r3, #1
 800614a:	2b00      	cmp	r3, #0
 800614c:	d00c      	beq.n	8006168 <HAL_TIM_IRQHandler+0x16c>
 800614e:	68fb      	ldr	r3, [r7, #12]
 8006150:	f003 0301 	and.w	r3, r3, #1
 8006154:	2b00      	cmp	r3, #0
 8006156:	d007      	beq.n	8006168 <HAL_TIM_IRQHandler+0x16c>
 8006158:	687b      	ldr	r3, [r7, #4]
 800615a:	681b      	ldr	r3, [r3, #0]
 800615c:	f06f 0201 	mvn.w	r2, #1
 8006160:	611a      	str	r2, [r3, #16]
 8006162:	6878      	ldr	r0, [r7, #4]
 8006164:	f7fc fd22 	bl	8002bac <HAL_TIM_PeriodElapsedCallback>
 8006168:	68bb      	ldr	r3, [r7, #8]
 800616a:	f003 0380 	and.w	r3, r3, #128	; 0x80
 800616e:	2b00      	cmp	r3, #0
 8006170:	d00c      	beq.n	800618c <HAL_TIM_IRQHandler+0x190>
 8006172:	68fb      	ldr	r3, [r7, #12]
 8006174:	f003 0380 	and.w	r3, r3, #128	; 0x80
 8006178:	2b00      	cmp	r3, #0
 800617a:	d007      	beq.n	800618c <HAL_TIM_IRQHandler+0x190>
 800617c:	687b      	ldr	r3, [r7, #4]
 800617e:	681b      	ldr	r3, [r3, #0]
 8006180:	f06f 0280 	mvn.w	r2, #128	; 0x80
 8006184:	611a      	str	r2, [r3, #16]
 8006186:	6878      	ldr	r0, [r7, #4]
 8006188:	f000 fd7c 	bl	8006c84 <HAL_TIMEx_BreakCallback>
 800618c:	68bb      	ldr	r3, [r7, #8]
 800618e:	f003 0340 	and.w	r3, r3, #64	; 0x40
 8006192:	2b00      	cmp	r3, #0
 8006194:	d00c      	beq.n	80061b0 <HAL_TIM_IRQHandler+0x1b4>
 8006196:	68fb      	ldr	r3, [r7, #12]
 8006198:	f003 0340 	and.w	r3, r3, #64	; 0x40
 800619c:	2b00      	cmp	r3, #0
 800619e:	d007      	beq.n	80061b0 <HAL_TIM_IRQHandler+0x1b4>
 80061a0:	687b      	ldr	r3, [r7, #4]
 80061a2:	681b      	ldr	r3, [r3, #0]
 80061a4:	f06f 0240 	mvn.w	r2, #64	; 0x40
 80061a8:	611a      	str	r2, [r3, #16]
 80061aa:	6878      	ldr	r0, [r7, #4]
 80061ac:	f000 f9bd 	bl	800652a <HAL_TIM_TriggerCallback>
 80061b0:	68bb      	ldr	r3, [r7, #8]
 80061b2:	f003 0320 	and.w	r3, r3, #32
 80061b6:	2b00      	cmp	r3, #0
 80061b8:	d00c      	beq.n	80061d4 <HAL_TIM_IRQHandler+0x1d8>
 80061ba:	68fb      	ldr	r3, [r7, #12]
 80061bc:	f003 0320 	and.w	r3, r3, #32
 80061c0:	2b00      	cmp	r3, #0
 80061c2:	d007      	beq.n	80061d4 <HAL_TIM_IRQHandler+0x1d8>
 80061c4:	687b      	ldr	r3, [r7, #4]
 80061c6:	681b      	ldr	r3, [r3, #0]
 80061c8:	f06f 0220 	mvn.w	r2, #32
 80061cc:	611a      	str	r2, [r3, #16]
 80061ce:	6878      	ldr	r0, [r7, #4]
 80061d0:	f000 fd4e 	bl	8006c70 <HAL_TIMEx_CommutCallback>
 80061d4:	bf00      	nop
 80061d6:	3710      	adds	r7, #16
 80061d8:	46bd      	mov	sp, r7
 80061da:	bd80      	pop	{r7, pc}

080061dc <HAL_TIM_PWM_ConfigChannel>:
 80061dc:	b580      	push	{r7, lr}
 80061de:	b086      	sub	sp, #24
 80061e0:	af00      	add	r7, sp, #0
 80061e2:	60f8      	str	r0, [r7, #12]
 80061e4:	60b9      	str	r1, [r7, #8]
 80061e6:	607a      	str	r2, [r7, #4]
 80061e8:	2300      	movs	r3, #0
 80061ea:	75fb      	strb	r3, [r7, #23]
 80061ec:	68fb      	ldr	r3, [r7, #12]
 80061ee:	f893 303c 	ldrb.w	r3, [r3, #60]	; 0x3c
 80061f2:	2b01      	cmp	r3, #1
 80061f4:	d101      	bne.n	80061fa <HAL_TIM_PWM_ConfigChannel+0x1e>
 80061f6:	2302      	movs	r3, #2
 80061f8:	e0ae      	b.n	8006358 <HAL_TIM_PWM_ConfigChannel+0x17c>
 80061fa:	68fb      	ldr	r3, [r7, #12]
 80061fc:	2201      	movs	r2, #1
 80061fe:	f883 203c 	strb.w	r2, [r3, #60]	; 0x3c
 8006202:	687b      	ldr	r3, [r7, #4]
 8006204:	2b0c      	cmp	r3, #12
 8006206:	f200 809f 	bhi.w	8006348 <HAL_TIM_PWM_ConfigChannel+0x16c>
 800620a:	a201      	add	r2, pc, #4	; (adr r2, 8006210 <HAL_TIM_PWM_ConfigChannel+0x34>)
 800620c:	f852 f023 	ldr.w	pc, [r2, r3, lsl #2]
 8006210:	08006245 	.word	0x08006245
 8006214:	08006349 	.word	0x08006349
 8006218:	08006349 	.word	0x08006349
 800621c:	08006349 	.word	0x08006349
 8006220:	08006285 	.word	0x08006285
 8006224:	08006349 	.word	0x08006349
 8006228:	08006349 	.word	0x08006349
 800622c:	08006349 	.word	0x08006349
 8006230:	080062c7 	.word	0x080062c7
 8006234:	08006349 	.word	0x08006349
 8006238:	08006349 	.word	0x08006349
 800623c:	08006349 	.word	0x08006349
 8006240:	08006307 	.word	0x08006307
 8006244:	68fb      	ldr	r3, [r7, #12]
 8006246:	681b      	ldr	r3, [r3, #0]
 8006248:	68b9      	ldr	r1, [r7, #8]
 800624a:	4618      	mov	r0, r3
 800624c:	f000 fa24 	bl	8006698 <TIM_OC1_SetConfig>
 8006250:	68fb      	ldr	r3, [r7, #12]
 8006252:	681b      	ldr	r3, [r3, #0]
 8006254:	699a      	ldr	r2, [r3, #24]
 8006256:	68fb      	ldr	r3, [r7, #12]
 8006258:	681b      	ldr	r3, [r3, #0]
 800625a:	f042 0208 	orr.w	r2, r2, #8
 800625e:	619a      	str	r2, [r3, #24]
 8006260:	68fb      	ldr	r3, [r7, #12]
 8006262:	681b      	ldr	r3, [r3, #0]
 8006264:	699a      	ldr	r2, [r3, #24]
 8006266:	68fb      	ldr	r3, [r7, #12]
 8006268:	681b      	ldr	r3, [r3, #0]
 800626a:	f022 0204 	bic.w	r2, r2, #4
 800626e:	619a      	str	r2, [r3, #24]
 8006270:	68fb      	ldr	r3, [r7, #12]
 8006272:	681b      	ldr	r3, [r3, #0]
 8006274:	6999      	ldr	r1, [r3, #24]
 8006276:	68bb      	ldr	r3, [r7, #8]
 8006278:	691a      	ldr	r2, [r3, #16]
 800627a:	68fb      	ldr	r3, [r7, #12]
 800627c:	681b      	ldr	r3, [r3, #0]
 800627e:	430a      	orrs	r2, r1
 8006280:	619a      	str	r2, [r3, #24]
 8006282:	e064      	b.n	800634e <HAL_TIM_PWM_ConfigChannel+0x172>
 8006284:	68fb      	ldr	r3, [r7, #12]
 8006286:	681b      	ldr	r3, [r3, #0]
 8006288:	68b9      	ldr	r1, [r7, #8]
 800628a:	4618      	mov	r0, r3
 800628c:	f000 fa74 	bl	8006778 <TIM_OC2_SetConfig>
 8006290:	68fb      	ldr	r3, [r7, #12]
 8006292:	681b      	ldr	r3, [r3, #0]
 8006294:	699a      	ldr	r2, [r3, #24]
 8006296:	68fb      	ldr	r3, [r7, #12]
 8006298:	681b      	ldr	r3, [r3, #0]
 800629a:	f442 6200 	orr.w	r2, r2, #2048	; 0x800
 800629e:	619a      	str	r2, [r3, #24]
 80062a0:	68fb      	ldr	r3, [r7, #12]
 80062a2:	681b      	ldr	r3, [r3, #0]
 80062a4:	699a      	ldr	r2, [r3, #24]
 80062a6:	68fb      	ldr	r3, [r7, #12]
 80062a8:	681b      	ldr	r3, [r3, #0]
 80062aa:	f422 6280 	bic.w	r2, r2, #1024	; 0x400
 80062ae:	619a      	str	r2, [r3, #24]
 80062b0:	68fb      	ldr	r3, [r7, #12]
 80062b2:	681b      	ldr	r3, [r3, #0]
 80062b4:	6999      	ldr	r1, [r3, #24]
 80062b6:	68bb      	ldr	r3, [r7, #8]
 80062b8:	691b      	ldr	r3, [r3, #16]
 80062ba:	021a      	lsls	r2, r3, #8
 80062bc:	68fb      	ldr	r3, [r7, #12]
 80062be:	681b      	ldr	r3, [r3, #0]
 80062c0:	430a      	orrs	r2, r1
 80062c2:	619a      	str	r2, [r3, #24]
 80062c4:	e043      	b.n	800634e <HAL_TIM_PWM_ConfigChannel+0x172>
 80062c6:	68fb      	ldr	r3, [r7, #12]
 80062c8:	681b      	ldr	r3, [r3, #0]
 80062ca:	68b9      	ldr	r1, [r7, #8]
 80062cc:	4618      	mov	r0, r3
 80062ce:	f000 fac9 	bl	8006864 <TIM_OC3_SetConfig>
 80062d2:	68fb      	ldr	r3, [r7, #12]
 80062d4:	681b      	ldr	r3, [r3, #0]
 80062d6:	69da      	ldr	r2, [r3, #28]
 80062d8:	68fb      	ldr	r3, [r7, #12]
 80062da:	681b      	ldr	r3, [r3, #0]
 80062dc:	f042 0208 	orr.w	r2, r2, #8
 80062e0:	61da      	str	r2, [r3, #28]
 80062e2:	68fb      	ldr	r3, [r7, #12]
 80062e4:	681b      	ldr	r3, [r3, #0]
 80062e6:	69da      	ldr	r2, [r3, #28]
 80062e8:	68fb      	ldr	r3, [r7, #12]
 80062ea:	681b      	ldr	r3, [r3, #0]
 80062ec:	f022 0204 	bic.w	r2, r2, #4
 80062f0:	61da      	str	r2, [r3, #28]
 80062f2:	68fb      	ldr	r3, [r7, #12]
 80062f4:	681b      	ldr	r3, [r3, #0]
 80062f6:	69d9      	ldr	r1, [r3, #28]
 80062f8:	68bb      	ldr	r3, [r7, #8]
 80062fa:	691a      	ldr	r2, [r3, #16]
 80062fc:	68fb      	ldr	r3, [r7, #12]
 80062fe:	681b      	ldr	r3, [r3, #0]
 8006300:	430a      	orrs	r2, r1
 8006302:	61da      	str	r2, [r3, #28]
 8006304:	e023      	b.n	800634e <HAL_TIM_PWM_ConfigChannel+0x172>
 8006306:	68fb      	ldr	r3, [r7, #12]
 8006308:	681b      	ldr	r3, [r3, #0]
 800630a:	68b9      	ldr	r1, [r7, #8]
 800630c:	4618      	mov	r0, r3
 800630e:	f000 fb1d 	bl	800694c <TIM_OC4_SetConfig>
 8006312:	68fb      	ldr	r3, [r7, #12]
 8006314:	681b      	ldr	r3, [r3, #0]
 8006316:	69da      	ldr	r2, [r3, #28]
 8006318:	68fb      	ldr	r3, [r7, #12]
 800631a:	681b      	ldr	r3, [r3, #0]
 800631c:	f442 6200 	orr.w	r2, r2, #2048	; 0x800
 8006320:	61da      	str	r2, [r3, #28]
 8006322:	68fb      	ldr	r3, [r7, #12]
 8006324:	681b      	ldr	r3, [r3, #0]
 8006326:	69da      	ldr	r2, [r3, #28]
 8006328:	68fb      	ldr	r3, [r7, #12]
 800632a:	681b      	ldr	r3, [r3, #0]
 800632c:	f422 6280 	bic.w	r2, r2, #1024	; 0x400
 8006330:	61da      	str	r2, [r3, #28]
 8006332:	68fb      	ldr	r3, [r7, #12]
 8006334:	681b      	ldr	r3, [r3, #0]
 8006336:	69d9      	ldr	r1, [r3, #28]
 8006338:	68bb      	ldr	r3, [r7, #8]
 800633a:	691b      	ldr	r3, [r3, #16]
 800633c:	021a      	lsls	r2, r3, #8
 800633e:	68fb      	ldr	r3, [r7, #12]
 8006340:	681b      	ldr	r3, [r3, #0]
 8006342:	430a      	orrs	r2, r1
 8006344:	61da      	str	r2, [r3, #28]
 8006346:	e002      	b.n	800634e <HAL_TIM_PWM_ConfigChannel+0x172>
 8006348:	2301      	movs	r3, #1
 800634a:	75fb      	strb	r3, [r7, #23]
 800634c:	bf00      	nop
 800634e:	68fb      	ldr	r3, [r7, #12]
 8006350:	2200      	movs	r2, #0
 8006352:	f883 203c 	strb.w	r2, [r3, #60]	; 0x3c
 8006356:	7dfb      	ldrb	r3, [r7, #23]
 8006358:	4618      	mov	r0, r3
 800635a:	3718      	adds	r7, #24
 800635c:	46bd      	mov	sp, r7
 800635e:	bd80      	pop	{r7, pc}

08006360 <HAL_TIM_ConfigClockSource>:
 8006360:	b580      	push	{r7, lr}
 8006362:	b084      	sub	sp, #16
 8006364:	af00      	add	r7, sp, #0
 8006366:	6078      	str	r0, [r7, #4]
 8006368:	6039      	str	r1, [r7, #0]
 800636a:	2300      	movs	r3, #0
 800636c:	73fb      	strb	r3, [r7, #15]
 800636e:	687b      	ldr	r3, [r7, #4]
 8006370:	f893 303c 	ldrb.w	r3, [r3, #60]	; 0x3c
 8006374:	2b01      	cmp	r3, #1
 8006376:	d101      	bne.n	800637c <HAL_TIM_ConfigClockSource+0x1c>
 8006378:	2302      	movs	r3, #2
 800637a:	e0b4      	b.n	80064e6 <HAL_TIM_ConfigClockSource+0x186>
 800637c:	687b      	ldr	r3, [r7, #4]
 800637e:	2201      	movs	r2, #1
 8006380:	f883 203c 	strb.w	r2, [r3, #60]	; 0x3c
 8006384:	687b      	ldr	r3, [r7, #4]
 8006386:	2202      	movs	r2, #2
 8006388:	f883 203d 	strb.w	r2, [r3, #61]	; 0x3d
 800638c:	687b      	ldr	r3, [r7, #4]
 800638e:	681b      	ldr	r3, [r3, #0]
 8006390:	689b      	ldr	r3, [r3, #8]
 8006392:	60bb      	str	r3, [r7, #8]
 8006394:	68bb      	ldr	r3, [r7, #8]
 8006396:	f023 0377 	bic.w	r3, r3, #119	; 0x77
 800639a:	60bb      	str	r3, [r7, #8]
 800639c:	68bb      	ldr	r3, [r7, #8]
 800639e:	f423 437f 	bic.w	r3, r3, #65280	; 0xff00
 80063a2:	60bb      	str	r3, [r7, #8]
 80063a4:	687b      	ldr	r3, [r7, #4]
 80063a6:	681b      	ldr	r3, [r3, #0]
 80063a8:	68ba      	ldr	r2, [r7, #8]
 80063aa:	609a      	str	r2, [r3, #8]
 80063ac:	683b      	ldr	r3, [r7, #0]
 80063ae:	681b      	ldr	r3, [r3, #0]
 80063b0:	f5b3 5f00 	cmp.w	r3, #8192	; 0x2000
 80063b4:	d03e      	beq.n	8006434 <HAL_TIM_ConfigClockSource+0xd4>
 80063b6:	f5b3 5f00 	cmp.w	r3, #8192	; 0x2000
 80063ba:	f200 8087 	bhi.w	80064cc <HAL_TIM_ConfigClockSource+0x16c>
 80063be:	f5b3 5f80 	cmp.w	r3, #4096	; 0x1000
 80063c2:	f000 8086 	beq.w	80064d2 <HAL_TIM_ConfigClockSource+0x172>
 80063c6:	f5b3 5f80 	cmp.w	r3, #4096	; 0x1000
 80063ca:	d87f      	bhi.n	80064cc <HAL_TIM_ConfigClockSource+0x16c>
 80063cc:	2b70      	cmp	r3, #112	; 0x70
 80063ce:	d01a      	beq.n	8006406 <HAL_TIM_ConfigClockSource+0xa6>
 80063d0:	2b70      	cmp	r3, #112	; 0x70
 80063d2:	d87b      	bhi.n	80064cc <HAL_TIM_ConfigClockSource+0x16c>
 80063d4:	2b60      	cmp	r3, #96	; 0x60
 80063d6:	d050      	beq.n	800647a <HAL_TIM_ConfigClockSource+0x11a>
 80063d8:	2b60      	cmp	r3, #96	; 0x60
 80063da:	d877      	bhi.n	80064cc <HAL_TIM_ConfigClockSource+0x16c>
 80063dc:	2b50      	cmp	r3, #80	; 0x50
 80063de:	d03c      	beq.n	800645a <HAL_TIM_ConfigClockSource+0xfa>
 80063e0:	2b50      	cmp	r3, #80	; 0x50
 80063e2:	d873      	bhi.n	80064cc <HAL_TIM_ConfigClockSource+0x16c>
 80063e4:	2b40      	cmp	r3, #64	; 0x40
 80063e6:	d058      	beq.n	800649a <HAL_TIM_ConfigClockSource+0x13a>
 80063e8:	2b40      	cmp	r3, #64	; 0x40
 80063ea:	d86f      	bhi.n	80064cc <HAL_TIM_ConfigClockSource+0x16c>
 80063ec:	2b30      	cmp	r3, #48	; 0x30
 80063ee:	d064      	beq.n	80064ba <HAL_TIM_ConfigClockSource+0x15a>
 80063f0:	2b30      	cmp	r3, #48	; 0x30
 80063f2:	d86b      	bhi.n	80064cc <HAL_TIM_ConfigClockSource+0x16c>
 80063f4:	2b20      	cmp	r3, #32
 80063f6:	d060      	beq.n	80064ba <HAL_TIM_ConfigClockSource+0x15a>
 80063f8:	2b20      	cmp	r3, #32
 80063fa:	d867      	bhi.n	80064cc <HAL_TIM_ConfigClockSource+0x16c>
 80063fc:	2b00      	cmp	r3, #0
 80063fe:	d05c      	beq.n	80064ba <HAL_TIM_ConfigClockSource+0x15a>
 8006400:	2b10      	cmp	r3, #16
 8006402:	d05a      	beq.n	80064ba <HAL_TIM_ConfigClockSource+0x15a>
 8006404:	e062      	b.n	80064cc <HAL_TIM_ConfigClockSource+0x16c>
 8006406:	687b      	ldr	r3, [r7, #4]
 8006408:	6818      	ldr	r0, [r3, #0]
 800640a:	683b      	ldr	r3, [r7, #0]
 800640c:	6899      	ldr	r1, [r3, #8]
 800640e:	683b      	ldr	r3, [r7, #0]
 8006410:	685a      	ldr	r2, [r3, #4]
 8006412:	683b      	ldr	r3, [r7, #0]
 8006414:	68db      	ldr	r3, [r3, #12]
 8006416:	f000 fb69 	bl	8006aec <TIM_ETR_SetConfig>
 800641a:	687b      	ldr	r3, [r7, #4]
 800641c:	681b      	ldr	r3, [r3, #0]
 800641e:	689b      	ldr	r3, [r3, #8]
 8006420:	60bb      	str	r3, [r7, #8]
 8006422:	68bb      	ldr	r3, [r7, #8]
 8006424:	f043 0377 	orr.w	r3, r3, #119	; 0x77
 8006428:	60bb      	str	r3, [r7, #8]
 800642a:	687b      	ldr	r3, [r7, #4]
 800642c:	681b      	ldr	r3, [r3, #0]
 800642e:	68ba      	ldr	r2, [r7, #8]
 8006430:	609a      	str	r2, [r3, #8]
 8006432:	e04f      	b.n	80064d4 <HAL_TIM_ConfigClockSource+0x174>
 8006434:	687b      	ldr	r3, [r7, #4]
 8006436:	6818      	ldr	r0, [r3, #0]
 8006438:	683b      	ldr	r3, [r7, #0]
 800643a:	6899      	ldr	r1, [r3, #8]
 800643c:	683b      	ldr	r3, [r7, #0]
 800643e:	685a      	ldr	r2, [r3, #4]
 8006440:	683b      	ldr	r3, [r7, #0]
 8006442:	68db      	ldr	r3, [r3, #12]
 8006444:	f000 fb52 	bl	8006aec <TIM_ETR_SetConfig>
 8006448:	687b      	ldr	r3, [r7, #4]
 800644a:	681b      	ldr	r3, [r3, #0]
 800644c:	689a      	ldr	r2, [r3, #8]
 800644e:	687b      	ldr	r3, [r7, #4]
 8006450:	681b      	ldr	r3, [r3, #0]
 8006452:	f442 4280 	orr.w	r2, r2, #16384	; 0x4000
 8006456:	609a      	str	r2, [r3, #8]
 8006458:	e03c      	b.n	80064d4 <HAL_TIM_ConfigClockSource+0x174>
 800645a:	687b      	ldr	r3, [r7, #4]
 800645c:	6818      	ldr	r0, [r3, #0]
 800645e:	683b      	ldr	r3, [r7, #0]
 8006460:	6859      	ldr	r1, [r3, #4]
 8006462:	683b      	ldr	r3, [r7, #0]
 8006464:	68db      	ldr	r3, [r3, #12]
 8006466:	461a      	mov	r2, r3
 8006468:	f000 fac6 	bl	80069f8 <TIM_TI1_ConfigInputStage>
 800646c:	687b      	ldr	r3, [r7, #4]
 800646e:	681b      	ldr	r3, [r3, #0]
 8006470:	2150      	movs	r1, #80	; 0x50
 8006472:	4618      	mov	r0, r3
 8006474:	f000 fb1f 	bl	8006ab6 <TIM_ITRx_SetConfig>
 8006478:	e02c      	b.n	80064d4 <HAL_TIM_ConfigClockSource+0x174>
 800647a:	687b      	ldr	r3, [r7, #4]
 800647c:	6818      	ldr	r0, [r3, #0]
 800647e:	683b      	ldr	r3, [r7, #0]
 8006480:	6859      	ldr	r1, [r3, #4]
 8006482:	683b      	ldr	r3, [r7, #0]
 8006484:	68db      	ldr	r3, [r3, #12]
 8006486:	461a      	mov	r2, r3
 8006488:	f000 fae5 	bl	8006a56 <TIM_TI2_ConfigInputStage>
 800648c:	687b      	ldr	r3, [r7, #4]
 800648e:	681b      	ldr	r3, [r3, #0]
 8006490:	2160      	movs	r1, #96	; 0x60
 8006492:	4618      	mov	r0, r3
 8006494:	f000 fb0f 	bl	8006ab6 <TIM_ITRx_SetConfig>
 8006498:	e01c      	b.n	80064d4 <HAL_TIM_ConfigClockSource+0x174>
 800649a:	687b      	ldr	r3, [r7, #4]
 800649c:	6818      	ldr	r0, [r3, #0]
 800649e:	683b      	ldr	r3, [r7, #0]
 80064a0:	6859      	ldr	r1, [r3, #4]
 80064a2:	683b      	ldr	r3, [r7, #0]
 80064a4:	68db      	ldr	r3, [r3, #12]
 80064a6:	461a      	mov	r2, r3
 80064a8:	f000 faa6 	bl	80069f8 <TIM_TI1_ConfigInputStage>
 80064ac:	687b      	ldr	r3, [r7, #4]
 80064ae:	681b      	ldr	r3, [r3, #0]
 80064b0:	2140      	movs	r1, #64	; 0x40
 80064b2:	4618      	mov	r0, r3
 80064b4:	f000 faff 	bl	8006ab6 <TIM_ITRx_SetConfig>
 80064b8:	e00c      	b.n	80064d4 <HAL_TIM_ConfigClockSource+0x174>
 80064ba:	687b      	ldr	r3, [r7, #4]
 80064bc:	681a      	ldr	r2, [r3, #0]
 80064be:	683b      	ldr	r3, [r7, #0]
 80064c0:	681b      	ldr	r3, [r3, #0]
 80064c2:	4619      	mov	r1, r3
 80064c4:	4610      	mov	r0, r2
 80064c6:	f000 faf6 	bl	8006ab6 <TIM_ITRx_SetConfig>
 80064ca:	e003      	b.n	80064d4 <HAL_TIM_ConfigClockSource+0x174>
 80064cc:	2301      	movs	r3, #1
 80064ce:	73fb      	strb	r3, [r7, #15]
 80064d0:	e000      	b.n	80064d4 <HAL_TIM_ConfigClockSource+0x174>
 80064d2:	bf00      	nop
 80064d4:	687b      	ldr	r3, [r7, #4]
 80064d6:	2201      	movs	r2, #1
 80064d8:	f883 203d 	strb.w	r2, [r3, #61]	; 0x3d
 80064dc:	687b      	ldr	r3, [r7, #4]
 80064de:	2200      	movs	r2, #0
 80064e0:	f883 203c 	strb.w	r2, [r3, #60]	; 0x3c
 80064e4:	7bfb      	ldrb	r3, [r7, #15]
 80064e6:	4618      	mov	r0, r3
 80064e8:	3710      	adds	r7, #16
 80064ea:	46bd      	mov	sp, r7
 80064ec:	bd80      	pop	{r7, pc}

080064ee <HAL_TIM_OC_DelayElapsedCallback>:
 80064ee:	b480      	push	{r7}
 80064f0:	b083      	sub	sp, #12
 80064f2:	af00      	add	r7, sp, #0
 80064f4:	6078      	str	r0, [r7, #4]
 80064f6:	bf00      	nop
 80064f8:	370c      	adds	r7, #12
 80064fa:	46bd      	mov	sp, r7
 80064fc:	f85d 7b04 	ldr.w	r7, [sp], #4
 8006500:	4770      	bx	lr

08006502 <HAL_TIM_IC_CaptureCallback>:
 8006502:	b480      	push	{r7}
 8006504:	b083      	sub	sp, #12
 8006506:	af00      	add	r7, sp, #0
 8006508:	6078      	str	r0, [r7, #4]
 800650a:	bf00      	nop
 800650c:	370c      	adds	r7, #12
 800650e:	46bd      	mov	sp, r7
 8006510:	f85d 7b04 	ldr.w	r7, [sp], #4
 8006514:	4770      	bx	lr

08006516 <HAL_TIM_PWM_PulseFinishedCallback>:
 8006516:	b480      	push	{r7}
 8006518:	b083      	sub	sp, #12
 800651a:	af00      	add	r7, sp, #0
 800651c:	6078      	str	r0, [r7, #4]
 800651e:	bf00      	nop
 8006520:	370c      	adds	r7, #12
 8006522:	46bd      	mov	sp, r7
 8006524:	f85d 7b04 	ldr.w	r7, [sp], #4
 8006528:	4770      	bx	lr

0800652a <HAL_TIM_TriggerCallback>:
 800652a:	b480      	push	{r7}
 800652c:	b083      	sub	sp, #12
 800652e:	af00      	add	r7, sp, #0
 8006530:	6078      	str	r0, [r7, #4]
 8006532:	bf00      	nop
 8006534:	370c      	adds	r7, #12
 8006536:	46bd      	mov	sp, r7
 8006538:	f85d 7b04 	ldr.w	r7, [sp], #4
 800653c:	4770      	bx	lr
	...

08006540 <TIM_Base_SetConfig>:
 8006540:	b480      	push	{r7}
 8006542:	b085      	sub	sp, #20
 8006544:	af00      	add	r7, sp, #0
 8006546:	6078      	str	r0, [r7, #4]
 8006548:	6039      	str	r1, [r7, #0]
 800654a:	687b      	ldr	r3, [r7, #4]
 800654c:	681b      	ldr	r3, [r3, #0]
 800654e:	60fb      	str	r3, [r7, #12]
 8006550:	687b      	ldr	r3, [r7, #4]
 8006552:	4a46      	ldr	r2, [pc, #280]	; (800666c <TIM_Base_SetConfig+0x12c>)
 8006554:	4293      	cmp	r3, r2
 8006556:	d013      	beq.n	8006580 <TIM_Base_SetConfig+0x40>
 8006558:	687b      	ldr	r3, [r7, #4]
 800655a:	f1b3 4f80 	cmp.w	r3, #1073741824	; 0x40000000
 800655e:	d00f      	beq.n	8006580 <TIM_Base_SetConfig+0x40>
 8006560:	687b      	ldr	r3, [r7, #4]
 8006562:	4a43      	ldr	r2, [pc, #268]	; (8006670 <TIM_Base_SetConfig+0x130>)
 8006564:	4293      	cmp	r3, r2
 8006566:	d00b      	beq.n	8006580 <TIM_Base_SetConfig+0x40>
 8006568:	687b      	ldr	r3, [r7, #4]
 800656a:	4a42      	ldr	r2, [pc, #264]	; (8006674 <TIM_Base_SetConfig+0x134>)
 800656c:	4293      	cmp	r3, r2
 800656e:	d007      	beq.n	8006580 <TIM_Base_SetConfig+0x40>
 8006570:	687b      	ldr	r3, [r7, #4]
 8006572:	4a41      	ldr	r2, [pc, #260]	; (8006678 <TIM_Base_SetConfig+0x138>)
 8006574:	4293      	cmp	r3, r2
 8006576:	d003      	beq.n	8006580 <TIM_Base_SetConfig+0x40>
 8006578:	687b      	ldr	r3, [r7, #4]
 800657a:	4a40      	ldr	r2, [pc, #256]	; (800667c <TIM_Base_SetConfig+0x13c>)
 800657c:	4293      	cmp	r3, r2
 800657e:	d108      	bne.n	8006592 <TIM_Base_SetConfig+0x52>
 8006580:	68fb      	ldr	r3, [r7, #12]
 8006582:	f023 0370 	bic.w	r3, r3, #112	; 0x70
 8006586:	60fb      	str	r3, [r7, #12]
 8006588:	683b      	ldr	r3, [r7, #0]
 800658a:	685b      	ldr	r3, [r3, #4]
 800658c:	68fa      	ldr	r2, [r7, #12]
 800658e:	4313      	orrs	r3, r2
 8006590:	60fb      	str	r3, [r7, #12]
 8006592:	687b      	ldr	r3, [r7, #4]
 8006594:	4a35      	ldr	r2, [pc, #212]	; (800666c <TIM_Base_SetConfig+0x12c>)
 8006596:	4293      	cmp	r3, r2
 8006598:	d02b      	beq.n	80065f2 <TIM_Base_SetConfig+0xb2>
 800659a:	687b      	ldr	r3, [r7, #4]
 800659c:	f1b3 4f80 	cmp.w	r3, #1073741824	; 0x40000000
 80065a0:	d027      	beq.n	80065f2 <TIM_Base_SetConfig+0xb2>
 80065a2:	687b      	ldr	r3, [r7, #4]
 80065a4:	4a32      	ldr	r2, [pc, #200]	; (8006670 <TIM_Base_SetConfig+0x130>)
 80065a6:	4293      	cmp	r3, r2
 80065a8:	d023      	beq.n	80065f2 <TIM_Base_SetConfig+0xb2>
 80065aa:	687b      	ldr	r3, [r7, #4]
 80065ac:	4a31      	ldr	r2, [pc, #196]	; (8006674 <TIM_Base_SetConfig+0x134>)
 80065ae:	4293      	cmp	r3, r2
 80065b0:	d01f      	beq.n	80065f2 <TIM_Base_SetConfig+0xb2>
 80065b2:	687b      	ldr	r3, [r7, #4]
 80065b4:	4a30      	ldr	r2, [pc, #192]	; (8006678 <TIM_Base_SetConfig+0x138>)
 80065b6:	4293      	cmp	r3, r2
 80065b8:	d01b      	beq.n	80065f2 <TIM_Base_SetConfig+0xb2>
 80065ba:	687b      	ldr	r3, [r7, #4]
 80065bc:	4a2f      	ldr	r2, [pc, #188]	; (800667c <TIM_Base_SetConfig+0x13c>)
 80065be:	4293      	cmp	r3, r2
 80065c0:	d017      	beq.n	80065f2 <TIM_Base_SetConfig+0xb2>
 80065c2:	687b      	ldr	r3, [r7, #4]
 80065c4:	4a2e      	ldr	r2, [pc, #184]	; (8006680 <TIM_Base_SetConfig+0x140>)
 80065c6:	4293      	cmp	r3, r2
 80065c8:	d013      	beq.n	80065f2 <TIM_Base_SetConfig+0xb2>
 80065ca:	687b      	ldr	r3, [r7, #4]
 80065cc:	4a2d      	ldr	r2, [pc, #180]	; (8006684 <TIM_Base_SetConfig+0x144>)
 80065ce:	4293      	cmp	r3, r2
 80065d0:	d00f      	beq.n	80065f2 <TIM_Base_SetConfig+0xb2>
 80065d2:	687b      	ldr	r3, [r7, #4]
 80065d4:	4a2c      	ldr	r2, [pc, #176]	; (8006688 <TIM_Base_SetConfig+0x148>)
 80065d6:	4293      	cmp	r3, r2
 80065d8:	d00b      	beq.n	80065f2 <TIM_Base_SetConfig+0xb2>
 80065da:	687b      	ldr	r3, [r7, #4]
 80065dc:	4a2b      	ldr	r2, [pc, #172]	; (800668c <TIM_Base_SetConfig+0x14c>)
 80065de:	4293      	cmp	r3, r2
 80065e0:	d007      	beq.n	80065f2 <TIM_Base_SetConfig+0xb2>
 80065e2:	687b      	ldr	r3, [r7, #4]
 80065e4:	4a2a      	ldr	r2, [pc, #168]	; (8006690 <TIM_Base_SetConfig+0x150>)
 80065e6:	4293      	cmp	r3, r2
 80065e8:	d003      	beq.n	80065f2 <TIM_Base_SetConfig+0xb2>
 80065ea:	687b      	ldr	r3, [r7, #4]
 80065ec:	4a29      	ldr	r2, [pc, #164]	; (8006694 <TIM_Base_SetConfig+0x154>)
 80065ee:	4293      	cmp	r3, r2
 80065f0:	d108      	bne.n	8006604 <TIM_Base_SetConfig+0xc4>
 80065f2:	68fb      	ldr	r3, [r7, #12]
 80065f4:	f423 7340 	bic.w	r3, r3, #768	; 0x300
 80065f8:	60fb      	str	r3, [r7, #12]
 80065fa:	683b      	ldr	r3, [r7, #0]
 80065fc:	68db      	ldr	r3, [r3, #12]
 80065fe:	68fa      	ldr	r2, [r7, #12]
 8006600:	4313      	orrs	r3, r2
 8006602:	60fb      	str	r3, [r7, #12]
 8006604:	68fb      	ldr	r3, [r7, #12]
 8006606:	f023 0280 	bic.w	r2, r3, #128	; 0x80
 800660a:	683b      	ldr	r3, [r7, #0]
 800660c:	695b      	ldr	r3, [r3, #20]
 800660e:	4313      	orrs	r3, r2
 8006610:	60fb      	str	r3, [r7, #12]
 8006612:	687b      	ldr	r3, [r7, #4]
 8006614:	68fa      	ldr	r2, [r7, #12]
 8006616:	601a      	str	r2, [r3, #0]
 8006618:	683b      	ldr	r3, [r7, #0]
 800661a:	689a      	ldr	r2, [r3, #8]
 800661c:	687b      	ldr	r3, [r7, #4]
 800661e:	62da      	str	r2, [r3, #44]	; 0x2c
 8006620:	683b      	ldr	r3, [r7, #0]
 8006622:	681a      	ldr	r2, [r3, #0]
 8006624:	687b      	ldr	r3, [r7, #4]
 8006626:	629a      	str	r2, [r3, #40]	; 0x28
 8006628:	687b      	ldr	r3, [r7, #4]
 800662a:	4a10      	ldr	r2, [pc, #64]	; (800666c <TIM_Base_SetConfig+0x12c>)
 800662c:	4293      	cmp	r3, r2
 800662e:	d003      	beq.n	8006638 <TIM_Base_SetConfig+0xf8>
 8006630:	687b      	ldr	r3, [r7, #4]
 8006632:	4a12      	ldr	r2, [pc, #72]	; (800667c <TIM_Base_SetConfig+0x13c>)
 8006634:	4293      	cmp	r3, r2
 8006636:	d103      	bne.n	8006640 <TIM_Base_SetConfig+0x100>
 8006638:	683b      	ldr	r3, [r7, #0]
 800663a:	691a      	ldr	r2, [r3, #16]
 800663c:	687b      	ldr	r3, [r7, #4]
 800663e:	631a      	str	r2, [r3, #48]	; 0x30
 8006640:	687b      	ldr	r3, [r7, #4]
 8006642:	2201      	movs	r2, #1
 8006644:	615a      	str	r2, [r3, #20]
 8006646:	687b      	ldr	r3, [r7, #4]
 8006648:	691b      	ldr	r3, [r3, #16]
 800664a:	f003 0301 	and.w	r3, r3, #1
 800664e:	2b01      	cmp	r3, #1
 8006650:	d105      	bne.n	800665e <TIM_Base_SetConfig+0x11e>
 8006652:	687b      	ldr	r3, [r7, #4]
 8006654:	691b      	ldr	r3, [r3, #16]
 8006656:	f023 0201 	bic.w	r2, r3, #1
 800665a:	687b      	ldr	r3, [r7, #4]
 800665c:	611a      	str	r2, [r3, #16]
 800665e:	bf00      	nop
 8006660:	3714      	adds	r7, #20
 8006662:	46bd      	mov	sp, r7
 8006664:	f85d 7b04 	ldr.w	r7, [sp], #4
 8006668:	4770      	bx	lr
 800666a:	bf00      	nop
 800666c:	40010000 	.word	0x40010000
 8006670:	40000400 	.word	0x40000400
 8006674:	40000800 	.word	0x40000800
 8006678:	40000c00 	.word	0x40000c00
 800667c:	40010400 	.word	0x40010400
 8006680:	40014000 	.word	0x40014000
 8006684:	40014400 	.word	0x40014400
 8006688:	40014800 	.word	0x40014800
 800668c:	40001800 	.word	0x40001800
 8006690:	40001c00 	.word	0x40001c00
 8006694:	40002000 	.word	0x40002000

08006698 <TIM_OC1_SetConfig>:
 8006698:	b480      	push	{r7}
 800669a:	b087      	sub	sp, #28
 800669c:	af00      	add	r7, sp, #0
 800669e:	6078      	str	r0, [r7, #4]
 80066a0:	6039      	str	r1, [r7, #0]
 80066a2:	687b      	ldr	r3, [r7, #4]
 80066a4:	6a1b      	ldr	r3, [r3, #32]
 80066a6:	617b      	str	r3, [r7, #20]
 80066a8:	687b      	ldr	r3, [r7, #4]
 80066aa:	6a1b      	ldr	r3, [r3, #32]
 80066ac:	f023 0201 	bic.w	r2, r3, #1
 80066b0:	687b      	ldr	r3, [r7, #4]
 80066b2:	621a      	str	r2, [r3, #32]
 80066b4:	687b      	ldr	r3, [r7, #4]
 80066b6:	685b      	ldr	r3, [r3, #4]
 80066b8:	613b      	str	r3, [r7, #16]
 80066ba:	687b      	ldr	r3, [r7, #4]
 80066bc:	699b      	ldr	r3, [r3, #24]
 80066be:	60fb      	str	r3, [r7, #12]
 80066c0:	68fb      	ldr	r3, [r7, #12]
 80066c2:	f023 0370 	bic.w	r3, r3, #112	; 0x70
 80066c6:	60fb      	str	r3, [r7, #12]
 80066c8:	68fb      	ldr	r3, [r7, #12]
 80066ca:	f023 0303 	bic.w	r3, r3, #3
 80066ce:	60fb      	str	r3, [r7, #12]
 80066d0:	683b      	ldr	r3, [r7, #0]
 80066d2:	681b      	ldr	r3, [r3, #0]
 80066d4:	68fa      	ldr	r2, [r7, #12]
 80066d6:	4313      	orrs	r3, r2
 80066d8:	60fb      	str	r3, [r7, #12]
 80066da:	697b      	ldr	r3, [r7, #20]
 80066dc:	f023 0302 	bic.w	r3, r3, #2
 80066e0:	617b      	str	r3, [r7, #20]
 80066e2:	683b      	ldr	r3, [r7, #0]
 80066e4:	689b      	ldr	r3, [r3, #8]
 80066e6:	697a      	ldr	r2, [r7, #20]
 80066e8:	4313      	orrs	r3, r2
 80066ea:	617b      	str	r3, [r7, #20]
 80066ec:	687b      	ldr	r3, [r7, #4]
 80066ee:	4a20      	ldr	r2, [pc, #128]	; (8006770 <TIM_OC1_SetConfig+0xd8>)
 80066f0:	4293      	cmp	r3, r2
 80066f2:	d003      	beq.n	80066fc <TIM_OC1_SetConfig+0x64>
 80066f4:	687b      	ldr	r3, [r7, #4]
 80066f6:	4a1f      	ldr	r2, [pc, #124]	; (8006774 <TIM_OC1_SetConfig+0xdc>)
 80066f8:	4293      	cmp	r3, r2
 80066fa:	d10c      	bne.n	8006716 <TIM_OC1_SetConfig+0x7e>
 80066fc:	697b      	ldr	r3, [r7, #20]
 80066fe:	f023 0308 	bic.w	r3, r3, #8
 8006702:	617b      	str	r3, [r7, #20]
 8006704:	683b      	ldr	r3, [r7, #0]
 8006706:	68db      	ldr	r3, [r3, #12]
 8006708:	697a      	ldr	r2, [r7, #20]
 800670a:	4313      	orrs	r3, r2
 800670c:	617b      	str	r3, [r7, #20]
 800670e:	697b      	ldr	r3, [r7, #20]
 8006710:	f023 0304 	bic.w	r3, r3, #4
 8006714:	617b      	str	r3, [r7, #20]
 8006716:	687b      	ldr	r3, [r7, #4]
 8006718:	4a15      	ldr	r2, [pc, #84]	; (8006770 <TIM_OC1_SetConfig+0xd8>)
 800671a:	4293      	cmp	r3, r2
 800671c:	d003      	beq.n	8006726 <TIM_OC1_SetConfig+0x8e>
 800671e:	687b      	ldr	r3, [r7, #4]
 8006720:	4a14      	ldr	r2, [pc, #80]	; (8006774 <TIM_OC1_SetConfig+0xdc>)
 8006722:	4293      	cmp	r3, r2
 8006724:	d111      	bne.n	800674a <TIM_OC1_SetConfig+0xb2>
 8006726:	693b      	ldr	r3, [r7, #16]
 8006728:	f423 7380 	bic.w	r3, r3, #256	; 0x100
 800672c:	613b      	str	r3, [r7, #16]
 800672e:	693b      	ldr	r3, [r7, #16]
 8006730:	f423 7300 	bic.w	r3, r3, #512	; 0x200
 8006734:	613b      	str	r3, [r7, #16]
 8006736:	683b      	ldr	r3, [r7, #0]
 8006738:	695b      	ldr	r3, [r3, #20]
 800673a:	693a      	ldr	r2, [r7, #16]
 800673c:	4313      	orrs	r3, r2
 800673e:	613b      	str	r3, [r7, #16]
 8006740:	683b      	ldr	r3, [r7, #0]
 8006742:	699b      	ldr	r3, [r3, #24]
 8006744:	693a      	ldr	r2, [r7, #16]
 8006746:	4313      	orrs	r3, r2
 8006748:	613b      	str	r3, [r7, #16]
 800674a:	687b      	ldr	r3, [r7, #4]
 800674c:	693a      	ldr	r2, [r7, #16]
 800674e:	605a      	str	r2, [r3, #4]
 8006750:	687b      	ldr	r3, [r7, #4]
 8006752:	68fa      	ldr	r2, [r7, #12]
 8006754:	619a      	str	r2, [r3, #24]
 8006756:	683b      	ldr	r3, [r7, #0]
 8006758:	685a      	ldr	r2, [r3, #4]
 800675a:	687b      	ldr	r3, [r7, #4]
 800675c:	635a      	str	r2, [r3, #52]	; 0x34
 800675e:	687b      	ldr	r3, [r7, #4]
 8006760:	697a      	ldr	r2, [r7, #20]
 8006762:	621a      	str	r2, [r3, #32]
 8006764:	bf00      	nop
 8006766:	371c      	adds	r7, #28
 8006768:	46bd      	mov	sp, r7
 800676a:	f85d 7b04 	ldr.w	r7, [sp], #4
 800676e:	4770      	bx	lr
 8006770:	40010000 	.word	0x40010000
 8006774:	40010400 	.word	0x40010400

08006778 <TIM_OC2_SetConfig>:
 8006778:	b480      	push	{r7}
 800677a:	b087      	sub	sp, #28
 800677c:	af00      	add	r7, sp, #0
 800677e:	6078      	str	r0, [r7, #4]
 8006780:	6039      	str	r1, [r7, #0]
 8006782:	687b      	ldr	r3, [r7, #4]
 8006784:	6a1b      	ldr	r3, [r3, #32]
 8006786:	617b      	str	r3, [r7, #20]
 8006788:	687b      	ldr	r3, [r7, #4]
 800678a:	6a1b      	ldr	r3, [r3, #32]
 800678c:	f023 0210 	bic.w	r2, r3, #16
 8006790:	687b      	ldr	r3, [r7, #4]
 8006792:	621a      	str	r2, [r3, #32]
 8006794:	687b      	ldr	r3, [r7, #4]
 8006796:	685b      	ldr	r3, [r3, #4]
 8006798:	613b      	str	r3, [r7, #16]
 800679a:	687b      	ldr	r3, [r7, #4]
 800679c:	699b      	ldr	r3, [r3, #24]
 800679e:	60fb      	str	r3, [r7, #12]
 80067a0:	68fb      	ldr	r3, [r7, #12]
 80067a2:	f423 43e0 	bic.w	r3, r3, #28672	; 0x7000
 80067a6:	60fb      	str	r3, [r7, #12]
 80067a8:	68fb      	ldr	r3, [r7, #12]
 80067aa:	f423 7340 	bic.w	r3, r3, #768	; 0x300
 80067ae:	60fb      	str	r3, [r7, #12]
 80067b0:	683b      	ldr	r3, [r7, #0]
 80067b2:	681b      	ldr	r3, [r3, #0]
 80067b4:	021b      	lsls	r3, r3, #8
 80067b6:	68fa      	ldr	r2, [r7, #12]
 80067b8:	4313      	orrs	r3, r2
 80067ba:	60fb      	str	r3, [r7, #12]
 80067bc:	697b      	ldr	r3, [r7, #20]
 80067be:	f023 0320 	bic.w	r3, r3, #32
 80067c2:	617b      	str	r3, [r7, #20]
 80067c4:	683b      	ldr	r3, [r7, #0]
 80067c6:	689b      	ldr	r3, [r3, #8]
 80067c8:	011b      	lsls	r3, r3, #4
 80067ca:	697a      	ldr	r2, [r7, #20]
 80067cc:	4313      	orrs	r3, r2
 80067ce:	617b      	str	r3, [r7, #20]
 80067d0:	687b      	ldr	r3, [r7, #4]
 80067d2:	4a22      	ldr	r2, [pc, #136]	; (800685c <TIM_OC2_SetConfig+0xe4>)
 80067d4:	4293      	cmp	r3, r2
 80067d6:	d003      	beq.n	80067e0 <TIM_OC2_SetConfig+0x68>
 80067d8:	687b      	ldr	r3, [r7, #4]
 80067da:	4a21      	ldr	r2, [pc, #132]	; (8006860 <TIM_OC2_SetConfig+0xe8>)
 80067dc:	4293      	cmp	r3, r2
 80067de:	d10d      	bne.n	80067fc <TIM_OC2_SetConfig+0x84>
 80067e0:	697b      	ldr	r3, [r7, #20]
 80067e2:	f023 0380 	bic.w	r3, r3, #128	; 0x80
 80067e6:	617b      	str	r3, [r7, #20]
 80067e8:	683b      	ldr	r3, [r7, #0]
 80067ea:	68db      	ldr	r3, [r3, #12]
 80067ec:	011b      	lsls	r3, r3, #4
 80067ee:	697a      	ldr	r2, [r7, #20]
 80067f0:	4313      	orrs	r3, r2
 80067f2:	617b      	str	r3, [r7, #20]
 80067f4:	697b      	ldr	r3, [r7, #20]
 80067f6:	f023 0340 	bic.w	r3, r3, #64	; 0x40
 80067fa:	617b      	str	r3, [r7, #20]
 80067fc:	687b      	ldr	r3, [r7, #4]
 80067fe:	4a17      	ldr	r2, [pc, #92]	; (800685c <TIM_OC2_SetConfig+0xe4>)
 8006800:	4293      	cmp	r3, r2
 8006802:	d003      	beq.n	800680c <TIM_OC2_SetConfig+0x94>
 8006804:	687b      	ldr	r3, [r7, #4]
 8006806:	4a16      	ldr	r2, [pc, #88]	; (8006860 <TIM_OC2_SetConfig+0xe8>)
 8006808:	4293      	cmp	r3, r2
 800680a:	d113      	bne.n	8006834 <TIM_OC2_SetConfig+0xbc>
 800680c:	693b      	ldr	r3, [r7, #16]
 800680e:	f423 6380 	bic.w	r3, r3, #1024	; 0x400
 8006812:	613b      	str	r3, [r7, #16]
 8006814:	693b      	ldr	r3, [r7, #16]
 8006816:	f423 6300 	bic.w	r3, r3, #2048	; 0x800
 800681a:	613b      	str	r3, [r7, #16]
 800681c:	683b      	ldr	r3, [r7, #0]
 800681e:	695b      	ldr	r3, [r3, #20]
 8006820:	009b      	lsls	r3, r3, #2
 8006822:	693a      	ldr	r2, [r7, #16]
 8006824:	4313      	orrs	r3, r2
 8006826:	613b      	str	r3, [r7, #16]
 8006828:	683b      	ldr	r3, [r7, #0]
 800682a:	699b      	ldr	r3, [r3, #24]
 800682c:	009b      	lsls	r3, r3, #2
 800682e:	693a      	ldr	r2, [r7, #16]
 8006830:	4313      	orrs	r3, r2
 8006832:	613b      	str	r3, [r7, #16]
 8006834:	687b      	ldr	r3, [r7, #4]
 8006836:	693a      	ldr	r2, [r7, #16]
 8006838:	605a      	str	r2, [r3, #4]
 800683a:	687b      	ldr	r3, [r7, #4]
 800683c:	68fa      	ldr	r2, [r7, #12]
 800683e:	619a      	str	r2, [r3, #24]
 8006840:	683b      	ldr	r3, [r7, #0]
 8006842:	685a      	ldr	r2, [r3, #4]
 8006844:	687b      	ldr	r3, [r7, #4]
 8006846:	639a      	str	r2, [r3, #56]	; 0x38
 8006848:	687b      	ldr	r3, [r7, #4]
 800684a:	697a      	ldr	r2, [r7, #20]
 800684c:	621a      	str	r2, [r3, #32]
 800684e:	bf00      	nop
 8006850:	371c      	adds	r7, #28
 8006852:	46bd      	mov	sp, r7
 8006854:	f85d 7b04 	ldr.w	r7, [sp], #4
 8006858:	4770      	bx	lr
 800685a:	bf00      	nop
 800685c:	40010000 	.word	0x40010000
 8006860:	40010400 	.word	0x40010400

08006864 <TIM_OC3_SetConfig>:
 8006864:	b480      	push	{r7}
 8006866:	b087      	sub	sp, #28
 8006868:	af00      	add	r7, sp, #0
 800686a:	6078      	str	r0, [r7, #4]
 800686c:	6039      	str	r1, [r7, #0]
 800686e:	687b      	ldr	r3, [r7, #4]
 8006870:	6a1b      	ldr	r3, [r3, #32]
 8006872:	617b      	str	r3, [r7, #20]
 8006874:	687b      	ldr	r3, [r7, #4]
 8006876:	6a1b      	ldr	r3, [r3, #32]
 8006878:	f423 7280 	bic.w	r2, r3, #256	; 0x100
 800687c:	687b      	ldr	r3, [r7, #4]
 800687e:	621a      	str	r2, [r3, #32]
 8006880:	687b      	ldr	r3, [r7, #4]
 8006882:	685b      	ldr	r3, [r3, #4]
 8006884:	613b      	str	r3, [r7, #16]
 8006886:	687b      	ldr	r3, [r7, #4]
 8006888:	69db      	ldr	r3, [r3, #28]
 800688a:	60fb      	str	r3, [r7, #12]
 800688c:	68fb      	ldr	r3, [r7, #12]
 800688e:	f023 0370 	bic.w	r3, r3, #112	; 0x70
 8006892:	60fb      	str	r3, [r7, #12]
 8006894:	68fb      	ldr	r3, [r7, #12]
 8006896:	f023 0303 	bic.w	r3, r3, #3
 800689a:	60fb      	str	r3, [r7, #12]
 800689c:	683b      	ldr	r3, [r7, #0]
 800689e:	681b      	ldr	r3, [r3, #0]
 80068a0:	68fa      	ldr	r2, [r7, #12]
 80068a2:	4313      	orrs	r3, r2
 80068a4:	60fb      	str	r3, [r7, #12]
 80068a6:	697b      	ldr	r3, [r7, #20]
 80068a8:	f423 7300 	bic.w	r3, r3, #512	; 0x200
 80068ac:	617b      	str	r3, [r7, #20]
 80068ae:	683b      	ldr	r3, [r7, #0]
 80068b0:	689b      	ldr	r3, [r3, #8]
 80068b2:	021b      	lsls	r3, r3, #8
 80068b4:	697a      	ldr	r2, [r7, #20]
 80068b6:	4313      	orrs	r3, r2
 80068b8:	617b      	str	r3, [r7, #20]
 80068ba:	687b      	ldr	r3, [r7, #4]
 80068bc:	4a21      	ldr	r2, [pc, #132]	; (8006944 <TIM_OC3_SetConfig+0xe0>)
 80068be:	4293      	cmp	r3, r2
 80068c0:	d003      	beq.n	80068ca <TIM_OC3_SetConfig+0x66>
 80068c2:	687b      	ldr	r3, [r7, #4]
 80068c4:	4a20      	ldr	r2, [pc, #128]	; (8006948 <TIM_OC3_SetConfig+0xe4>)
 80068c6:	4293      	cmp	r3, r2
 80068c8:	d10d      	bne.n	80068e6 <TIM_OC3_SetConfig+0x82>
 80068ca:	697b      	ldr	r3, [r7, #20]
 80068cc:	f423 6300 	bic.w	r3, r3, #2048	; 0x800
 80068d0:	617b      	str	r3, [r7, #20]
 80068d2:	683b      	ldr	r3, [r7, #0]
 80068d4:	68db      	ldr	r3, [r3, #12]
 80068d6:	021b      	lsls	r3, r3, #8
 80068d8:	697a      	ldr	r2, [r7, #20]
 80068da:	4313      	orrs	r3, r2
 80068dc:	617b      	str	r3, [r7, #20]
 80068de:	697b      	ldr	r3, [r7, #20]
 80068e0:	f423 6380 	bic.w	r3, r3, #1024	; 0x400
 80068e4:	617b      	str	r3, [r7, #20]
 80068e6:	687b      	ldr	r3, [r7, #4]
 80068e8:	4a16      	ldr	r2, [pc, #88]	; (8006944 <TIM_OC3_SetConfig+0xe0>)
 80068ea:	4293      	cmp	r3, r2
 80068ec:	d003      	beq.n	80068f6 <TIM_OC3_SetConfig+0x92>
 80068ee:	687b      	ldr	r3, [r7, #4]
 80068f0:	4a15      	ldr	r2, [pc, #84]	; (8006948 <TIM_OC3_SetConfig+0xe4>)
 80068f2:	4293      	cmp	r3, r2
 80068f4:	d113      	bne.n	800691e <TIM_OC3_SetConfig+0xba>
 80068f6:	693b      	ldr	r3, [r7, #16]
 80068f8:	f423 5380 	bic.w	r3, r3, #4096	; 0x1000
 80068fc:	613b      	str	r3, [r7, #16]
 80068fe:	693b      	ldr	r3, [r7, #16]
 8006900:	f423 5300 	bic.w	r3, r3, #8192	; 0x2000
 8006904:	613b      	str	r3, [r7, #16]
 8006906:	683b      	ldr	r3, [r7, #0]
 8006908:	695b      	ldr	r3, [r3, #20]
 800690a:	011b      	lsls	r3, r3, #4
 800690c:	693a      	ldr	r2, [r7, #16]
 800690e:	4313      	orrs	r3, r2
 8006910:	613b      	str	r3, [r7, #16]
 8006912:	683b      	ldr	r3, [r7, #0]
 8006914:	699b      	ldr	r3, [r3, #24]
 8006916:	011b      	lsls	r3, r3, #4
 8006918:	693a      	ldr	r2, [r7, #16]
 800691a:	4313      	orrs	r3, r2
 800691c:	613b      	str	r3, [r7, #16]
 800691e:	687b      	ldr	r3, [r7, #4]
 8006920:	693a      	ldr	r2, [r7, #16]
 8006922:	605a      	str	r2, [r3, #4]
 8006924:	687b      	ldr	r3, [r7, #4]
 8006926:	68fa      	ldr	r2, [r7, #12]
 8006928:	61da      	str	r2, [r3, #28]
 800692a:	683b      	ldr	r3, [r7, #0]
 800692c:	685a      	ldr	r2, [r3, #4]
 800692e:	687b      	ldr	r3, [r7, #4]
 8006930:	63da      	str	r2, [r3, #60]	; 0x3c
 8006932:	687b      	ldr	r3, [r7, #4]
 8006934:	697a      	ldr	r2, [r7, #20]
 8006936:	621a      	str	r2, [r3, #32]
 8006938:	bf00      	nop
 800693a:	371c      	adds	r7, #28
 800693c:	46bd      	mov	sp, r7
 800693e:	f85d 7b04 	ldr.w	r7, [sp], #4
 8006942:	4770      	bx	lr
 8006944:	40010000 	.word	0x40010000
 8006948:	40010400 	.word	0x40010400

0800694c <TIM_OC4_SetConfig>:
 800694c:	b480      	push	{r7}
 800694e:	b087      	sub	sp, #28
 8006950:	af00      	add	r7, sp, #0
 8006952:	6078      	str	r0, [r7, #4]
 8006954:	6039      	str	r1, [r7, #0]
 8006956:	687b      	ldr	r3, [r7, #4]
 8006958:	6a1b      	ldr	r3, [r3, #32]
 800695a:	613b      	str	r3, [r7, #16]
 800695c:	687b      	ldr	r3, [r7, #4]
 800695e:	6a1b      	ldr	r3, [r3, #32]
 8006960:	f423 5280 	bic.w	r2, r3, #4096	; 0x1000
 8006964:	687b      	ldr	r3, [r7, #4]
 8006966:	621a      	str	r2, [r3, #32]
 8006968:	687b      	ldr	r3, [r7, #4]
 800696a:	685b      	ldr	r3, [r3, #4]
 800696c:	617b      	str	r3, [r7, #20]
 800696e:	687b      	ldr	r3, [r7, #4]
 8006970:	69db      	ldr	r3, [r3, #28]
 8006972:	60fb      	str	r3, [r7, #12]
 8006974:	68fb      	ldr	r3, [r7, #12]
 8006976:	f423 43e0 	bic.w	r3, r3, #28672	; 0x7000
 800697a:	60fb      	str	r3, [r7, #12]
 800697c:	68fb      	ldr	r3, [r7, #12]
 800697e:	f423 7340 	bic.w	r3, r3, #768	; 0x300
 8006982:	60fb      	str	r3, [r7, #12]
 8006984:	683b      	ldr	r3, [r7, #0]
 8006986:	681b      	ldr	r3, [r3, #0]
 8006988:	021b      	lsls	r3, r3, #8
 800698a:	68fa      	ldr	r2, [r7, #12]
 800698c:	4313      	orrs	r3, r2
 800698e:	60fb      	str	r3, [r7, #12]
 8006990:	693b      	ldr	r3, [r7, #16]
 8006992:	f423 5300 	bic.w	r3, r3, #8192	; 0x2000
 8006996:	613b      	str	r3, [r7, #16]
 8006998:	683b      	ldr	r3, [r7, #0]
 800699a:	689b      	ldr	r3, [r3, #8]
 800699c:	031b      	lsls	r3, r3, #12
 800699e:	693a      	ldr	r2, [r7, #16]
 80069a0:	4313      	orrs	r3, r2
 80069a2:	613b      	str	r3, [r7, #16]
 80069a4:	687b      	ldr	r3, [r7, #4]
 80069a6:	4a12      	ldr	r2, [pc, #72]	; (80069f0 <TIM_OC4_SetConfig+0xa4>)
 80069a8:	4293      	cmp	r3, r2
 80069aa:	d003      	beq.n	80069b4 <TIM_OC4_SetConfig+0x68>
 80069ac:	687b      	ldr	r3, [r7, #4]
 80069ae:	4a11      	ldr	r2, [pc, #68]	; (80069f4 <TIM_OC4_SetConfig+0xa8>)
 80069b0:	4293      	cmp	r3, r2
 80069b2:	d109      	bne.n	80069c8 <TIM_OC4_SetConfig+0x7c>
 80069b4:	697b      	ldr	r3, [r7, #20]
 80069b6:	f423 4380 	bic.w	r3, r3, #16384	; 0x4000
 80069ba:	617b      	str	r3, [r7, #20]
 80069bc:	683b      	ldr	r3, [r7, #0]
 80069be:	695b      	ldr	r3, [r3, #20]
 80069c0:	019b      	lsls	r3, r3, #6
 80069c2:	697a      	ldr	r2, [r7, #20]
 80069c4:	4313      	orrs	r3, r2
 80069c6:	617b      	str	r3, [r7, #20]
 80069c8:	687b      	ldr	r3, [r7, #4]
 80069ca:	697a      	ldr	r2, [r7, #20]
 80069cc:	605a      	str	r2, [r3, #4]
 80069ce:	687b      	ldr	r3, [r7, #4]
 80069d0:	68fa      	ldr	r2, [r7, #12]
 80069d2:	61da      	str	r2, [r3, #28]
 80069d4:	683b      	ldr	r3, [r7, #0]
 80069d6:	685a      	ldr	r2, [r3, #4]
 80069d8:	687b      	ldr	r3, [r7, #4]
 80069da:	641a      	str	r2, [r3, #64]	; 0x40
 80069dc:	687b      	ldr	r3, [r7, #4]
 80069de:	693a      	ldr	r2, [r7, #16]
 80069e0:	621a      	str	r2, [r3, #32]
 80069e2:	bf00      	nop
 80069e4:	371c      	adds	r7, #28
 80069e6:	46bd      	mov	sp, r7
 80069e8:	f85d 7b04 	ldr.w	r7, [sp], #4
 80069ec:	4770      	bx	lr
 80069ee:	bf00      	nop
 80069f0:	40010000 	.word	0x40010000
 80069f4:	40010400 	.word	0x40010400

080069f8 <TIM_TI1_ConfigInputStage>:
 80069f8:	b480      	push	{r7}
 80069fa:	b087      	sub	sp, #28
 80069fc:	af00      	add	r7, sp, #0
 80069fe:	60f8      	str	r0, [r7, #12]
 8006a00:	60b9      	str	r1, [r7, #8]
 8006a02:	607a      	str	r2, [r7, #4]
 8006a04:	68fb      	ldr	r3, [r7, #12]
 8006a06:	6a1b      	ldr	r3, [r3, #32]
 8006a08:	617b      	str	r3, [r7, #20]
 8006a0a:	68fb      	ldr	r3, [r7, #12]
 8006a0c:	6a1b      	ldr	r3, [r3, #32]
 8006a0e:	f023 0201 	bic.w	r2, r3, #1
 8006a12:	68fb      	ldr	r3, [r7, #12]
 8006a14:	621a      	str	r2, [r3, #32]
 8006a16:	68fb      	ldr	r3, [r7, #12]
 8006a18:	699b      	ldr	r3, [r3, #24]
 8006a1a:	613b      	str	r3, [r7, #16]
 8006a1c:	693b      	ldr	r3, [r7, #16]
 8006a1e:	f023 03f0 	bic.w	r3, r3, #240	; 0xf0
 8006a22:	613b      	str	r3, [r7, #16]
 8006a24:	687b      	ldr	r3, [r7, #4]
 8006a26:	011b      	lsls	r3, r3, #4
 8006a28:	693a      	ldr	r2, [r7, #16]
 8006a2a:	4313      	orrs	r3, r2
 8006a2c:	613b      	str	r3, [r7, #16]
 8006a2e:	697b      	ldr	r3, [r7, #20]
 8006a30:	f023 030a 	bic.w	r3, r3, #10
 8006a34:	617b      	str	r3, [r7, #20]
 8006a36:	697a      	ldr	r2, [r7, #20]
 8006a38:	68bb      	ldr	r3, [r7, #8]
 8006a3a:	4313      	orrs	r3, r2
 8006a3c:	617b      	str	r3, [r7, #20]
 8006a3e:	68fb      	ldr	r3, [r7, #12]
 8006a40:	693a      	ldr	r2, [r7, #16]
 8006a42:	619a      	str	r2, [r3, #24]
 8006a44:	68fb      	ldr	r3, [r7, #12]
 8006a46:	697a      	ldr	r2, [r7, #20]
 8006a48:	621a      	str	r2, [r3, #32]
 8006a4a:	bf00      	nop
 8006a4c:	371c      	adds	r7, #28
 8006a4e:	46bd      	mov	sp, r7
 8006a50:	f85d 7b04 	ldr.w	r7, [sp], #4
 8006a54:	4770      	bx	lr

08006a56 <TIM_TI2_ConfigInputStage>:
 8006a56:	b480      	push	{r7}
 8006a58:	b087      	sub	sp, #28
 8006a5a:	af00      	add	r7, sp, #0
 8006a5c:	60f8      	str	r0, [r7, #12]
 8006a5e:	60b9      	str	r1, [r7, #8]
 8006a60:	607a      	str	r2, [r7, #4]
 8006a62:	68fb      	ldr	r3, [r7, #12]
 8006a64:	6a1b      	ldr	r3, [r3, #32]
 8006a66:	617b      	str	r3, [r7, #20]
 8006a68:	68fb      	ldr	r3, [r7, #12]
 8006a6a:	6a1b      	ldr	r3, [r3, #32]
 8006a6c:	f023 0210 	bic.w	r2, r3, #16
 8006a70:	68fb      	ldr	r3, [r7, #12]
 8006a72:	621a      	str	r2, [r3, #32]
 8006a74:	68fb      	ldr	r3, [r7, #12]
 8006a76:	699b      	ldr	r3, [r3, #24]
 8006a78:	613b      	str	r3, [r7, #16]
 8006a7a:	693b      	ldr	r3, [r7, #16]
 8006a7c:	f423 4370 	bic.w	r3, r3, #61440	; 0xf000
 8006a80:	613b      	str	r3, [r7, #16]
 8006a82:	687b      	ldr	r3, [r7, #4]
 8006a84:	031b      	lsls	r3, r3, #12
 8006a86:	693a      	ldr	r2, [r7, #16]
 8006a88:	4313      	orrs	r3, r2
 8006a8a:	613b      	str	r3, [r7, #16]
 8006a8c:	697b      	ldr	r3, [r7, #20]
 8006a8e:	f023 03a0 	bic.w	r3, r3, #160	; 0xa0
 8006a92:	617b      	str	r3, [r7, #20]
 8006a94:	68bb      	ldr	r3, [r7, #8]
 8006a96:	011b      	lsls	r3, r3, #4
 8006a98:	697a      	ldr	r2, [r7, #20]
 8006a9a:	4313      	orrs	r3, r2
 8006a9c:	617b      	str	r3, [r7, #20]
 8006a9e:	68fb      	ldr	r3, [r7, #12]
 8006aa0:	693a      	ldr	r2, [r7, #16]
 8006aa2:	619a      	str	r2, [r3, #24]
 8006aa4:	68fb      	ldr	r3, [r7, #12]
 8006aa6:	697a      	ldr	r2, [r7, #20]
 8006aa8:	621a      	str	r2, [r3, #32]
 8006aaa:	bf00      	nop
 8006aac:	371c      	adds	r7, #28
 8006aae:	46bd      	mov	sp, r7
 8006ab0:	f85d 7b04 	ldr.w	r7, [sp], #4
 8006ab4:	4770      	bx	lr

08006ab6 <TIM_ITRx_SetConfig>:
 8006ab6:	b480      	push	{r7}
 8006ab8:	b085      	sub	sp, #20
 8006aba:	af00      	add	r7, sp, #0
 8006abc:	6078      	str	r0, [r7, #4]
 8006abe:	6039      	str	r1, [r7, #0]
 8006ac0:	687b      	ldr	r3, [r7, #4]
 8006ac2:	689b      	ldr	r3, [r3, #8]
 8006ac4:	60fb      	str	r3, [r7, #12]
 8006ac6:	68fb      	ldr	r3, [r7, #12]
 8006ac8:	f023 0370 	bic.w	r3, r3, #112	; 0x70
 8006acc:	60fb      	str	r3, [r7, #12]
 8006ace:	683a      	ldr	r2, [r7, #0]
 8006ad0:	68fb      	ldr	r3, [r7, #12]
 8006ad2:	4313      	orrs	r3, r2
 8006ad4:	f043 0307 	orr.w	r3, r3, #7
 8006ad8:	60fb      	str	r3, [r7, #12]
 8006ada:	687b      	ldr	r3, [r7, #4]
 8006adc:	68fa      	ldr	r2, [r7, #12]
 8006ade:	609a      	str	r2, [r3, #8]
 8006ae0:	bf00      	nop
 8006ae2:	3714      	adds	r7, #20
 8006ae4:	46bd      	mov	sp, r7
 8006ae6:	f85d 7b04 	ldr.w	r7, [sp], #4
 8006aea:	4770      	bx	lr

08006aec <TIM_ETR_SetConfig>:
 8006aec:	b480      	push	{r7}
 8006aee:	b087      	sub	sp, #28
 8006af0:	af00      	add	r7, sp, #0
 8006af2:	60f8      	str	r0, [r7, #12]
 8006af4:	60b9      	str	r1, [r7, #8]
 8006af6:	607a      	str	r2, [r7, #4]
 8006af8:	603b      	str	r3, [r7, #0]
 8006afa:	68fb      	ldr	r3, [r7, #12]
 8006afc:	689b      	ldr	r3, [r3, #8]
 8006afe:	617b      	str	r3, [r7, #20]
 8006b00:	697b      	ldr	r3, [r7, #20]
 8006b02:	f423 437f 	bic.w	r3, r3, #65280	; 0xff00
 8006b06:	617b      	str	r3, [r7, #20]
 8006b08:	683b      	ldr	r3, [r7, #0]
 8006b0a:	021a      	lsls	r2, r3, #8
 8006b0c:	687b      	ldr	r3, [r7, #4]
 8006b0e:	431a      	orrs	r2, r3
 8006b10:	68bb      	ldr	r3, [r7, #8]
 8006b12:	4313      	orrs	r3, r2
 8006b14:	697a      	ldr	r2, [r7, #20]
 8006b16:	4313      	orrs	r3, r2
 8006b18:	617b      	str	r3, [r7, #20]
 8006b1a:	68fb      	ldr	r3, [r7, #12]
 8006b1c:	697a      	ldr	r2, [r7, #20]
 8006b1e:	609a      	str	r2, [r3, #8]
 8006b20:	bf00      	nop
 8006b22:	371c      	adds	r7, #28
 8006b24:	46bd      	mov	sp, r7
 8006b26:	f85d 7b04 	ldr.w	r7, [sp], #4
 8006b2a:	4770      	bx	lr

08006b2c <TIM_CCxChannelCmd>:
 8006b2c:	b480      	push	{r7}
 8006b2e:	b087      	sub	sp, #28
 8006b30:	af00      	add	r7, sp, #0
 8006b32:	60f8      	str	r0, [r7, #12]
 8006b34:	60b9      	str	r1, [r7, #8]
 8006b36:	607a      	str	r2, [r7, #4]
 8006b38:	68bb      	ldr	r3, [r7, #8]
 8006b3a:	f003 031f 	and.w	r3, r3, #31
 8006b3e:	2201      	movs	r2, #1
 8006b40:	fa02 f303 	lsl.w	r3, r2, r3
 8006b44:	617b      	str	r3, [r7, #20]
 8006b46:	68fb      	ldr	r3, [r7, #12]
 8006b48:	6a1a      	ldr	r2, [r3, #32]
 8006b4a:	697b      	ldr	r3, [r7, #20]
 8006b4c:	43db      	mvns	r3, r3
 8006b4e:	401a      	ands	r2, r3
 8006b50:	68fb      	ldr	r3, [r7, #12]
 8006b52:	621a      	str	r2, [r3, #32]
 8006b54:	68fb      	ldr	r3, [r7, #12]
 8006b56:	6a1a      	ldr	r2, [r3, #32]
 8006b58:	68bb      	ldr	r3, [r7, #8]
 8006b5a:	f003 031f 	and.w	r3, r3, #31
 8006b5e:	6879      	ldr	r1, [r7, #4]
 8006b60:	fa01 f303 	lsl.w	r3, r1, r3
 8006b64:	431a      	orrs	r2, r3
 8006b66:	68fb      	ldr	r3, [r7, #12]
 8006b68:	621a      	str	r2, [r3, #32]
 8006b6a:	bf00      	nop
 8006b6c:	371c      	adds	r7, #28
 8006b6e:	46bd      	mov	sp, r7
 8006b70:	f85d 7b04 	ldr.w	r7, [sp], #4
 8006b74:	4770      	bx	lr
	...

08006b78 <HAL_TIMEx_MasterConfigSynchronization>:
 8006b78:	b480      	push	{r7}
 8006b7a:	b085      	sub	sp, #20
 8006b7c:	af00      	add	r7, sp, #0
 8006b7e:	6078      	str	r0, [r7, #4]
 8006b80:	6039      	str	r1, [r7, #0]
 8006b82:	687b      	ldr	r3, [r7, #4]
 8006b84:	f893 303c 	ldrb.w	r3, [r3, #60]	; 0x3c
 8006b88:	2b01      	cmp	r3, #1
 8006b8a:	d101      	bne.n	8006b90 <HAL_TIMEx_MasterConfigSynchronization+0x18>
 8006b8c:	2302      	movs	r3, #2
 8006b8e:	e05a      	b.n	8006c46 <HAL_TIMEx_MasterConfigSynchronization+0xce>
 8006b90:	687b      	ldr	r3, [r7, #4]
 8006b92:	2201      	movs	r2, #1
 8006b94:	f883 203c 	strb.w	r2, [r3, #60]	; 0x3c
 8006b98:	687b      	ldr	r3, [r7, #4]
 8006b9a:	2202      	movs	r2, #2
 8006b9c:	f883 203d 	strb.w	r2, [r3, #61]	; 0x3d
 8006ba0:	687b      	ldr	r3, [r7, #4]
 8006ba2:	681b      	ldr	r3, [r3, #0]
 8006ba4:	685b      	ldr	r3, [r3, #4]
 8006ba6:	60fb      	str	r3, [r7, #12]
 8006ba8:	687b      	ldr	r3, [r7, #4]
 8006baa:	681b      	ldr	r3, [r3, #0]
 8006bac:	689b      	ldr	r3, [r3, #8]
 8006bae:	60bb      	str	r3, [r7, #8]
 8006bb0:	68fb      	ldr	r3, [r7, #12]
 8006bb2:	f023 0370 	bic.w	r3, r3, #112	; 0x70
 8006bb6:	60fb      	str	r3, [r7, #12]
 8006bb8:	683b      	ldr	r3, [r7, #0]
 8006bba:	681b      	ldr	r3, [r3, #0]
 8006bbc:	68fa      	ldr	r2, [r7, #12]
 8006bbe:	4313      	orrs	r3, r2
 8006bc0:	60fb      	str	r3, [r7, #12]
 8006bc2:	687b      	ldr	r3, [r7, #4]
 8006bc4:	681b      	ldr	r3, [r3, #0]
 8006bc6:	68fa      	ldr	r2, [r7, #12]
 8006bc8:	605a      	str	r2, [r3, #4]
 8006bca:	687b      	ldr	r3, [r7, #4]
 8006bcc:	681b      	ldr	r3, [r3, #0]
 8006bce:	4a21      	ldr	r2, [pc, #132]	; (8006c54 <HAL_TIMEx_MasterConfigSynchronization+0xdc>)
 8006bd0:	4293      	cmp	r3, r2
 8006bd2:	d022      	beq.n	8006c1a <HAL_TIMEx_MasterConfigSynchronization+0xa2>
 8006bd4:	687b      	ldr	r3, [r7, #4]
 8006bd6:	681b      	ldr	r3, [r3, #0]
 8006bd8:	f1b3 4f80 	cmp.w	r3, #1073741824	; 0x40000000
 8006bdc:	d01d      	beq.n	8006c1a <HAL_TIMEx_MasterConfigSynchronization+0xa2>
 8006bde:	687b      	ldr	r3, [r7, #4]
 8006be0:	681b      	ldr	r3, [r3, #0]
 8006be2:	4a1d      	ldr	r2, [pc, #116]	; (8006c58 <HAL_TIMEx_MasterConfigSynchronization+0xe0>)
 8006be4:	4293      	cmp	r3, r2
 8006be6:	d018      	beq.n	8006c1a <HAL_TIMEx_MasterConfigSynchronization+0xa2>
 8006be8:	687b      	ldr	r3, [r7, #4]
 8006bea:	681b      	ldr	r3, [r3, #0]
 8006bec:	4a1b      	ldr	r2, [pc, #108]	; (8006c5c <HAL_TIMEx_MasterConfigSynchronization+0xe4>)
 8006bee:	4293      	cmp	r3, r2
 8006bf0:	d013      	beq.n	8006c1a <HAL_TIMEx_MasterConfigSynchronization+0xa2>
 8006bf2:	687b      	ldr	r3, [r7, #4]
 8006bf4:	681b      	ldr	r3, [r3, #0]
 8006bf6:	4a1a      	ldr	r2, [pc, #104]	; (8006c60 <HAL_TIMEx_MasterConfigSynchronization+0xe8>)
 8006bf8:	4293      	cmp	r3, r2
 8006bfa:	d00e      	beq.n	8006c1a <HAL_TIMEx_MasterConfigSynchronization+0xa2>
 8006bfc:	687b      	ldr	r3, [r7, #4]
 8006bfe:	681b      	ldr	r3, [r3, #0]
 8006c00:	4a18      	ldr	r2, [pc, #96]	; (8006c64 <HAL_TIMEx_MasterConfigSynchronization+0xec>)
 8006c02:	4293      	cmp	r3, r2
 8006c04:	d009      	beq.n	8006c1a <HAL_TIMEx_MasterConfigSynchronization+0xa2>
 8006c06:	687b      	ldr	r3, [r7, #4]
 8006c08:	681b      	ldr	r3, [r3, #0]
 8006c0a:	4a17      	ldr	r2, [pc, #92]	; (8006c68 <HAL_TIMEx_MasterConfigSynchronization+0xf0>)
 8006c0c:	4293      	cmp	r3, r2
 8006c0e:	d004      	beq.n	8006c1a <HAL_TIMEx_MasterConfigSynchronization+0xa2>
 8006c10:	687b      	ldr	r3, [r7, #4]
 8006c12:	681b      	ldr	r3, [r3, #0]
 8006c14:	4a15      	ldr	r2, [pc, #84]	; (8006c6c <HAL_TIMEx_MasterConfigSynchronization+0xf4>)
 8006c16:	4293      	cmp	r3, r2
 8006c18:	d10c      	bne.n	8006c34 <HAL_TIMEx_MasterConfigSynchronization+0xbc>
 8006c1a:	68bb      	ldr	r3, [r7, #8]
 8006c1c:	f023 0380 	bic.w	r3, r3, #128	; 0x80
 8006c20:	60bb      	str	r3, [r7, #8]
 8006c22:	683b      	ldr	r3, [r7, #0]
 8006c24:	685b      	ldr	r3, [r3, #4]
 8006c26:	68ba      	ldr	r2, [r7, #8]
 8006c28:	4313      	orrs	r3, r2
 8006c2a:	60bb      	str	r3, [r7, #8]
 8006c2c:	687b      	ldr	r3, [r7, #4]
 8006c2e:	681b      	ldr	r3, [r3, #0]
 8006c30:	68ba      	ldr	r2, [r7, #8]
 8006c32:	609a      	str	r2, [r3, #8]
 8006c34:	687b      	ldr	r3, [r7, #4]
 8006c36:	2201      	movs	r2, #1
 8006c38:	f883 203d 	strb.w	r2, [r3, #61]	; 0x3d
 8006c3c:	687b      	ldr	r3, [r7, #4]
 8006c3e:	2200      	movs	r2, #0
 8006c40:	f883 203c 	strb.w	r2, [r3, #60]	; 0x3c
 8006c44:	2300      	movs	r3, #0
 8006c46:	4618      	mov	r0, r3
 8006c48:	3714      	adds	r7, #20
 8006c4a:	46bd      	mov	sp, r7
 8006c4c:	f85d 7b04 	ldr.w	r7, [sp], #4
 8006c50:	4770      	bx	lr
 8006c52:	bf00      	nop
 8006c54:	40010000 	.word	0x40010000
 8006c58:	40000400 	.word	0x40000400
 8006c5c:	40000800 	.word	0x40000800
 8006c60:	40000c00 	.word	0x40000c00
 8006c64:	40010400 	.word	0x40010400
 8006c68:	40014000 	.word	0x40014000
 8006c6c:	40001800 	.word	0x40001800

08006c70 <HAL_TIMEx_CommutCallback>:
 8006c70:	b480      	push	{r7}
 8006c72:	b083      	sub	sp, #12
 8006c74:	af00      	add	r7, sp, #0
 8006c76:	6078      	str	r0, [r7, #4]
 8006c78:	bf00      	nop
 8006c7a:	370c      	adds	r7, #12
 8006c7c:	46bd      	mov	sp, r7
 8006c7e:	f85d 7b04 	ldr.w	r7, [sp], #4
 8006c82:	4770      	bx	lr

08006c84 <HAL_TIMEx_BreakCallback>:
 8006c84:	b480      	push	{r7}
 8006c86:	b083      	sub	sp, #12
 8006c88:	af00      	add	r7, sp, #0
 8006c8a:	6078      	str	r0, [r7, #4]
 8006c8c:	bf00      	nop
 8006c8e:	370c      	adds	r7, #12
 8006c90:	46bd      	mov	sp, r7
 8006c92:	f85d 7b04 	ldr.w	r7, [sp], #4
 8006c96:	4770      	bx	lr

08006c98 <HAL_UART_Init>:
 8006c98:	b580      	push	{r7, lr}
 8006c9a:	b082      	sub	sp, #8
 8006c9c:	af00      	add	r7, sp, #0
 8006c9e:	6078      	str	r0, [r7, #4]
 8006ca0:	687b      	ldr	r3, [r7, #4]
 8006ca2:	2b00      	cmp	r3, #0
 8006ca4:	d101      	bne.n	8006caa <HAL_UART_Init+0x12>
 8006ca6:	2301      	movs	r3, #1
 8006ca8:	e042      	b.n	8006d30 <HAL_UART_Init+0x98>
 8006caa:	687b      	ldr	r3, [r7, #4]
 8006cac:	f893 3041 	ldrb.w	r3, [r3, #65]	; 0x41
 8006cb0:	b2db      	uxtb	r3, r3
 8006cb2:	2b00      	cmp	r3, #0
 8006cb4:	d106      	bne.n	8006cc4 <HAL_UART_Init+0x2c>
 8006cb6:	687b      	ldr	r3, [r7, #4]
 8006cb8:	2200      	movs	r2, #0
 8006cba:	f883 2040 	strb.w	r2, [r3, #64]	; 0x40
 8006cbe:	6878      	ldr	r0, [r7, #4]
 8006cc0:	f7fc faa6 	bl	8003210 <HAL_UART_MspInit>
 8006cc4:	687b      	ldr	r3, [r7, #4]
 8006cc6:	2224      	movs	r2, #36	; 0x24
 8006cc8:	f883 2041 	strb.w	r2, [r3, #65]	; 0x41
 8006ccc:	687b      	ldr	r3, [r7, #4]
 8006cce:	681b      	ldr	r3, [r3, #0]
 8006cd0:	68da      	ldr	r2, [r3, #12]
 8006cd2:	687b      	ldr	r3, [r7, #4]
 8006cd4:	681b      	ldr	r3, [r3, #0]
 8006cd6:	f422 5200 	bic.w	r2, r2, #8192	; 0x2000
 8006cda:	60da      	str	r2, [r3, #12]
 8006cdc:	6878      	ldr	r0, [r7, #4]
 8006cde:	f000 fdf3 	bl	80078c8 <UART_SetConfig>
 8006ce2:	687b      	ldr	r3, [r7, #4]
 8006ce4:	681b      	ldr	r3, [r3, #0]
 8006ce6:	691a      	ldr	r2, [r3, #16]
 8006ce8:	687b      	ldr	r3, [r7, #4]
 8006cea:	681b      	ldr	r3, [r3, #0]
 8006cec:	f422 4290 	bic.w	r2, r2, #18432	; 0x4800
 8006cf0:	611a      	str	r2, [r3, #16]
 8006cf2:	687b      	ldr	r3, [r7, #4]
 8006cf4:	681b      	ldr	r3, [r3, #0]
 8006cf6:	695a      	ldr	r2, [r3, #20]
 8006cf8:	687b      	ldr	r3, [r7, #4]
 8006cfa:	681b      	ldr	r3, [r3, #0]
 8006cfc:	f022 022a 	bic.w	r2, r2, #42	; 0x2a
 8006d00:	615a      	str	r2, [r3, #20]
 8006d02:	687b      	ldr	r3, [r7, #4]
 8006d04:	681b      	ldr	r3, [r3, #0]
 8006d06:	68da      	ldr	r2, [r3, #12]
 8006d08:	687b      	ldr	r3, [r7, #4]
 8006d0a:	681b      	ldr	r3, [r3, #0]
 8006d0c:	f442 5200 	orr.w	r2, r2, #8192	; 0x2000
 8006d10:	60da      	str	r2, [r3, #12]
 8006d12:	687b      	ldr	r3, [r7, #4]
 8006d14:	2200      	movs	r2, #0
 8006d16:	645a      	str	r2, [r3, #68]	; 0x44
 8006d18:	687b      	ldr	r3, [r7, #4]
 8006d1a:	2220      	movs	r2, #32
 8006d1c:	f883 2041 	strb.w	r2, [r3, #65]	; 0x41
 8006d20:	687b      	ldr	r3, [r7, #4]
 8006d22:	2220      	movs	r2, #32
 8006d24:	f883 2042 	strb.w	r2, [r3, #66]	; 0x42
 8006d28:	687b      	ldr	r3, [r7, #4]
 8006d2a:	2200      	movs	r2, #0
 8006d2c:	635a      	str	r2, [r3, #52]	; 0x34
 8006d2e:	2300      	movs	r3, #0
 8006d30:	4618      	mov	r0, r3
 8006d32:	3708      	adds	r7, #8
 8006d34:	46bd      	mov	sp, r7
 8006d36:	bd80      	pop	{r7, pc}

08006d38 <HAL_UART_Transmit>:
 8006d38:	b580      	push	{r7, lr}
 8006d3a:	b08a      	sub	sp, #40	; 0x28
 8006d3c:	af02      	add	r7, sp, #8
 8006d3e:	60f8      	str	r0, [r7, #12]
 8006d40:	60b9      	str	r1, [r7, #8]
 8006d42:	603b      	str	r3, [r7, #0]
 8006d44:	4613      	mov	r3, r2
 8006d46:	80fb      	strh	r3, [r7, #6]
 8006d48:	2300      	movs	r3, #0
 8006d4a:	617b      	str	r3, [r7, #20]
 8006d4c:	68fb      	ldr	r3, [r7, #12]
 8006d4e:	f893 3041 	ldrb.w	r3, [r3, #65]	; 0x41
 8006d52:	b2db      	uxtb	r3, r3
 8006d54:	2b20      	cmp	r3, #32
 8006d56:	d175      	bne.n	8006e44 <HAL_UART_Transmit+0x10c>
 8006d58:	68bb      	ldr	r3, [r7, #8]
 8006d5a:	2b00      	cmp	r3, #0
 8006d5c:	d002      	beq.n	8006d64 <HAL_UART_Transmit+0x2c>
 8006d5e:	88fb      	ldrh	r3, [r7, #6]
 8006d60:	2b00      	cmp	r3, #0
 8006d62:	d101      	bne.n	8006d68 <HAL_UART_Transmit+0x30>
 8006d64:	2301      	movs	r3, #1
 8006d66:	e06e      	b.n	8006e46 <HAL_UART_Transmit+0x10e>
 8006d68:	68fb      	ldr	r3, [r7, #12]
 8006d6a:	2200      	movs	r2, #0
 8006d6c:	645a      	str	r2, [r3, #68]	; 0x44
 8006d6e:	68fb      	ldr	r3, [r7, #12]
 8006d70:	2221      	movs	r2, #33	; 0x21
 8006d72:	f883 2041 	strb.w	r2, [r3, #65]	; 0x41
 8006d76:	f7fc fb6b 	bl	8003450 <HAL_GetTick>
 8006d7a:	6178      	str	r0, [r7, #20]
 8006d7c:	68fb      	ldr	r3, [r7, #12]
 8006d7e:	88fa      	ldrh	r2, [r7, #6]
 8006d80:	849a      	strh	r2, [r3, #36]	; 0x24
 8006d82:	68fb      	ldr	r3, [r7, #12]
 8006d84:	88fa      	ldrh	r2, [r7, #6]
 8006d86:	84da      	strh	r2, [r3, #38]	; 0x26
 8006d88:	68fb      	ldr	r3, [r7, #12]
 8006d8a:	689b      	ldr	r3, [r3, #8]
 8006d8c:	f5b3 5f80 	cmp.w	r3, #4096	; 0x1000
 8006d90:	d108      	bne.n	8006da4 <HAL_UART_Transmit+0x6c>
 8006d92:	68fb      	ldr	r3, [r7, #12]
 8006d94:	691b      	ldr	r3, [r3, #16]
 8006d96:	2b00      	cmp	r3, #0
 8006d98:	d104      	bne.n	8006da4 <HAL_UART_Transmit+0x6c>
 8006d9a:	2300      	movs	r3, #0
 8006d9c:	61fb      	str	r3, [r7, #28]
 8006d9e:	68bb      	ldr	r3, [r7, #8]
 8006da0:	61bb      	str	r3, [r7, #24]
 8006da2:	e003      	b.n	8006dac <HAL_UART_Transmit+0x74>
 8006da4:	68bb      	ldr	r3, [r7, #8]
 8006da6:	61fb      	str	r3, [r7, #28]
 8006da8:	2300      	movs	r3, #0
 8006daa:	61bb      	str	r3, [r7, #24]
 8006dac:	e02e      	b.n	8006e0c <HAL_UART_Transmit+0xd4>
 8006dae:	683b      	ldr	r3, [r7, #0]
 8006db0:	9300      	str	r3, [sp, #0]
 8006db2:	697b      	ldr	r3, [r7, #20]
 8006db4:	2200      	movs	r2, #0
 8006db6:	2180      	movs	r1, #128	; 0x80
 8006db8:	68f8      	ldr	r0, [r7, #12]
 8006dba:	f000 fb55 	bl	8007468 <UART_WaitOnFlagUntilTimeout>
 8006dbe:	4603      	mov	r3, r0
 8006dc0:	2b00      	cmp	r3, #0
 8006dc2:	d005      	beq.n	8006dd0 <HAL_UART_Transmit+0x98>
 8006dc4:	68fb      	ldr	r3, [r7, #12]
 8006dc6:	2220      	movs	r2, #32
 8006dc8:	f883 2041 	strb.w	r2, [r3, #65]	; 0x41
 8006dcc:	2303      	movs	r3, #3
 8006dce:	e03a      	b.n	8006e46 <HAL_UART_Transmit+0x10e>
 8006dd0:	69fb      	ldr	r3, [r7, #28]
 8006dd2:	2b00      	cmp	r3, #0
 8006dd4:	d10b      	bne.n	8006dee <HAL_UART_Transmit+0xb6>
 8006dd6:	69bb      	ldr	r3, [r7, #24]
 8006dd8:	881b      	ldrh	r3, [r3, #0]
 8006dda:	461a      	mov	r2, r3
 8006ddc:	68fb      	ldr	r3, [r7, #12]
 8006dde:	681b      	ldr	r3, [r3, #0]
 8006de0:	f3c2 0208 	ubfx	r2, r2, #0, #9
 8006de4:	605a      	str	r2, [r3, #4]
 8006de6:	69bb      	ldr	r3, [r7, #24]
 8006de8:	3302      	adds	r3, #2
 8006dea:	61bb      	str	r3, [r7, #24]
 8006dec:	e007      	b.n	8006dfe <HAL_UART_Transmit+0xc6>
 8006dee:	69fb      	ldr	r3, [r7, #28]
 8006df0:	781a      	ldrb	r2, [r3, #0]
 8006df2:	68fb      	ldr	r3, [r7, #12]
 8006df4:	681b      	ldr	r3, [r3, #0]
 8006df6:	605a      	str	r2, [r3, #4]
 8006df8:	69fb      	ldr	r3, [r7, #28]
 8006dfa:	3301      	adds	r3, #1
 8006dfc:	61fb      	str	r3, [r7, #28]
 8006dfe:	68fb      	ldr	r3, [r7, #12]
 8006e00:	8cdb      	ldrh	r3, [r3, #38]	; 0x26
 8006e02:	b29b      	uxth	r3, r3
 8006e04:	3b01      	subs	r3, #1
 8006e06:	b29a      	uxth	r2, r3
 8006e08:	68fb      	ldr	r3, [r7, #12]
 8006e0a:	84da      	strh	r2, [r3, #38]	; 0x26
 8006e0c:	68fb      	ldr	r3, [r7, #12]
 8006e0e:	8cdb      	ldrh	r3, [r3, #38]	; 0x26
 8006e10:	b29b      	uxth	r3, r3
 8006e12:	2b00      	cmp	r3, #0
 8006e14:	d1cb      	bne.n	8006dae <HAL_UART_Transmit+0x76>
 8006e16:	683b      	ldr	r3, [r7, #0]
 8006e18:	9300      	str	r3, [sp, #0]
 8006e1a:	697b      	ldr	r3, [r7, #20]
 8006e1c:	2200      	movs	r2, #0
 8006e1e:	2140      	movs	r1, #64	; 0x40
 8006e20:	68f8      	ldr	r0, [r7, #12]
 8006e22:	f000 fb21 	bl	8007468 <UART_WaitOnFlagUntilTimeout>
 8006e26:	4603      	mov	r3, r0
 8006e28:	2b00      	cmp	r3, #0
 8006e2a:	d005      	beq.n	8006e38 <HAL_UART_Transmit+0x100>
 8006e2c:	68fb      	ldr	r3, [r7, #12]
 8006e2e:	2220      	movs	r2, #32
 8006e30:	f883 2041 	strb.w	r2, [r3, #65]	; 0x41
 8006e34:	2303      	movs	r3, #3
 8006e36:	e006      	b.n	8006e46 <HAL_UART_Transmit+0x10e>
 8006e38:	68fb      	ldr	r3, [r7, #12]
 8006e3a:	2220      	movs	r2, #32
 8006e3c:	f883 2041 	strb.w	r2, [r3, #65]	; 0x41
 8006e40:	2300      	movs	r3, #0
 8006e42:	e000      	b.n	8006e46 <HAL_UART_Transmit+0x10e>
 8006e44:	2302      	movs	r3, #2
 8006e46:	4618      	mov	r0, r3
 8006e48:	3720      	adds	r7, #32
 8006e4a:	46bd      	mov	sp, r7
 8006e4c:	bd80      	pop	{r7, pc}

08006e4e <HAL_UARTEx_ReceiveToIdle_IT>:
 8006e4e:	b580      	push	{r7, lr}
 8006e50:	b08c      	sub	sp, #48	; 0x30
 8006e52:	af00      	add	r7, sp, #0
 8006e54:	60f8      	str	r0, [r7, #12]
 8006e56:	60b9      	str	r1, [r7, #8]
 8006e58:	4613      	mov	r3, r2
 8006e5a:	80fb      	strh	r3, [r7, #6]
 8006e5c:	68fb      	ldr	r3, [r7, #12]
 8006e5e:	f893 3042 	ldrb.w	r3, [r3, #66]	; 0x42
 8006e62:	b2db      	uxtb	r3, r3
 8006e64:	2b20      	cmp	r3, #32
 8006e66:	d14a      	bne.n	8006efe <HAL_UARTEx_ReceiveToIdle_IT+0xb0>
 8006e68:	68bb      	ldr	r3, [r7, #8]
 8006e6a:	2b00      	cmp	r3, #0
 8006e6c:	d002      	beq.n	8006e74 <HAL_UARTEx_ReceiveToIdle_IT+0x26>
 8006e6e:	88fb      	ldrh	r3, [r7, #6]
 8006e70:	2b00      	cmp	r3, #0
 8006e72:	d101      	bne.n	8006e78 <HAL_UARTEx_ReceiveToIdle_IT+0x2a>
 8006e74:	2301      	movs	r3, #1
 8006e76:	e043      	b.n	8006f00 <HAL_UARTEx_ReceiveToIdle_IT+0xb2>
 8006e78:	68fb      	ldr	r3, [r7, #12]
 8006e7a:	2201      	movs	r2, #1
 8006e7c:	631a      	str	r2, [r3, #48]	; 0x30
 8006e7e:	68fb      	ldr	r3, [r7, #12]
 8006e80:	2200      	movs	r2, #0
 8006e82:	635a      	str	r2, [r3, #52]	; 0x34
 8006e84:	88fb      	ldrh	r3, [r7, #6]
 8006e86:	461a      	mov	r2, r3
 8006e88:	68b9      	ldr	r1, [r7, #8]
 8006e8a:	68f8      	ldr	r0, [r7, #12]
 8006e8c:	f000 fb45 	bl	800751a <UART_Start_Receive_IT>
 8006e90:	4603      	mov	r3, r0
 8006e92:	f887 302f 	strb.w	r3, [r7, #47]	; 0x2f
 8006e96:	f897 302f 	ldrb.w	r3, [r7, #47]	; 0x2f
 8006e9a:	2b00      	cmp	r3, #0
 8006e9c:	d12c      	bne.n	8006ef8 <HAL_UARTEx_ReceiveToIdle_IT+0xaa>
 8006e9e:	68fb      	ldr	r3, [r7, #12]
 8006ea0:	6b1b      	ldr	r3, [r3, #48]	; 0x30
 8006ea2:	2b01      	cmp	r3, #1
 8006ea4:	d125      	bne.n	8006ef2 <HAL_UARTEx_ReceiveToIdle_IT+0xa4>
 8006ea6:	2300      	movs	r3, #0
 8006ea8:	613b      	str	r3, [r7, #16]
 8006eaa:	68fb      	ldr	r3, [r7, #12]
 8006eac:	681b      	ldr	r3, [r3, #0]
 8006eae:	681b      	ldr	r3, [r3, #0]
 8006eb0:	613b      	str	r3, [r7, #16]
 8006eb2:	68fb      	ldr	r3, [r7, #12]
 8006eb4:	681b      	ldr	r3, [r3, #0]
 8006eb6:	685b      	ldr	r3, [r3, #4]
 8006eb8:	613b      	str	r3, [r7, #16]
 8006eba:	693b      	ldr	r3, [r7, #16]
 8006ebc:	68fb      	ldr	r3, [r7, #12]
 8006ebe:	681b      	ldr	r3, [r3, #0]
 8006ec0:	330c      	adds	r3, #12
 8006ec2:	61bb      	str	r3, [r7, #24]
 8006ec4:	69bb      	ldr	r3, [r7, #24]
 8006ec6:	e853 3f00 	ldrex	r3, [r3]
 8006eca:	617b      	str	r3, [r7, #20]
 8006ecc:	697b      	ldr	r3, [r7, #20]
 8006ece:	f043 0310 	orr.w	r3, r3, #16
 8006ed2:	62bb      	str	r3, [r7, #40]	; 0x28
 8006ed4:	68fb      	ldr	r3, [r7, #12]
 8006ed6:	681b      	ldr	r3, [r3, #0]
 8006ed8:	330c      	adds	r3, #12
 8006eda:	6aba      	ldr	r2, [r7, #40]	; 0x28
 8006edc:	627a      	str	r2, [r7, #36]	; 0x24
 8006ede:	623b      	str	r3, [r7, #32]
 8006ee0:	6a39      	ldr	r1, [r7, #32]
 8006ee2:	6a7a      	ldr	r2, [r7, #36]	; 0x24
 8006ee4:	e841 2300 	strex	r3, r2, [r1]
 8006ee8:	61fb      	str	r3, [r7, #28]
 8006eea:	69fb      	ldr	r3, [r7, #28]
 8006eec:	2b00      	cmp	r3, #0
 8006eee:	d1e5      	bne.n	8006ebc <HAL_UARTEx_ReceiveToIdle_IT+0x6e>
 8006ef0:	e002      	b.n	8006ef8 <HAL_UARTEx_ReceiveToIdle_IT+0xaa>
 8006ef2:	2301      	movs	r3, #1
 8006ef4:	f887 302f 	strb.w	r3, [r7, #47]	; 0x2f
 8006ef8:	f897 302f 	ldrb.w	r3, [r7, #47]	; 0x2f
 8006efc:	e000      	b.n	8006f00 <HAL_UARTEx_ReceiveToIdle_IT+0xb2>
 8006efe:	2302      	movs	r3, #2
 8006f00:	4618      	mov	r0, r3
 8006f02:	3730      	adds	r7, #48	; 0x30
 8006f04:	46bd      	mov	sp, r7
 8006f06:	bd80      	pop	{r7, pc}

08006f08 <HAL_UART_IRQHandler>:
 8006f08:	b580      	push	{r7, lr}
 8006f0a:	b0ba      	sub	sp, #232	; 0xe8
 8006f0c:	af00      	add	r7, sp, #0
 8006f0e:	6078      	str	r0, [r7, #4]
 8006f10:	687b      	ldr	r3, [r7, #4]
 8006f12:	681b      	ldr	r3, [r3, #0]
 8006f14:	681b      	ldr	r3, [r3, #0]
 8006f16:	f8c7 30e4 	str.w	r3, [r7, #228]	; 0xe4
 8006f1a:	687b      	ldr	r3, [r7, #4]
 8006f1c:	681b      	ldr	r3, [r3, #0]
 8006f1e:	68db      	ldr	r3, [r3, #12]
 8006f20:	f8c7 30e0 	str.w	r3, [r7, #224]	; 0xe0
 8006f24:	687b      	ldr	r3, [r7, #4]
 8006f26:	681b      	ldr	r3, [r3, #0]
 8006f28:	695b      	ldr	r3, [r3, #20]
 8006f2a:	f8c7 30dc 	str.w	r3, [r7, #220]	; 0xdc
 8006f2e:	2300      	movs	r3, #0
 8006f30:	f8c7 30d8 	str.w	r3, [r7, #216]	; 0xd8
 8006f34:	2300      	movs	r3, #0
 8006f36:	f8c7 30d4 	str.w	r3, [r7, #212]	; 0xd4
 8006f3a:	f8d7 30e4 	ldr.w	r3, [r7, #228]	; 0xe4
 8006f3e:	f003 030f 	and.w	r3, r3, #15
 8006f42:	f8c7 30d8 	str.w	r3, [r7, #216]	; 0xd8
 8006f46:	f8d7 30d8 	ldr.w	r3, [r7, #216]	; 0xd8
 8006f4a:	2b00      	cmp	r3, #0
 8006f4c:	d10f      	bne.n	8006f6e <HAL_UART_IRQHandler+0x66>
 8006f4e:	f8d7 30e4 	ldr.w	r3, [r7, #228]	; 0xe4
 8006f52:	f003 0320 	and.w	r3, r3, #32
 8006f56:	2b00      	cmp	r3, #0
 8006f58:	d009      	beq.n	8006f6e <HAL_UART_IRQHandler+0x66>
 8006f5a:	f8d7 30e0 	ldr.w	r3, [r7, #224]	; 0xe0
 8006f5e:	f003 0320 	and.w	r3, r3, #32
 8006f62:	2b00      	cmp	r3, #0
 8006f64:	d003      	beq.n	8006f6e <HAL_UART_IRQHandler+0x66>
 8006f66:	6878      	ldr	r0, [r7, #4]
 8006f68:	f000 fbf0 	bl	800774c <UART_Receive_IT>
 8006f6c:	e25b      	b.n	8007426 <HAL_UART_IRQHandler+0x51e>
 8006f6e:	f8d7 30d8 	ldr.w	r3, [r7, #216]	; 0xd8
 8006f72:	2b00      	cmp	r3, #0
 8006f74:	f000 80de 	beq.w	8007134 <HAL_UART_IRQHandler+0x22c>
 8006f78:	f8d7 30dc 	ldr.w	r3, [r7, #220]	; 0xdc
 8006f7c:	f003 0301 	and.w	r3, r3, #1
 8006f80:	2b00      	cmp	r3, #0
 8006f82:	d106      	bne.n	8006f92 <HAL_UART_IRQHandler+0x8a>
 8006f84:	f8d7 30e0 	ldr.w	r3, [r7, #224]	; 0xe0
 8006f88:	f403 7390 	and.w	r3, r3, #288	; 0x120
 8006f8c:	2b00      	cmp	r3, #0
 8006f8e:	f000 80d1 	beq.w	8007134 <HAL_UART_IRQHandler+0x22c>
 8006f92:	f8d7 30e4 	ldr.w	r3, [r7, #228]	; 0xe4
 8006f96:	f003 0301 	and.w	r3, r3, #1
 8006f9a:	2b00      	cmp	r3, #0
 8006f9c:	d00b      	beq.n	8006fb6 <HAL_UART_IRQHandler+0xae>
 8006f9e:	f8d7 30e0 	ldr.w	r3, [r7, #224]	; 0xe0
 8006fa2:	f403 7380 	and.w	r3, r3, #256	; 0x100
 8006fa6:	2b00      	cmp	r3, #0
 8006fa8:	d005      	beq.n	8006fb6 <HAL_UART_IRQHandler+0xae>
 8006faa:	687b      	ldr	r3, [r7, #4]
 8006fac:	6c5b      	ldr	r3, [r3, #68]	; 0x44
 8006fae:	f043 0201 	orr.w	r2, r3, #1
 8006fb2:	687b      	ldr	r3, [r7, #4]
 8006fb4:	645a      	str	r2, [r3, #68]	; 0x44
 8006fb6:	f8d7 30e4 	ldr.w	r3, [r7, #228]	; 0xe4
 8006fba:	f003 0304 	and.w	r3, r3, #4
 8006fbe:	2b00      	cmp	r3, #0
 8006fc0:	d00b      	beq.n	8006fda <HAL_UART_IRQHandler+0xd2>
 8006fc2:	f8d7 30dc 	ldr.w	r3, [r7, #220]	; 0xdc
 8006fc6:	f003 0301 	and.w	r3, r3, #1
 8006fca:	2b00      	cmp	r3, #0
 8006fcc:	d005      	beq.n	8006fda <HAL_UART_IRQHandler+0xd2>
 8006fce:	687b      	ldr	r3, [r7, #4]
 8006fd0:	6c5b      	ldr	r3, [r3, #68]	; 0x44
 8006fd2:	f043 0202 	orr.w	r2, r3, #2
 8006fd6:	687b      	ldr	r3, [r7, #4]
 8006fd8:	645a      	str	r2, [r3, #68]	; 0x44
 8006fda:	f8d7 30e4 	ldr.w	r3, [r7, #228]	; 0xe4
 8006fde:	f003 0302 	and.w	r3, r3, #2
 8006fe2:	2b00      	cmp	r3, #0
 8006fe4:	d00b      	beq.n	8006ffe <HAL_UART_IRQHandler+0xf6>
 8006fe6:	f8d7 30dc 	ldr.w	r3, [r7, #220]	; 0xdc
 8006fea:	f003 0301 	and.w	r3, r3, #1
 8006fee:	2b00      	cmp	r3, #0
 8006ff0:	d005      	beq.n	8006ffe <HAL_UART_IRQHandler+0xf6>
 8006ff2:	687b      	ldr	r3, [r7, #4]
 8006ff4:	6c5b      	ldr	r3, [r3, #68]	; 0x44
 8006ff6:	f043 0204 	orr.w	r2, r3, #4
 8006ffa:	687b      	ldr	r3, [r7, #4]
 8006ffc:	645a      	str	r2, [r3, #68]	; 0x44
 8006ffe:	f8d7 30e4 	ldr.w	r3, [r7, #228]	; 0xe4
 8007002:	f003 0308 	and.w	r3, r3, #8
 8007006:	2b00      	cmp	r3, #0
 8007008:	d011      	beq.n	800702e <HAL_UART_IRQHandler+0x126>
 800700a:	f8d7 30e0 	ldr.w	r3, [r7, #224]	; 0xe0
 800700e:	f003 0320 	and.w	r3, r3, #32
 8007012:	2b00      	cmp	r3, #0
 8007014:	d105      	bne.n	8007022 <HAL_UART_IRQHandler+0x11a>
 8007016:	f8d7 30dc 	ldr.w	r3, [r7, #220]	; 0xdc
 800701a:	f003 0301 	and.w	r3, r3, #1
 800701e:	2b00      	cmp	r3, #0
 8007020:	d005      	beq.n	800702e <HAL_UART_IRQHandler+0x126>
 8007022:	687b      	ldr	r3, [r7, #4]
 8007024:	6c5b      	ldr	r3, [r3, #68]	; 0x44
 8007026:	f043 0208 	orr.w	r2, r3, #8
 800702a:	687b      	ldr	r3, [r7, #4]
 800702c:	645a      	str	r2, [r3, #68]	; 0x44
 800702e:	687b      	ldr	r3, [r7, #4]
 8007030:	6c5b      	ldr	r3, [r3, #68]	; 0x44
 8007032:	2b00      	cmp	r3, #0
 8007034:	f000 81f2 	beq.w	800741c <HAL_UART_IRQHandler+0x514>
 8007038:	f8d7 30e4 	ldr.w	r3, [r7, #228]	; 0xe4
 800703c:	f003 0320 	and.w	r3, r3, #32
 8007040:	2b00      	cmp	r3, #0
 8007042:	d008      	beq.n	8007056 <HAL_UART_IRQHandler+0x14e>
 8007044:	f8d7 30e0 	ldr.w	r3, [r7, #224]	; 0xe0
 8007048:	f003 0320 	and.w	r3, r3, #32
 800704c:	2b00      	cmp	r3, #0
 800704e:	d002      	beq.n	8007056 <HAL_UART_IRQHandler+0x14e>
 8007050:	6878      	ldr	r0, [r7, #4]
 8007052:	f000 fb7b 	bl	800774c <UART_Receive_IT>
 8007056:	687b      	ldr	r3, [r7, #4]
 8007058:	681b      	ldr	r3, [r3, #0]
 800705a:	695b      	ldr	r3, [r3, #20]
 800705c:	f003 0340 	and.w	r3, r3, #64	; 0x40
 8007060:	2b40      	cmp	r3, #64	; 0x40
 8007062:	bf0c      	ite	eq
 8007064:	2301      	moveq	r3, #1
 8007066:	2300      	movne	r3, #0
 8007068:	b2db      	uxtb	r3, r3
 800706a:	f8c7 30d4 	str.w	r3, [r7, #212]	; 0xd4
 800706e:	687b      	ldr	r3, [r7, #4]
 8007070:	6c5b      	ldr	r3, [r3, #68]	; 0x44
 8007072:	f003 0308 	and.w	r3, r3, #8
 8007076:	2b00      	cmp	r3, #0
 8007078:	d103      	bne.n	8007082 <HAL_UART_IRQHandler+0x17a>
 800707a:	f8d7 30d4 	ldr.w	r3, [r7, #212]	; 0xd4
 800707e:	2b00      	cmp	r3, #0
 8007080:	d04f      	beq.n	8007122 <HAL_UART_IRQHandler+0x21a>
 8007082:	6878      	ldr	r0, [r7, #4]
 8007084:	f000 fa83 	bl	800758e <UART_EndRxTransfer>
 8007088:	687b      	ldr	r3, [r7, #4]
 800708a:	681b      	ldr	r3, [r3, #0]
 800708c:	695b      	ldr	r3, [r3, #20]
 800708e:	f003 0340 	and.w	r3, r3, #64	; 0x40
 8007092:	2b40      	cmp	r3, #64	; 0x40
 8007094:	d141      	bne.n	800711a <HAL_UART_IRQHandler+0x212>
 8007096:	687b      	ldr	r3, [r7, #4]
 8007098:	681b      	ldr	r3, [r3, #0]
 800709a:	3314      	adds	r3, #20
 800709c:	f8c7 309c 	str.w	r3, [r7, #156]	; 0x9c
 80070a0:	f8d7 309c 	ldr.w	r3, [r7, #156]	; 0x9c
 80070a4:	e853 3f00 	ldrex	r3, [r3]
 80070a8:	f8c7 3098 	str.w	r3, [r7, #152]	; 0x98
 80070ac:	f8d7 3098 	ldr.w	r3, [r7, #152]	; 0x98
 80070b0:	f023 0340 	bic.w	r3, r3, #64	; 0x40
 80070b4:	f8c7 30d0 	str.w	r3, [r7, #208]	; 0xd0
 80070b8:	687b      	ldr	r3, [r7, #4]
 80070ba:	681b      	ldr	r3, [r3, #0]
 80070bc:	3314      	adds	r3, #20
 80070be:	f8d7 20d0 	ldr.w	r2, [r7, #208]	; 0xd0
 80070c2:	f8c7 20a8 	str.w	r2, [r7, #168]	; 0xa8
 80070c6:	f8c7 30a4 	str.w	r3, [r7, #164]	; 0xa4
 80070ca:	f8d7 10a4 	ldr.w	r1, [r7, #164]	; 0xa4
 80070ce:	f8d7 20a8 	ldr.w	r2, [r7, #168]	; 0xa8
 80070d2:	e841 2300 	strex	r3, r2, [r1]
 80070d6:	f8c7 30a0 	str.w	r3, [r7, #160]	; 0xa0
 80070da:	f8d7 30a0 	ldr.w	r3, [r7, #160]	; 0xa0
 80070de:	2b00      	cmp	r3, #0
 80070e0:	d1d9      	bne.n	8007096 <HAL_UART_IRQHandler+0x18e>
 80070e2:	687b      	ldr	r3, [r7, #4]
 80070e4:	6bdb      	ldr	r3, [r3, #60]	; 0x3c
 80070e6:	2b00      	cmp	r3, #0
 80070e8:	d013      	beq.n	8007112 <HAL_UART_IRQHandler+0x20a>
 80070ea:	687b      	ldr	r3, [r7, #4]
 80070ec:	6bdb      	ldr	r3, [r3, #60]	; 0x3c
 80070ee:	4a7e      	ldr	r2, [pc, #504]	; (80072e8 <HAL_UART_IRQHandler+0x3e0>)
 80070f0:	651a      	str	r2, [r3, #80]	; 0x50
 80070f2:	687b      	ldr	r3, [r7, #4]
 80070f4:	6bdb      	ldr	r3, [r3, #60]	; 0x3c
 80070f6:	4618      	mov	r0, r3
 80070f8:	f7fd f874 	bl	80041e4 <HAL_DMA_Abort_IT>
 80070fc:	4603      	mov	r3, r0
 80070fe:	2b00      	cmp	r3, #0
 8007100:	d016      	beq.n	8007130 <HAL_UART_IRQHandler+0x228>
 8007102:	687b      	ldr	r3, [r7, #4]
 8007104:	6bdb      	ldr	r3, [r3, #60]	; 0x3c
 8007106:	6d1b      	ldr	r3, [r3, #80]	; 0x50
 8007108:	687a      	ldr	r2, [r7, #4]
 800710a:	6bd2      	ldr	r2, [r2, #60]	; 0x3c
 800710c:	4610      	mov	r0, r2
 800710e:	4798      	blx	r3
 8007110:	e00e      	b.n	8007130 <HAL_UART_IRQHandler+0x228>
 8007112:	6878      	ldr	r0, [r7, #4]
 8007114:	f000 f99e 	bl	8007454 <HAL_UART_ErrorCallback>
 8007118:	e00a      	b.n	8007130 <HAL_UART_IRQHandler+0x228>
 800711a:	6878      	ldr	r0, [r7, #4]
 800711c:	f000 f99a 	bl	8007454 <HAL_UART_ErrorCallback>
 8007120:	e006      	b.n	8007130 <HAL_UART_IRQHandler+0x228>
 8007122:	6878      	ldr	r0, [r7, #4]
 8007124:	f000 f996 	bl	8007454 <HAL_UART_ErrorCallback>
 8007128:	687b      	ldr	r3, [r7, #4]
 800712a:	2200      	movs	r2, #0
 800712c:	645a      	str	r2, [r3, #68]	; 0x44
 800712e:	e175      	b.n	800741c <HAL_UART_IRQHandler+0x514>
 8007130:	bf00      	nop
 8007132:	e173      	b.n	800741c <HAL_UART_IRQHandler+0x514>
 8007134:	687b      	ldr	r3, [r7, #4]
 8007136:	6b1b      	ldr	r3, [r3, #48]	; 0x30
 8007138:	2b01      	cmp	r3, #1
 800713a:	f040 814f 	bne.w	80073dc <HAL_UART_IRQHandler+0x4d4>
 800713e:	f8d7 30e4 	ldr.w	r3, [r7, #228]	; 0xe4
 8007142:	f003 0310 	and.w	r3, r3, #16
 8007146:	2b00      	cmp	r3, #0
 8007148:	f000 8148 	beq.w	80073dc <HAL_UART_IRQHandler+0x4d4>
 800714c:	f8d7 30e0 	ldr.w	r3, [r7, #224]	; 0xe0
 8007150:	f003 0310 	and.w	r3, r3, #16
 8007154:	2b00      	cmp	r3, #0
 8007156:	f000 8141 	beq.w	80073dc <HAL_UART_IRQHandler+0x4d4>
 800715a:	2300      	movs	r3, #0
 800715c:	60bb      	str	r3, [r7, #8]
 800715e:	687b      	ldr	r3, [r7, #4]
 8007160:	681b      	ldr	r3, [r3, #0]
 8007162:	681b      	ldr	r3, [r3, #0]
 8007164:	60bb      	str	r3, [r7, #8]
 8007166:	687b      	ldr	r3, [r7, #4]
 8007168:	681b      	ldr	r3, [r3, #0]
 800716a:	685b      	ldr	r3, [r3, #4]
 800716c:	60bb      	str	r3, [r7, #8]
 800716e:	68bb      	ldr	r3, [r7, #8]
 8007170:	687b      	ldr	r3, [r7, #4]
 8007172:	681b      	ldr	r3, [r3, #0]
 8007174:	695b      	ldr	r3, [r3, #20]
 8007176:	f003 0340 	and.w	r3, r3, #64	; 0x40
 800717a:	2b40      	cmp	r3, #64	; 0x40
 800717c:	f040 80b6 	bne.w	80072ec <HAL_UART_IRQHandler+0x3e4>
 8007180:	687b      	ldr	r3, [r7, #4]
 8007182:	6bdb      	ldr	r3, [r3, #60]	; 0x3c
 8007184:	681b      	ldr	r3, [r3, #0]
 8007186:	685b      	ldr	r3, [r3, #4]
 8007188:	f8a7 30be 	strh.w	r3, [r7, #190]	; 0xbe
 800718c:	f8b7 30be 	ldrh.w	r3, [r7, #190]	; 0xbe
 8007190:	2b00      	cmp	r3, #0
 8007192:	f000 8145 	beq.w	8007420 <HAL_UART_IRQHandler+0x518>
 8007196:	687b      	ldr	r3, [r7, #4]
 8007198:	8d9b      	ldrh	r3, [r3, #44]	; 0x2c
 800719a:	f8b7 20be 	ldrh.w	r2, [r7, #190]	; 0xbe
 800719e:	429a      	cmp	r2, r3
 80071a0:	f080 813e 	bcs.w	8007420 <HAL_UART_IRQHandler+0x518>
 80071a4:	687b      	ldr	r3, [r7, #4]
 80071a6:	f8b7 20be 	ldrh.w	r2, [r7, #190]	; 0xbe
 80071aa:	85da      	strh	r2, [r3, #46]	; 0x2e
 80071ac:	687b      	ldr	r3, [r7, #4]
 80071ae:	6bdb      	ldr	r3, [r3, #60]	; 0x3c
 80071b0:	69db      	ldr	r3, [r3, #28]
 80071b2:	f5b3 7f80 	cmp.w	r3, #256	; 0x100
 80071b6:	f000 8088 	beq.w	80072ca <HAL_UART_IRQHandler+0x3c2>
 80071ba:	687b      	ldr	r3, [r7, #4]
 80071bc:	681b      	ldr	r3, [r3, #0]
 80071be:	330c      	adds	r3, #12
 80071c0:	f8c7 3088 	str.w	r3, [r7, #136]	; 0x88
 80071c4:	f8d7 3088 	ldr.w	r3, [r7, #136]	; 0x88
 80071c8:	e853 3f00 	ldrex	r3, [r3]
 80071cc:	f8c7 3084 	str.w	r3, [r7, #132]	; 0x84
 80071d0:	f8d7 3084 	ldr.w	r3, [r7, #132]	; 0x84
 80071d4:	f423 7380 	bic.w	r3, r3, #256	; 0x100
 80071d8:	f8c7 30b8 	str.w	r3, [r7, #184]	; 0xb8
 80071dc:	687b      	ldr	r3, [r7, #4]
 80071de:	681b      	ldr	r3, [r3, #0]
 80071e0:	330c      	adds	r3, #12
 80071e2:	f8d7 20b8 	ldr.w	r2, [r7, #184]	; 0xb8
 80071e6:	f8c7 2094 	str.w	r2, [r7, #148]	; 0x94
 80071ea:	f8c7 3090 	str.w	r3, [r7, #144]	; 0x90
 80071ee:	f8d7 1090 	ldr.w	r1, [r7, #144]	; 0x90
 80071f2:	f8d7 2094 	ldr.w	r2, [r7, #148]	; 0x94
 80071f6:	e841 2300 	strex	r3, r2, [r1]
 80071fa:	f8c7 308c 	str.w	r3, [r7, #140]	; 0x8c
 80071fe:	f8d7 308c 	ldr.w	r3, [r7, #140]	; 0x8c
 8007202:	2b00      	cmp	r3, #0
 8007204:	d1d9      	bne.n	80071ba <HAL_UART_IRQHandler+0x2b2>
 8007206:	687b      	ldr	r3, [r7, #4]
 8007208:	681b      	ldr	r3, [r3, #0]
 800720a:	3314      	adds	r3, #20
 800720c:	677b      	str	r3, [r7, #116]	; 0x74
 800720e:	6f7b      	ldr	r3, [r7, #116]	; 0x74
 8007210:	e853 3f00 	ldrex	r3, [r3]
 8007214:	673b      	str	r3, [r7, #112]	; 0x70
 8007216:	6f3b      	ldr	r3, [r7, #112]	; 0x70
 8007218:	f023 0301 	bic.w	r3, r3, #1
 800721c:	f8c7 30b4 	str.w	r3, [r7, #180]	; 0xb4
 8007220:	687b      	ldr	r3, [r7, #4]
 8007222:	681b      	ldr	r3, [r3, #0]
 8007224:	3314      	adds	r3, #20
 8007226:	f8d7 20b4 	ldr.w	r2, [r7, #180]	; 0xb4
 800722a:	f8c7 2080 	str.w	r2, [r7, #128]	; 0x80
 800722e:	67fb      	str	r3, [r7, #124]	; 0x7c
 8007230:	6ff9      	ldr	r1, [r7, #124]	; 0x7c
 8007232:	f8d7 2080 	ldr.w	r2, [r7, #128]	; 0x80
 8007236:	e841 2300 	strex	r3, r2, [r1]
 800723a:	67bb      	str	r3, [r7, #120]	; 0x78
 800723c:	6fbb      	ldr	r3, [r7, #120]	; 0x78
 800723e:	2b00      	cmp	r3, #0
 8007240:	d1e1      	bne.n	8007206 <HAL_UART_IRQHandler+0x2fe>
 8007242:	687b      	ldr	r3, [r7, #4]
 8007244:	681b      	ldr	r3, [r3, #0]
 8007246:	3314      	adds	r3, #20
 8007248:	663b      	str	r3, [r7, #96]	; 0x60
 800724a:	6e3b      	ldr	r3, [r7, #96]	; 0x60
 800724c:	e853 3f00 	ldrex	r3, [r3]
 8007250:	65fb      	str	r3, [r7, #92]	; 0x5c
 8007252:	6dfb      	ldr	r3, [r7, #92]	; 0x5c
 8007254:	f023 0340 	bic.w	r3, r3, #64	; 0x40
 8007258:	f8c7 30b0 	str.w	r3, [r7, #176]	; 0xb0
 800725c:	687b      	ldr	r3, [r7, #4]
 800725e:	681b      	ldr	r3, [r3, #0]
 8007260:	3314      	adds	r3, #20
 8007262:	f8d7 20b0 	ldr.w	r2, [r7, #176]	; 0xb0
 8007266:	66fa      	str	r2, [r7, #108]	; 0x6c
 8007268:	66bb      	str	r3, [r7, #104]	; 0x68
 800726a:	6eb9      	ldr	r1, [r7, #104]	; 0x68
 800726c:	6efa      	ldr	r2, [r7, #108]	; 0x6c
 800726e:	e841 2300 	strex	r3, r2, [r1]
 8007272:	667b      	str	r3, [r7, #100]	; 0x64
 8007274:	6e7b      	ldr	r3, [r7, #100]	; 0x64
 8007276:	2b00      	cmp	r3, #0
 8007278:	d1e3      	bne.n	8007242 <HAL_UART_IRQHandler+0x33a>
 800727a:	687b      	ldr	r3, [r7, #4]
 800727c:	2220      	movs	r2, #32
 800727e:	f883 2042 	strb.w	r2, [r3, #66]	; 0x42
 8007282:	687b      	ldr	r3, [r7, #4]
 8007284:	2200      	movs	r2, #0
 8007286:	631a      	str	r2, [r3, #48]	; 0x30
 8007288:	687b      	ldr	r3, [r7, #4]
 800728a:	681b      	ldr	r3, [r3, #0]
 800728c:	330c      	adds	r3, #12
 800728e:	64fb      	str	r3, [r7, #76]	; 0x4c
 8007290:	6cfb      	ldr	r3, [r7, #76]	; 0x4c
 8007292:	e853 3f00 	ldrex	r3, [r3]
 8007296:	64bb      	str	r3, [r7, #72]	; 0x48
 8007298:	6cbb      	ldr	r3, [r7, #72]	; 0x48
 800729a:	f023 0310 	bic.w	r3, r3, #16
 800729e:	f8c7 30ac 	str.w	r3, [r7, #172]	; 0xac
 80072a2:	687b      	ldr	r3, [r7, #4]
 80072a4:	681b      	ldr	r3, [r3, #0]
 80072a6:	330c      	adds	r3, #12
 80072a8:	f8d7 20ac 	ldr.w	r2, [r7, #172]	; 0xac
 80072ac:	65ba      	str	r2, [r7, #88]	; 0x58
 80072ae:	657b      	str	r3, [r7, #84]	; 0x54
 80072b0:	6d79      	ldr	r1, [r7, #84]	; 0x54
 80072b2:	6dba      	ldr	r2, [r7, #88]	; 0x58
 80072b4:	e841 2300 	strex	r3, r2, [r1]
 80072b8:	653b      	str	r3, [r7, #80]	; 0x50
 80072ba:	6d3b      	ldr	r3, [r7, #80]	; 0x50
 80072bc:	2b00      	cmp	r3, #0
 80072be:	d1e3      	bne.n	8007288 <HAL_UART_IRQHandler+0x380>
 80072c0:	687b      	ldr	r3, [r7, #4]
 80072c2:	6bdb      	ldr	r3, [r3, #60]	; 0x3c
 80072c4:	4618      	mov	r0, r3
 80072c6:	f7fc ff1d 	bl	8004104 <HAL_DMA_Abort>
 80072ca:	687b      	ldr	r3, [r7, #4]
 80072cc:	2202      	movs	r2, #2
 80072ce:	635a      	str	r2, [r3, #52]	; 0x34
 80072d0:	687b      	ldr	r3, [r7, #4]
 80072d2:	8d9a      	ldrh	r2, [r3, #44]	; 0x2c
 80072d4:	687b      	ldr	r3, [r7, #4]
 80072d6:	8ddb      	ldrh	r3, [r3, #46]	; 0x2e
 80072d8:	b29b      	uxth	r3, r3
 80072da:	1ad3      	subs	r3, r2, r3
 80072dc:	b29b      	uxth	r3, r3
 80072de:	4619      	mov	r1, r3
 80072e0:	6878      	ldr	r0, [r7, #4]
 80072e2:	f7fb fad3 	bl	800288c <HAL_UARTEx_RxEventCallback>
 80072e6:	e09b      	b.n	8007420 <HAL_UART_IRQHandler+0x518>
 80072e8:	08007655 	.word	0x08007655
 80072ec:	687b      	ldr	r3, [r7, #4]
 80072ee:	8d9a      	ldrh	r2, [r3, #44]	; 0x2c
 80072f0:	687b      	ldr	r3, [r7, #4]
 80072f2:	8ddb      	ldrh	r3, [r3, #46]	; 0x2e
 80072f4:	b29b      	uxth	r3, r3
 80072f6:	1ad3      	subs	r3, r2, r3
 80072f8:	f8a7 30ce 	strh.w	r3, [r7, #206]	; 0xce
 80072fc:	687b      	ldr	r3, [r7, #4]
 80072fe:	8ddb      	ldrh	r3, [r3, #46]	; 0x2e
 8007300:	b29b      	uxth	r3, r3
 8007302:	2b00      	cmp	r3, #0
 8007304:	f000 808e 	beq.w	8007424 <HAL_UART_IRQHandler+0x51c>
 8007308:	f8b7 30ce 	ldrh.w	r3, [r7, #206]	; 0xce
 800730c:	2b00      	cmp	r3, #0
 800730e:	f000 8089 	beq.w	8007424 <HAL_UART_IRQHandler+0x51c>
 8007312:	687b      	ldr	r3, [r7, #4]
 8007314:	681b      	ldr	r3, [r3, #0]
 8007316:	330c      	adds	r3, #12
 8007318:	63bb      	str	r3, [r7, #56]	; 0x38
 800731a:	6bbb      	ldr	r3, [r7, #56]	; 0x38
 800731c:	e853 3f00 	ldrex	r3, [r3]
 8007320:	637b      	str	r3, [r7, #52]	; 0x34
 8007322:	6b7b      	ldr	r3, [r7, #52]	; 0x34
 8007324:	f423 7390 	bic.w	r3, r3, #288	; 0x120
 8007328:	f8c7 30c8 	str.w	r3, [r7, #200]	; 0xc8
 800732c:	687b      	ldr	r3, [r7, #4]
 800732e:	681b      	ldr	r3, [r3, #0]
 8007330:	330c      	adds	r3, #12
 8007332:	f8d7 20c8 	ldr.w	r2, [r7, #200]	; 0xc8
 8007336:	647a      	str	r2, [r7, #68]	; 0x44
 8007338:	643b      	str	r3, [r7, #64]	; 0x40
 800733a:	6c39      	ldr	r1, [r7, #64]	; 0x40
 800733c:	6c7a      	ldr	r2, [r7, #68]	; 0x44
 800733e:	e841 2300 	strex	r3, r2, [r1]
 8007342:	63fb      	str	r3, [r7, #60]	; 0x3c
 8007344:	6bfb      	ldr	r3, [r7, #60]	; 0x3c
 8007346:	2b00      	cmp	r3, #0
 8007348:	d1e3      	bne.n	8007312 <HAL_UART_IRQHandler+0x40a>
 800734a:	687b      	ldr	r3, [r7, #4]
 800734c:	681b      	ldr	r3, [r3, #0]
 800734e:	3314      	adds	r3, #20
 8007350:	627b      	str	r3, [r7, #36]	; 0x24
 8007352:	6a7b      	ldr	r3, [r7, #36]	; 0x24
 8007354:	e853 3f00 	ldrex	r3, [r3]
 8007358:	623b      	str	r3, [r7, #32]
 800735a:	6a3b      	ldr	r3, [r7, #32]
 800735c:	f023 0301 	bic.w	r3, r3, #1
 8007360:	f8c7 30c4 	str.w	r3, [r7, #196]	; 0xc4
 8007364:	687b      	ldr	r3, [r7, #4]
 8007366:	681b      	ldr	r3, [r3, #0]
 8007368:	3314      	adds	r3, #20
 800736a:	f8d7 20c4 	ldr.w	r2, [r7, #196]	; 0xc4
 800736e:	633a      	str	r2, [r7, #48]	; 0x30
 8007370:	62fb      	str	r3, [r7, #44]	; 0x2c
 8007372:	6af9      	ldr	r1, [r7, #44]	; 0x2c
 8007374:	6b3a      	ldr	r2, [r7, #48]	; 0x30
 8007376:	e841 2300 	strex	r3, r2, [r1]
 800737a:	62bb      	str	r3, [r7, #40]	; 0x28
 800737c:	6abb      	ldr	r3, [r7, #40]	; 0x28
 800737e:	2b00      	cmp	r3, #0
 8007380:	d1e3      	bne.n	800734a <HAL_UART_IRQHandler+0x442>
 8007382:	687b      	ldr	r3, [r7, #4]
 8007384:	2220      	movs	r2, #32
 8007386:	f883 2042 	strb.w	r2, [r3, #66]	; 0x42
 800738a:	687b      	ldr	r3, [r7, #4]
 800738c:	2200      	movs	r2, #0
 800738e:	631a      	str	r2, [r3, #48]	; 0x30
 8007390:	687b      	ldr	r3, [r7, #4]
 8007392:	681b      	ldr	r3, [r3, #0]
 8007394:	330c      	adds	r3, #12
 8007396:	613b      	str	r3, [r7, #16]
 8007398:	693b      	ldr	r3, [r7, #16]
 800739a:	e853 3f00 	ldrex	r3, [r3]
 800739e:	60fb      	str	r3, [r7, #12]
 80073a0:	68fb      	ldr	r3, [r7, #12]
 80073a2:	f023 0310 	bic.w	r3, r3, #16
 80073a6:	f8c7 30c0 	str.w	r3, [r7, #192]	; 0xc0
 80073aa:	687b      	ldr	r3, [r7, #4]
 80073ac:	681b      	ldr	r3, [r3, #0]
 80073ae:	330c      	adds	r3, #12
 80073b0:	f8d7 20c0 	ldr.w	r2, [r7, #192]	; 0xc0
 80073b4:	61fa      	str	r2, [r7, #28]
 80073b6:	61bb      	str	r3, [r7, #24]
 80073b8:	69b9      	ldr	r1, [r7, #24]
 80073ba:	69fa      	ldr	r2, [r7, #28]
 80073bc:	e841 2300 	strex	r3, r2, [r1]
 80073c0:	617b      	str	r3, [r7, #20]
 80073c2:	697b      	ldr	r3, [r7, #20]
 80073c4:	2b00      	cmp	r3, #0
 80073c6:	d1e3      	bne.n	8007390 <HAL_UART_IRQHandler+0x488>
 80073c8:	687b      	ldr	r3, [r7, #4]
 80073ca:	2202      	movs	r2, #2
 80073cc:	635a      	str	r2, [r3, #52]	; 0x34
 80073ce:	f8b7 30ce 	ldrh.w	r3, [r7, #206]	; 0xce
 80073d2:	4619      	mov	r1, r3
 80073d4:	6878      	ldr	r0, [r7, #4]
 80073d6:	f7fb fa59 	bl	800288c <HAL_UARTEx_RxEventCallback>
 80073da:	e023      	b.n	8007424 <HAL_UART_IRQHandler+0x51c>
 80073dc:	f8d7 30e4 	ldr.w	r3, [r7, #228]	; 0xe4
 80073e0:	f003 0380 	and.w	r3, r3, #128	; 0x80
 80073e4:	2b00      	cmp	r3, #0
 80073e6:	d009      	beq.n	80073fc <HAL_UART_IRQHandler+0x4f4>
 80073e8:	f8d7 30e0 	ldr.w	r3, [r7, #224]	; 0xe0
 80073ec:	f003 0380 	and.w	r3, r3, #128	; 0x80
 80073f0:	2b00      	cmp	r3, #0
 80073f2:	d003      	beq.n	80073fc <HAL_UART_IRQHandler+0x4f4>
 80073f4:	6878      	ldr	r0, [r7, #4]
 80073f6:	f000 f941 	bl	800767c <UART_Transmit_IT>
 80073fa:	e014      	b.n	8007426 <HAL_UART_IRQHandler+0x51e>
 80073fc:	f8d7 30e4 	ldr.w	r3, [r7, #228]	; 0xe4
 8007400:	f003 0340 	and.w	r3, r3, #64	; 0x40
 8007404:	2b00      	cmp	r3, #0
 8007406:	d00e      	beq.n	8007426 <HAL_UART_IRQHandler+0x51e>
 8007408:	f8d7 30e0 	ldr.w	r3, [r7, #224]	; 0xe0
 800740c:	f003 0340 	and.w	r3, r3, #64	; 0x40
 8007410:	2b00      	cmp	r3, #0
 8007412:	d008      	beq.n	8007426 <HAL_UART_IRQHandler+0x51e>
 8007414:	6878      	ldr	r0, [r7, #4]
 8007416:	f000 f981 	bl	800771c <UART_EndTransmit_IT>
 800741a:	e004      	b.n	8007426 <HAL_UART_IRQHandler+0x51e>
 800741c:	bf00      	nop
 800741e:	e002      	b.n	8007426 <HAL_UART_IRQHandler+0x51e>
 8007420:	bf00      	nop
 8007422:	e000      	b.n	8007426 <HAL_UART_IRQHandler+0x51e>
 8007424:	bf00      	nop
 8007426:	37e8      	adds	r7, #232	; 0xe8
 8007428:	46bd      	mov	sp, r7
 800742a:	bd80      	pop	{r7, pc}

0800742c <HAL_UART_TxCpltCallback>:
 800742c:	b480      	push	{r7}
 800742e:	b083      	sub	sp, #12
 8007430:	af00      	add	r7, sp, #0
 8007432:	6078      	str	r0, [r7, #4]
 8007434:	bf00      	nop
 8007436:	370c      	adds	r7, #12
 8007438:	46bd      	mov	sp, r7
 800743a:	f85d 7b04 	ldr.w	r7, [sp], #4
 800743e:	4770      	bx	lr

08007440 <HAL_UART_RxCpltCallback>:
 8007440:	b480      	push	{r7}
 8007442:	b083      	sub	sp, #12
 8007444:	af00      	add	r7, sp, #0
 8007446:	6078      	str	r0, [r7, #4]
 8007448:	bf00      	nop
 800744a:	370c      	adds	r7, #12
 800744c:	46bd      	mov	sp, r7
 800744e:	f85d 7b04 	ldr.w	r7, [sp], #4
 8007452:	4770      	bx	lr

08007454 <HAL_UART_ErrorCallback>:
 8007454:	b480      	push	{r7}
 8007456:	b083      	sub	sp, #12
 8007458:	af00      	add	r7, sp, #0
 800745a:	6078      	str	r0, [r7, #4]
 800745c:	bf00      	nop
 800745e:	370c      	adds	r7, #12
 8007460:	46bd      	mov	sp, r7
 8007462:	f85d 7b04 	ldr.w	r7, [sp], #4
 8007466:	4770      	bx	lr

08007468 <UART_WaitOnFlagUntilTimeout>:
 8007468:	b580      	push	{r7, lr}
 800746a:	b086      	sub	sp, #24
 800746c:	af00      	add	r7, sp, #0
 800746e:	60f8      	str	r0, [r7, #12]
 8007470:	60b9      	str	r1, [r7, #8]
 8007472:	603b      	str	r3, [r7, #0]
 8007474:	4613      	mov	r3, r2
 8007476:	71fb      	strb	r3, [r7, #7]
 8007478:	e03b      	b.n	80074f2 <UART_WaitOnFlagUntilTimeout+0x8a>
 800747a:	6a3b      	ldr	r3, [r7, #32]
 800747c:	f1b3 3fff 	cmp.w	r3, #4294967295
 8007480:	d037      	beq.n	80074f2 <UART_WaitOnFlagUntilTimeout+0x8a>
 8007482:	f7fb ffe5 	bl	8003450 <HAL_GetTick>
 8007486:	4602      	mov	r2, r0
 8007488:	683b      	ldr	r3, [r7, #0]
 800748a:	1ad3      	subs	r3, r2, r3
 800748c:	6a3a      	ldr	r2, [r7, #32]
 800748e:	429a      	cmp	r2, r3
 8007490:	d302      	bcc.n	8007498 <UART_WaitOnFlagUntilTimeout+0x30>
 8007492:	6a3b      	ldr	r3, [r7, #32]
 8007494:	2b00      	cmp	r3, #0
 8007496:	d101      	bne.n	800749c <UART_WaitOnFlagUntilTimeout+0x34>
 8007498:	2303      	movs	r3, #3
 800749a:	e03a      	b.n	8007512 <UART_WaitOnFlagUntilTimeout+0xaa>
 800749c:	68fb      	ldr	r3, [r7, #12]
 800749e:	681b      	ldr	r3, [r3, #0]
 80074a0:	68db      	ldr	r3, [r3, #12]
 80074a2:	f003 0304 	and.w	r3, r3, #4
 80074a6:	2b00      	cmp	r3, #0
 80074a8:	d023      	beq.n	80074f2 <UART_WaitOnFlagUntilTimeout+0x8a>
 80074aa:	68bb      	ldr	r3, [r7, #8]
 80074ac:	2b80      	cmp	r3, #128	; 0x80
 80074ae:	d020      	beq.n	80074f2 <UART_WaitOnFlagUntilTimeout+0x8a>
 80074b0:	68bb      	ldr	r3, [r7, #8]
 80074b2:	2b40      	cmp	r3, #64	; 0x40
 80074b4:	d01d      	beq.n	80074f2 <UART_WaitOnFlagUntilTimeout+0x8a>
 80074b6:	68fb      	ldr	r3, [r7, #12]
 80074b8:	681b      	ldr	r3, [r3, #0]
 80074ba:	681b      	ldr	r3, [r3, #0]
 80074bc:	f003 0308 	and.w	r3, r3, #8
 80074c0:	2b08      	cmp	r3, #8
 80074c2:	d116      	bne.n	80074f2 <UART_WaitOnFlagUntilTimeout+0x8a>
 80074c4:	2300      	movs	r3, #0
 80074c6:	617b      	str	r3, [r7, #20]
 80074c8:	68fb      	ldr	r3, [r7, #12]
 80074ca:	681b      	ldr	r3, [r3, #0]
 80074cc:	681b      	ldr	r3, [r3, #0]
 80074ce:	617b      	str	r3, [r7, #20]
 80074d0:	68fb      	ldr	r3, [r7, #12]
 80074d2:	681b      	ldr	r3, [r3, #0]
 80074d4:	685b      	ldr	r3, [r3, #4]
 80074d6:	617b      	str	r3, [r7, #20]
 80074d8:	697b      	ldr	r3, [r7, #20]
 80074da:	68f8      	ldr	r0, [r7, #12]
 80074dc:	f000 f857 	bl	800758e <UART_EndRxTransfer>
 80074e0:	68fb      	ldr	r3, [r7, #12]
 80074e2:	2208      	movs	r2, #8
 80074e4:	645a      	str	r2, [r3, #68]	; 0x44
 80074e6:	68fb      	ldr	r3, [r7, #12]
 80074e8:	2200      	movs	r2, #0
 80074ea:	f883 2040 	strb.w	r2, [r3, #64]	; 0x40
 80074ee:	2301      	movs	r3, #1
 80074f0:	e00f      	b.n	8007512 <UART_WaitOnFlagUntilTimeout+0xaa>
 80074f2:	68fb      	ldr	r3, [r7, #12]
 80074f4:	681b      	ldr	r3, [r3, #0]
 80074f6:	681a      	ldr	r2, [r3, #0]
 80074f8:	68bb      	ldr	r3, [r7, #8]
 80074fa:	4013      	ands	r3, r2
 80074fc:	68ba      	ldr	r2, [r7, #8]
 80074fe:	429a      	cmp	r2, r3
 8007500:	bf0c      	ite	eq
 8007502:	2301      	moveq	r3, #1
 8007504:	2300      	movne	r3, #0
 8007506:	b2db      	uxtb	r3, r3
 8007508:	461a      	mov	r2, r3
 800750a:	79fb      	ldrb	r3, [r7, #7]
 800750c:	429a      	cmp	r2, r3
 800750e:	d0b4      	beq.n	800747a <UART_WaitOnFlagUntilTimeout+0x12>
 8007510:	2300      	movs	r3, #0
 8007512:	4618      	mov	r0, r3
 8007514:	3718      	adds	r7, #24
 8007516:	46bd      	mov	sp, r7
 8007518:	bd80      	pop	{r7, pc}

0800751a <UART_Start_Receive_IT>:
 800751a:	b480      	push	{r7}
 800751c:	b085      	sub	sp, #20
 800751e:	af00      	add	r7, sp, #0
 8007520:	60f8      	str	r0, [r7, #12]
 8007522:	60b9      	str	r1, [r7, #8]
 8007524:	4613      	mov	r3, r2
 8007526:	80fb      	strh	r3, [r7, #6]
 8007528:	68fb      	ldr	r3, [r7, #12]
 800752a:	68ba      	ldr	r2, [r7, #8]
 800752c:	629a      	str	r2, [r3, #40]	; 0x28
 800752e:	68fb      	ldr	r3, [r7, #12]
 8007530:	88fa      	ldrh	r2, [r7, #6]
 8007532:	859a      	strh	r2, [r3, #44]	; 0x2c
 8007534:	68fb      	ldr	r3, [r7, #12]
 8007536:	88fa      	ldrh	r2, [r7, #6]
 8007538:	85da      	strh	r2, [r3, #46]	; 0x2e
 800753a:	68fb      	ldr	r3, [r7, #12]
 800753c:	2200      	movs	r2, #0
 800753e:	645a      	str	r2, [r3, #68]	; 0x44
 8007540:	68fb      	ldr	r3, [r7, #12]
 8007542:	2222      	movs	r2, #34	; 0x22
 8007544:	f883 2042 	strb.w	r2, [r3, #66]	; 0x42
 8007548:	68fb      	ldr	r3, [r7, #12]
 800754a:	691b      	ldr	r3, [r3, #16]
 800754c:	2b00      	cmp	r3, #0
 800754e:	d007      	beq.n	8007560 <UART_Start_Receive_IT+0x46>
 8007550:	68fb      	ldr	r3, [r7, #12]
 8007552:	681b      	ldr	r3, [r3, #0]
 8007554:	68da      	ldr	r2, [r3, #12]
 8007556:	68fb      	ldr	r3, [r7, #12]
 8007558:	681b      	ldr	r3, [r3, #0]
 800755a:	f442 7280 	orr.w	r2, r2, #256	; 0x100
 800755e:	60da      	str	r2, [r3, #12]
 8007560:	68fb      	ldr	r3, [r7, #12]
 8007562:	681b      	ldr	r3, [r3, #0]
 8007564:	695a      	ldr	r2, [r3, #20]
 8007566:	68fb      	ldr	r3, [r7, #12]
 8007568:	681b      	ldr	r3, [r3, #0]
 800756a:	f042 0201 	orr.w	r2, r2, #1
 800756e:	615a      	str	r2, [r3, #20]
 8007570:	68fb      	ldr	r3, [r7, #12]
 8007572:	681b      	ldr	r3, [r3, #0]
 8007574:	68da      	ldr	r2, [r3, #12]
 8007576:	68fb      	ldr	r3, [r7, #12]
 8007578:	681b      	ldr	r3, [r3, #0]
 800757a:	f042 0220 	orr.w	r2, r2, #32
 800757e:	60da      	str	r2, [r3, #12]
 8007580:	2300      	movs	r3, #0
 8007582:	4618      	mov	r0, r3
 8007584:	3714      	adds	r7, #20
 8007586:	46bd      	mov	sp, r7
 8007588:	f85d 7b04 	ldr.w	r7, [sp], #4
 800758c:	4770      	bx	lr

0800758e <UART_EndRxTransfer>:
 800758e:	b480      	push	{r7}
 8007590:	b095      	sub	sp, #84	; 0x54
 8007592:	af00      	add	r7, sp, #0
 8007594:	6078      	str	r0, [r7, #4]
 8007596:	687b      	ldr	r3, [r7, #4]
 8007598:	681b      	ldr	r3, [r3, #0]
 800759a:	330c      	adds	r3, #12
 800759c:	637b      	str	r3, [r7, #52]	; 0x34
 800759e:	6b7b      	ldr	r3, [r7, #52]	; 0x34
 80075a0:	e853 3f00 	ldrex	r3, [r3]
 80075a4:	633b      	str	r3, [r7, #48]	; 0x30
 80075a6:	6b3b      	ldr	r3, [r7, #48]	; 0x30
 80075a8:	f423 7390 	bic.w	r3, r3, #288	; 0x120
 80075ac:	64fb      	str	r3, [r7, #76]	; 0x4c
 80075ae:	687b      	ldr	r3, [r7, #4]
 80075b0:	681b      	ldr	r3, [r3, #0]
 80075b2:	330c      	adds	r3, #12
 80075b4:	6cfa      	ldr	r2, [r7, #76]	; 0x4c
 80075b6:	643a      	str	r2, [r7, #64]	; 0x40
 80075b8:	63fb      	str	r3, [r7, #60]	; 0x3c
 80075ba:	6bf9      	ldr	r1, [r7, #60]	; 0x3c
 80075bc:	6c3a      	ldr	r2, [r7, #64]	; 0x40
 80075be:	e841 2300 	strex	r3, r2, [r1]
 80075c2:	63bb      	str	r3, [r7, #56]	; 0x38
 80075c4:	6bbb      	ldr	r3, [r7, #56]	; 0x38
 80075c6:	2b00      	cmp	r3, #0
 80075c8:	d1e5      	bne.n	8007596 <UART_EndRxTransfer+0x8>
 80075ca:	687b      	ldr	r3, [r7, #4]
 80075cc:	681b      	ldr	r3, [r3, #0]
 80075ce:	3314      	adds	r3, #20
 80075d0:	623b      	str	r3, [r7, #32]
 80075d2:	6a3b      	ldr	r3, [r7, #32]
 80075d4:	e853 3f00 	ldrex	r3, [r3]
 80075d8:	61fb      	str	r3, [r7, #28]
 80075da:	69fb      	ldr	r3, [r7, #28]
 80075dc:	f023 0301 	bic.w	r3, r3, #1
 80075e0:	64bb      	str	r3, [r7, #72]	; 0x48
 80075e2:	687b      	ldr	r3, [r7, #4]
 80075e4:	681b      	ldr	r3, [r3, #0]
 80075e6:	3314      	adds	r3, #20
 80075e8:	6cba      	ldr	r2, [r7, #72]	; 0x48
 80075ea:	62fa      	str	r2, [r7, #44]	; 0x2c
 80075ec:	62bb      	str	r3, [r7, #40]	; 0x28
 80075ee:	6ab9      	ldr	r1, [r7, #40]	; 0x28
 80075f0:	6afa      	ldr	r2, [r7, #44]	; 0x2c
 80075f2:	e841 2300 	strex	r3, r2, [r1]
 80075f6:	627b      	str	r3, [r7, #36]	; 0x24
 80075f8:	6a7b      	ldr	r3, [r7, #36]	; 0x24
 80075fa:	2b00      	cmp	r3, #0
 80075fc:	d1e5      	bne.n	80075ca <UART_EndRxTransfer+0x3c>
 80075fe:	687b      	ldr	r3, [r7, #4]
 8007600:	6b1b      	ldr	r3, [r3, #48]	; 0x30
 8007602:	2b01      	cmp	r3, #1
 8007604:	d119      	bne.n	800763a <UART_EndRxTransfer+0xac>
 8007606:	687b      	ldr	r3, [r7, #4]
 8007608:	681b      	ldr	r3, [r3, #0]
 800760a:	330c      	adds	r3, #12
 800760c:	60fb      	str	r3, [r7, #12]
 800760e:	68fb      	ldr	r3, [r7, #12]
 8007610:	e853 3f00 	ldrex	r3, [r3]
 8007614:	60bb      	str	r3, [r7, #8]
 8007616:	68bb      	ldr	r3, [r7, #8]
 8007618:	f023 0310 	bic.w	r3, r3, #16
 800761c:	647b      	str	r3, [r7, #68]	; 0x44
 800761e:	687b      	ldr	r3, [r7, #4]
 8007620:	681b      	ldr	r3, [r3, #0]
 8007622:	330c      	adds	r3, #12
 8007624:	6c7a      	ldr	r2, [r7, #68]	; 0x44
 8007626:	61ba      	str	r2, [r7, #24]
 8007628:	617b      	str	r3, [r7, #20]
 800762a:	6979      	ldr	r1, [r7, #20]
 800762c:	69ba      	ldr	r2, [r7, #24]
 800762e:	e841 2300 	strex	r3, r2, [r1]
 8007632:	613b      	str	r3, [r7, #16]
 8007634:	693b      	ldr	r3, [r7, #16]
 8007636:	2b00      	cmp	r3, #0
 8007638:	d1e5      	bne.n	8007606 <UART_EndRxTransfer+0x78>
 800763a:	687b      	ldr	r3, [r7, #4]
 800763c:	2220      	movs	r2, #32
 800763e:	f883 2042 	strb.w	r2, [r3, #66]	; 0x42
 8007642:	687b      	ldr	r3, [r7, #4]
 8007644:	2200      	movs	r2, #0
 8007646:	631a      	str	r2, [r3, #48]	; 0x30
 8007648:	bf00      	nop
 800764a:	3754      	adds	r7, #84	; 0x54
 800764c:	46bd      	mov	sp, r7
 800764e:	f85d 7b04 	ldr.w	r7, [sp], #4
 8007652:	4770      	bx	lr

08007654 <UART_DMAAbortOnError>:
 8007654:	b580      	push	{r7, lr}
 8007656:	b084      	sub	sp, #16
 8007658:	af00      	add	r7, sp, #0
 800765a:	6078      	str	r0, [r7, #4]
 800765c:	687b      	ldr	r3, [r7, #4]
 800765e:	6b9b      	ldr	r3, [r3, #56]	; 0x38
 8007660:	60fb      	str	r3, [r7, #12]
 8007662:	68fb      	ldr	r3, [r7, #12]
 8007664:	2200      	movs	r2, #0
 8007666:	85da      	strh	r2, [r3, #46]	; 0x2e
 8007668:	68fb      	ldr	r3, [r7, #12]
 800766a:	2200      	movs	r2, #0
 800766c:	84da      	strh	r2, [r3, #38]	; 0x26
 800766e:	68f8      	ldr	r0, [r7, #12]
 8007670:	f7ff fef0 	bl	8007454 <HAL_UART_ErrorCallback>
 8007674:	bf00      	nop
 8007676:	3710      	adds	r7, #16
 8007678:	46bd      	mov	sp, r7
 800767a:	bd80      	pop	{r7, pc}

0800767c <UART_Transmit_IT>:
 800767c:	b480      	push	{r7}
 800767e:	b085      	sub	sp, #20
 8007680:	af00      	add	r7, sp, #0
 8007682:	6078      	str	r0, [r7, #4]
 8007684:	687b      	ldr	r3, [r7, #4]
 8007686:	f893 3041 	ldrb.w	r3, [r3, #65]	; 0x41
 800768a:	b2db      	uxtb	r3, r3
 800768c:	2b21      	cmp	r3, #33	; 0x21
 800768e:	d13e      	bne.n	800770e <UART_Transmit_IT+0x92>
 8007690:	687b      	ldr	r3, [r7, #4]
 8007692:	689b      	ldr	r3, [r3, #8]
 8007694:	f5b3 5f80 	cmp.w	r3, #4096	; 0x1000
 8007698:	d114      	bne.n	80076c4 <UART_Transmit_IT+0x48>
 800769a:	687b      	ldr	r3, [r7, #4]
 800769c:	691b      	ldr	r3, [r3, #16]
 800769e:	2b00      	cmp	r3, #0
 80076a0:	d110      	bne.n	80076c4 <UART_Transmit_IT+0x48>
 80076a2:	687b      	ldr	r3, [r7, #4]
 80076a4:	6a1b      	ldr	r3, [r3, #32]
 80076a6:	60fb      	str	r3, [r7, #12]
 80076a8:	68fb      	ldr	r3, [r7, #12]
 80076aa:	881b      	ldrh	r3, [r3, #0]
 80076ac:	461a      	mov	r2, r3
 80076ae:	687b      	ldr	r3, [r7, #4]
 80076b0:	681b      	ldr	r3, [r3, #0]
 80076b2:	f3c2 0208 	ubfx	r2, r2, #0, #9
 80076b6:	605a      	str	r2, [r3, #4]
 80076b8:	687b      	ldr	r3, [r7, #4]
 80076ba:	6a1b      	ldr	r3, [r3, #32]
 80076bc:	1c9a      	adds	r2, r3, #2
 80076be:	687b      	ldr	r3, [r7, #4]
 80076c0:	621a      	str	r2, [r3, #32]
 80076c2:	e008      	b.n	80076d6 <UART_Transmit_IT+0x5a>
 80076c4:	687b      	ldr	r3, [r7, #4]
 80076c6:	6a1b      	ldr	r3, [r3, #32]
 80076c8:	1c59      	adds	r1, r3, #1
 80076ca:	687a      	ldr	r2, [r7, #4]
 80076cc:	6211      	str	r1, [r2, #32]
 80076ce:	781a      	ldrb	r2, [r3, #0]
 80076d0:	687b      	ldr	r3, [r7, #4]
 80076d2:	681b      	ldr	r3, [r3, #0]
 80076d4:	605a      	str	r2, [r3, #4]
 80076d6:	687b      	ldr	r3, [r7, #4]
 80076d8:	8cdb      	ldrh	r3, [r3, #38]	; 0x26
 80076da:	b29b      	uxth	r3, r3
 80076dc:	3b01      	subs	r3, #1
 80076de:	b29b      	uxth	r3, r3
 80076e0:	687a      	ldr	r2, [r7, #4]
 80076e2:	4619      	mov	r1, r3
 80076e4:	84d1      	strh	r1, [r2, #38]	; 0x26
 80076e6:	2b00      	cmp	r3, #0
 80076e8:	d10f      	bne.n	800770a <UART_Transmit_IT+0x8e>
 80076ea:	687b      	ldr	r3, [r7, #4]
 80076ec:	681b      	ldr	r3, [r3, #0]
 80076ee:	68da      	ldr	r2, [r3, #12]
 80076f0:	687b      	ldr	r3, [r7, #4]
 80076f2:	681b      	ldr	r3, [r3, #0]
 80076f4:	f022 0280 	bic.w	r2, r2, #128	; 0x80
 80076f8:	60da      	str	r2, [r3, #12]
 80076fa:	687b      	ldr	r3, [r7, #4]
 80076fc:	681b      	ldr	r3, [r3, #0]
 80076fe:	68da      	ldr	r2, [r3, #12]
 8007700:	687b      	ldr	r3, [r7, #4]
 8007702:	681b      	ldr	r3, [r3, #0]
 8007704:	f042 0240 	orr.w	r2, r2, #64	; 0x40
 8007708:	60da      	str	r2, [r3, #12]
 800770a:	2300      	movs	r3, #0
 800770c:	e000      	b.n	8007710 <UART_Transmit_IT+0x94>
 800770e:	2302      	movs	r3, #2
 8007710:	4618      	mov	r0, r3
 8007712:	3714      	adds	r7, #20
 8007714:	46bd      	mov	sp, r7
 8007716:	f85d 7b04 	ldr.w	r7, [sp], #4
 800771a:	4770      	bx	lr

0800771c <UART_EndTransmit_IT>:
 800771c:	b580      	push	{r7, lr}
 800771e:	b082      	sub	sp, #8
 8007720:	af00      	add	r7, sp, #0
 8007722:	6078      	str	r0, [r7, #4]
 8007724:	687b      	ldr	r3, [r7, #4]
 8007726:	681b      	ldr	r3, [r3, #0]
 8007728:	68da      	ldr	r2, [r3, #12]
 800772a:	687b      	ldr	r3, [r7, #4]
 800772c:	681b      	ldr	r3, [r3, #0]
 800772e:	f022 0240 	bic.w	r2, r2, #64	; 0x40
 8007732:	60da      	str	r2, [r3, #12]
 8007734:	687b      	ldr	r3, [r7, #4]
 8007736:	2220      	movs	r2, #32
 8007738:	f883 2041 	strb.w	r2, [r3, #65]	; 0x41
 800773c:	6878      	ldr	r0, [r7, #4]
 800773e:	f7ff fe75 	bl	800742c <HAL_UART_TxCpltCallback>
 8007742:	2300      	movs	r3, #0
 8007744:	4618      	mov	r0, r3
 8007746:	3708      	adds	r7, #8
 8007748:	46bd      	mov	sp, r7
 800774a:	bd80      	pop	{r7, pc}

0800774c <UART_Receive_IT>:
 800774c:	b580      	push	{r7, lr}
 800774e:	b08c      	sub	sp, #48	; 0x30
 8007750:	af00      	add	r7, sp, #0
 8007752:	6078      	str	r0, [r7, #4]
 8007754:	687b      	ldr	r3, [r7, #4]
 8007756:	f893 3042 	ldrb.w	r3, [r3, #66]	; 0x42
 800775a:	b2db      	uxtb	r3, r3
 800775c:	2b22      	cmp	r3, #34	; 0x22
 800775e:	f040 80ae 	bne.w	80078be <UART_Receive_IT+0x172>
 8007762:	687b      	ldr	r3, [r7, #4]
 8007764:	689b      	ldr	r3, [r3, #8]
 8007766:	f5b3 5f80 	cmp.w	r3, #4096	; 0x1000
 800776a:	d117      	bne.n	800779c <UART_Receive_IT+0x50>
 800776c:	687b      	ldr	r3, [r7, #4]
 800776e:	691b      	ldr	r3, [r3, #16]
 8007770:	2b00      	cmp	r3, #0
 8007772:	d113      	bne.n	800779c <UART_Receive_IT+0x50>
 8007774:	2300      	movs	r3, #0
 8007776:	62fb      	str	r3, [r7, #44]	; 0x2c
 8007778:	687b      	ldr	r3, [r7, #4]
 800777a:	6a9b      	ldr	r3, [r3, #40]	; 0x28
 800777c:	62bb      	str	r3, [r7, #40]	; 0x28
 800777e:	687b      	ldr	r3, [r7, #4]
 8007780:	681b      	ldr	r3, [r3, #0]
 8007782:	685b      	ldr	r3, [r3, #4]
 8007784:	b29b      	uxth	r3, r3
 8007786:	f3c3 0308 	ubfx	r3, r3, #0, #9
 800778a:	b29a      	uxth	r2, r3
 800778c:	6abb      	ldr	r3, [r7, #40]	; 0x28
 800778e:	801a      	strh	r2, [r3, #0]
 8007790:	687b      	ldr	r3, [r7, #4]
 8007792:	6a9b      	ldr	r3, [r3, #40]	; 0x28
 8007794:	1c9a      	adds	r2, r3, #2
 8007796:	687b      	ldr	r3, [r7, #4]
 8007798:	629a      	str	r2, [r3, #40]	; 0x28
 800779a:	e026      	b.n	80077ea <UART_Receive_IT+0x9e>
 800779c:	687b      	ldr	r3, [r7, #4]
 800779e:	6a9b      	ldr	r3, [r3, #40]	; 0x28
 80077a0:	62fb      	str	r3, [r7, #44]	; 0x2c
 80077a2:	2300      	movs	r3, #0
 80077a4:	62bb      	str	r3, [r7, #40]	; 0x28
 80077a6:	687b      	ldr	r3, [r7, #4]
 80077a8:	689b      	ldr	r3, [r3, #8]
 80077aa:	f5b3 5f80 	cmp.w	r3, #4096	; 0x1000
 80077ae:	d007      	beq.n	80077c0 <UART_Receive_IT+0x74>
 80077b0:	687b      	ldr	r3, [r7, #4]
 80077b2:	689b      	ldr	r3, [r3, #8]
 80077b4:	2b00      	cmp	r3, #0
 80077b6:	d10a      	bne.n	80077ce <UART_Receive_IT+0x82>
 80077b8:	687b      	ldr	r3, [r7, #4]
 80077ba:	691b      	ldr	r3, [r3, #16]
 80077bc:	2b00      	cmp	r3, #0
 80077be:	d106      	bne.n	80077ce <UART_Receive_IT+0x82>
 80077c0:	687b      	ldr	r3, [r7, #4]
 80077c2:	681b      	ldr	r3, [r3, #0]
 80077c4:	685b      	ldr	r3, [r3, #4]
 80077c6:	b2da      	uxtb	r2, r3
 80077c8:	6afb      	ldr	r3, [r7, #44]	; 0x2c
 80077ca:	701a      	strb	r2, [r3, #0]
 80077cc:	e008      	b.n	80077e0 <UART_Receive_IT+0x94>
 80077ce:	687b      	ldr	r3, [r7, #4]
 80077d0:	681b      	ldr	r3, [r3, #0]
 80077d2:	685b      	ldr	r3, [r3, #4]
 80077d4:	b2db      	uxtb	r3, r3
 80077d6:	f003 037f 	and.w	r3, r3, #127	; 0x7f
 80077da:	b2da      	uxtb	r2, r3
 80077dc:	6afb      	ldr	r3, [r7, #44]	; 0x2c
 80077de:	701a      	strb	r2, [r3, #0]
 80077e0:	687b      	ldr	r3, [r7, #4]
 80077e2:	6a9b      	ldr	r3, [r3, #40]	; 0x28
 80077e4:	1c5a      	adds	r2, r3, #1
 80077e6:	687b      	ldr	r3, [r7, #4]
 80077e8:	629a      	str	r2, [r3, #40]	; 0x28
 80077ea:	687b      	ldr	r3, [r7, #4]
 80077ec:	8ddb      	ldrh	r3, [r3, #46]	; 0x2e
 80077ee:	b29b      	uxth	r3, r3
 80077f0:	3b01      	subs	r3, #1
 80077f2:	b29b      	uxth	r3, r3
 80077f4:	687a      	ldr	r2, [r7, #4]
 80077f6:	4619      	mov	r1, r3
 80077f8:	85d1      	strh	r1, [r2, #46]	; 0x2e
 80077fa:	2b00      	cmp	r3, #0
 80077fc:	d15d      	bne.n	80078ba <UART_Receive_IT+0x16e>
 80077fe:	687b      	ldr	r3, [r7, #4]
 8007800:	681b      	ldr	r3, [r3, #0]
 8007802:	68da      	ldr	r2, [r3, #12]
 8007804:	687b      	ldr	r3, [r7, #4]
 8007806:	681b      	ldr	r3, [r3, #0]
 8007808:	f022 0220 	bic.w	r2, r2, #32
 800780c:	60da      	str	r2, [r3, #12]
 800780e:	687b      	ldr	r3, [r7, #4]
 8007810:	681b      	ldr	r3, [r3, #0]
 8007812:	68da      	ldr	r2, [r3, #12]
 8007814:	687b      	ldr	r3, [r7, #4]
 8007816:	681b      	ldr	r3, [r3, #0]
 8007818:	f422 7280 	bic.w	r2, r2, #256	; 0x100
 800781c:	60da      	str	r2, [r3, #12]
 800781e:	687b      	ldr	r3, [r7, #4]
 8007820:	681b      	ldr	r3, [r3, #0]
 8007822:	695a      	ldr	r2, [r3, #20]
 8007824:	687b      	ldr	r3, [r7, #4]
 8007826:	681b      	ldr	r3, [r3, #0]
 8007828:	f022 0201 	bic.w	r2, r2, #1
 800782c:	615a      	str	r2, [r3, #20]
 800782e:	687b      	ldr	r3, [r7, #4]
 8007830:	2220      	movs	r2, #32
 8007832:	f883 2042 	strb.w	r2, [r3, #66]	; 0x42
 8007836:	687b      	ldr	r3, [r7, #4]
 8007838:	2200      	movs	r2, #0
 800783a:	635a      	str	r2, [r3, #52]	; 0x34
 800783c:	687b      	ldr	r3, [r7, #4]
 800783e:	6b1b      	ldr	r3, [r3, #48]	; 0x30
 8007840:	2b01      	cmp	r3, #1
 8007842:	d135      	bne.n	80078b0 <UART_Receive_IT+0x164>
 8007844:	687b      	ldr	r3, [r7, #4]
 8007846:	2200      	movs	r2, #0
 8007848:	631a      	str	r2, [r3, #48]	; 0x30
 800784a:	687b      	ldr	r3, [r7, #4]
 800784c:	681b      	ldr	r3, [r3, #0]
 800784e:	330c      	adds	r3, #12
 8007850:	617b      	str	r3, [r7, #20]
 8007852:	697b      	ldr	r3, [r7, #20]
 8007854:	e853 3f00 	ldrex	r3, [r3]
 8007858:	613b      	str	r3, [r7, #16]
 800785a:	693b      	ldr	r3, [r7, #16]
 800785c:	f023 0310 	bic.w	r3, r3, #16
 8007860:	627b      	str	r3, [r7, #36]	; 0x24
 8007862:	687b      	ldr	r3, [r7, #4]
 8007864:	681b      	ldr	r3, [r3, #0]
 8007866:	330c      	adds	r3, #12
 8007868:	6a7a      	ldr	r2, [r7, #36]	; 0x24
 800786a:	623a      	str	r2, [r7, #32]
 800786c:	61fb      	str	r3, [r7, #28]
 800786e:	69f9      	ldr	r1, [r7, #28]
 8007870:	6a3a      	ldr	r2, [r7, #32]
 8007872:	e841 2300 	strex	r3, r2, [r1]
 8007876:	61bb      	str	r3, [r7, #24]
 8007878:	69bb      	ldr	r3, [r7, #24]
 800787a:	2b00      	cmp	r3, #0
 800787c:	d1e5      	bne.n	800784a <UART_Receive_IT+0xfe>
 800787e:	687b      	ldr	r3, [r7, #4]
 8007880:	681b      	ldr	r3, [r3, #0]
 8007882:	681b      	ldr	r3, [r3, #0]
 8007884:	f003 0310 	and.w	r3, r3, #16
 8007888:	2b10      	cmp	r3, #16
 800788a:	d10a      	bne.n	80078a2 <UART_Receive_IT+0x156>
 800788c:	2300      	movs	r3, #0
 800788e:	60fb      	str	r3, [r7, #12]
 8007890:	687b      	ldr	r3, [r7, #4]
 8007892:	681b      	ldr	r3, [r3, #0]
 8007894:	681b      	ldr	r3, [r3, #0]
 8007896:	60fb      	str	r3, [r7, #12]
 8007898:	687b      	ldr	r3, [r7, #4]
 800789a:	681b      	ldr	r3, [r3, #0]
 800789c:	685b      	ldr	r3, [r3, #4]
 800789e:	60fb      	str	r3, [r7, #12]
 80078a0:	68fb      	ldr	r3, [r7, #12]
 80078a2:	687b      	ldr	r3, [r7, #4]
 80078a4:	8d9b      	ldrh	r3, [r3, #44]	; 0x2c
 80078a6:	4619      	mov	r1, r3
 80078a8:	6878      	ldr	r0, [r7, #4]
 80078aa:	f7fa ffef 	bl	800288c <HAL_UARTEx_RxEventCallback>
 80078ae:	e002      	b.n	80078b6 <UART_Receive_IT+0x16a>
 80078b0:	6878      	ldr	r0, [r7, #4]
 80078b2:	f7ff fdc5 	bl	8007440 <HAL_UART_RxCpltCallback>
 80078b6:	2300      	movs	r3, #0
 80078b8:	e002      	b.n	80078c0 <UART_Receive_IT+0x174>
 80078ba:	2300      	movs	r3, #0
 80078bc:	e000      	b.n	80078c0 <UART_Receive_IT+0x174>
 80078be:	2302      	movs	r3, #2
 80078c0:	4618      	mov	r0, r3
 80078c2:	3730      	adds	r7, #48	; 0x30
 80078c4:	46bd      	mov	sp, r7
 80078c6:	bd80      	pop	{r7, pc}

080078c8 <UART_SetConfig>:
 80078c8:	e92d 4fb0 	stmdb	sp!, {r4, r5, r7, r8, r9, sl, fp, lr}
 80078cc:	b0c0      	sub	sp, #256	; 0x100
 80078ce:	af00      	add	r7, sp, #0
 80078d0:	f8c7 00f4 	str.w	r0, [r7, #244]	; 0xf4
 80078d4:	f8d7 30f4 	ldr.w	r3, [r7, #244]	; 0xf4
 80078d8:	681b      	ldr	r3, [r3, #0]
 80078da:	691b      	ldr	r3, [r3, #16]
 80078dc:	f423 5040 	bic.w	r0, r3, #12288	; 0x3000
 80078e0:	f8d7 30f4 	ldr.w	r3, [r7, #244]	; 0xf4
 80078e4:	68d9      	ldr	r1, [r3, #12]
 80078e6:	f8d7 30f4 	ldr.w	r3, [r7, #244]	; 0xf4
 80078ea:	681a      	ldr	r2, [r3, #0]
 80078ec:	ea40 0301 	orr.w	r3, r0, r1
 80078f0:	6113      	str	r3, [r2, #16]
 80078f2:	f8d7 30f4 	ldr.w	r3, [r7, #244]	; 0xf4
 80078f6:	689a      	ldr	r2, [r3, #8]
 80078f8:	f8d7 30f4 	ldr.w	r3, [r7, #244]	; 0xf4
 80078fc:	691b      	ldr	r3, [r3, #16]
 80078fe:	431a      	orrs	r2, r3
 8007900:	f8d7 30f4 	ldr.w	r3, [r7, #244]	; 0xf4
 8007904:	695b      	ldr	r3, [r3, #20]
 8007906:	431a      	orrs	r2, r3
 8007908:	f8d7 30f4 	ldr.w	r3, [r7, #244]	; 0xf4
 800790c:	69db      	ldr	r3, [r3, #28]
 800790e:	4313      	orrs	r3, r2
 8007910:	f8c7 30f8 	str.w	r3, [r7, #248]	; 0xf8
 8007914:	f8d7 30f4 	ldr.w	r3, [r7, #244]	; 0xf4
 8007918:	681b      	ldr	r3, [r3, #0]
 800791a:	68db      	ldr	r3, [r3, #12]
 800791c:	f423 4116 	bic.w	r1, r3, #38400	; 0x9600
 8007920:	f021 010c 	bic.w	r1, r1, #12
 8007924:	f8d7 30f4 	ldr.w	r3, [r7, #244]	; 0xf4
 8007928:	681a      	ldr	r2, [r3, #0]
 800792a:	f8d7 30f8 	ldr.w	r3, [r7, #248]	; 0xf8
 800792e:	430b      	orrs	r3, r1
 8007930:	60d3      	str	r3, [r2, #12]
 8007932:	f8d7 30f4 	ldr.w	r3, [r7, #244]	; 0xf4
 8007936:	681b      	ldr	r3, [r3, #0]
 8007938:	695b      	ldr	r3, [r3, #20]
 800793a:	f423 7040 	bic.w	r0, r3, #768	; 0x300
 800793e:	f8d7 30f4 	ldr.w	r3, [r7, #244]	; 0xf4
 8007942:	6999      	ldr	r1, [r3, #24]
 8007944:	f8d7 30f4 	ldr.w	r3, [r7, #244]	; 0xf4
 8007948:	681a      	ldr	r2, [r3, #0]
 800794a:	ea40 0301 	orr.w	r3, r0, r1
 800794e:	6153      	str	r3, [r2, #20]
 8007950:	f8d7 30f4 	ldr.w	r3, [r7, #244]	; 0xf4
 8007954:	681a      	ldr	r2, [r3, #0]
 8007956:	4b8f      	ldr	r3, [pc, #572]	; (8007b94 <UART_SetConfig+0x2cc>)
 8007958:	429a      	cmp	r2, r3
 800795a:	d005      	beq.n	8007968 <UART_SetConfig+0xa0>
 800795c:	f8d7 30f4 	ldr.w	r3, [r7, #244]	; 0xf4
 8007960:	681a      	ldr	r2, [r3, #0]
 8007962:	4b8d      	ldr	r3, [pc, #564]	; (8007b98 <UART_SetConfig+0x2d0>)
 8007964:	429a      	cmp	r2, r3
 8007966:	d104      	bne.n	8007972 <UART_SetConfig+0xaa>
 8007968:	f7fd fe60 	bl	800562c <HAL_RCC_GetPCLK2Freq>
 800796c:	f8c7 00fc 	str.w	r0, [r7, #252]	; 0xfc
 8007970:	e003      	b.n	800797a <UART_SetConfig+0xb2>
 8007972:	f7fd fe47 	bl	8005604 <HAL_RCC_GetPCLK1Freq>
 8007976:	f8c7 00fc 	str.w	r0, [r7, #252]	; 0xfc
 800797a:	f8d7 30f4 	ldr.w	r3, [r7, #244]	; 0xf4
 800797e:	69db      	ldr	r3, [r3, #28]
 8007980:	f5b3 4f00 	cmp.w	r3, #32768	; 0x8000
 8007984:	f040 810c 	bne.w	8007ba0 <UART_SetConfig+0x2d8>
 8007988:	f8d7 30fc 	ldr.w	r3, [r7, #252]	; 0xfc
 800798c:	2200      	movs	r2, #0
 800798e:	f8c7 30e8 	str.w	r3, [r7, #232]	; 0xe8
 8007992:	f8c7 20ec 	str.w	r2, [r7, #236]	; 0xec
 8007996:	e9d7 453a 	ldrd	r4, r5, [r7, #232]	; 0xe8
 800799a:	4622      	mov	r2, r4
 800799c:	462b      	mov	r3, r5
 800799e:	1891      	adds	r1, r2, r2
 80079a0:	65b9      	str	r1, [r7, #88]	; 0x58
 80079a2:	415b      	adcs	r3, r3
 80079a4:	65fb      	str	r3, [r7, #92]	; 0x5c
 80079a6:	e9d7 2316 	ldrd	r2, r3, [r7, #88]	; 0x58
 80079aa:	4621      	mov	r1, r4
 80079ac:	eb12 0801 	adds.w	r8, r2, r1
 80079b0:	4629      	mov	r1, r5
 80079b2:	eb43 0901 	adc.w	r9, r3, r1
 80079b6:	f04f 0200 	mov.w	r2, #0
 80079ba:	f04f 0300 	mov.w	r3, #0
 80079be:	ea4f 03c9 	mov.w	r3, r9, lsl #3
 80079c2:	ea43 7358 	orr.w	r3, r3, r8, lsr #29
 80079c6:	ea4f 02c8 	mov.w	r2, r8, lsl #3
 80079ca:	4690      	mov	r8, r2
 80079cc:	4699      	mov	r9, r3
 80079ce:	4623      	mov	r3, r4
 80079d0:	eb18 0303 	adds.w	r3, r8, r3
 80079d4:	f8c7 30e0 	str.w	r3, [r7, #224]	; 0xe0
 80079d8:	462b      	mov	r3, r5
 80079da:	eb49 0303 	adc.w	r3, r9, r3
 80079de:	f8c7 30e4 	str.w	r3, [r7, #228]	; 0xe4
 80079e2:	f8d7 30f4 	ldr.w	r3, [r7, #244]	; 0xf4
 80079e6:	685b      	ldr	r3, [r3, #4]
 80079e8:	2200      	movs	r2, #0
 80079ea:	f8c7 30d8 	str.w	r3, [r7, #216]	; 0xd8
 80079ee:	f8c7 20dc 	str.w	r2, [r7, #220]	; 0xdc
 80079f2:	e9d7 1236 	ldrd	r1, r2, [r7, #216]	; 0xd8
 80079f6:	460b      	mov	r3, r1
 80079f8:	18db      	adds	r3, r3, r3
 80079fa:	653b      	str	r3, [r7, #80]	; 0x50
 80079fc:	4613      	mov	r3, r2
 80079fe:	eb42 0303 	adc.w	r3, r2, r3
 8007a02:	657b      	str	r3, [r7, #84]	; 0x54
 8007a04:	e9d7 2314 	ldrd	r2, r3, [r7, #80]	; 0x50
 8007a08:	e9d7 0138 	ldrd	r0, r1, [r7, #224]	; 0xe0
 8007a0c:	f7f8 fffa 	bl	8000a04 <__aeabi_uldivmod>
 8007a10:	4602      	mov	r2, r0
 8007a12:	460b      	mov	r3, r1
 8007a14:	4b61      	ldr	r3, [pc, #388]	; (8007b9c <UART_SetConfig+0x2d4>)
 8007a16:	fba3 2302 	umull	r2, r3, r3, r2
 8007a1a:	095b      	lsrs	r3, r3, #5
 8007a1c:	011c      	lsls	r4, r3, #4
 8007a1e:	f8d7 30fc 	ldr.w	r3, [r7, #252]	; 0xfc
 8007a22:	2200      	movs	r2, #0
 8007a24:	f8c7 30d0 	str.w	r3, [r7, #208]	; 0xd0
 8007a28:	f8c7 20d4 	str.w	r2, [r7, #212]	; 0xd4
 8007a2c:	e9d7 8934 	ldrd	r8, r9, [r7, #208]	; 0xd0
 8007a30:	4642      	mov	r2, r8
 8007a32:	464b      	mov	r3, r9
 8007a34:	1891      	adds	r1, r2, r2
 8007a36:	64b9      	str	r1, [r7, #72]	; 0x48
 8007a38:	415b      	adcs	r3, r3
 8007a3a:	64fb      	str	r3, [r7, #76]	; 0x4c
 8007a3c:	e9d7 2312 	ldrd	r2, r3, [r7, #72]	; 0x48
 8007a40:	4641      	mov	r1, r8
 8007a42:	eb12 0a01 	adds.w	sl, r2, r1
 8007a46:	4649      	mov	r1, r9
 8007a48:	eb43 0b01 	adc.w	fp, r3, r1
 8007a4c:	f04f 0200 	mov.w	r2, #0
 8007a50:	f04f 0300 	mov.w	r3, #0
 8007a54:	ea4f 03cb 	mov.w	r3, fp, lsl #3
 8007a58:	ea43 735a 	orr.w	r3, r3, sl, lsr #29
 8007a5c:	ea4f 02ca 	mov.w	r2, sl, lsl #3
 8007a60:	4692      	mov	sl, r2
 8007a62:	469b      	mov	fp, r3
 8007a64:	4643      	mov	r3, r8
 8007a66:	eb1a 0303 	adds.w	r3, sl, r3
 8007a6a:	f8c7 30c8 	str.w	r3, [r7, #200]	; 0xc8
 8007a6e:	464b      	mov	r3, r9
 8007a70:	eb4b 0303 	adc.w	r3, fp, r3
 8007a74:	f8c7 30cc 	str.w	r3, [r7, #204]	; 0xcc
 8007a78:	f8d7 30f4 	ldr.w	r3, [r7, #244]	; 0xf4
 8007a7c:	685b      	ldr	r3, [r3, #4]
 8007a7e:	2200      	movs	r2, #0
 8007a80:	f8c7 30c0 	str.w	r3, [r7, #192]	; 0xc0
 8007a84:	f8c7 20c4 	str.w	r2, [r7, #196]	; 0xc4
 8007a88:	e9d7 1230 	ldrd	r1, r2, [r7, #192]	; 0xc0
 8007a8c:	460b      	mov	r3, r1
 8007a8e:	18db      	adds	r3, r3, r3
 8007a90:	643b      	str	r3, [r7, #64]	; 0x40
 8007a92:	4613      	mov	r3, r2
 8007a94:	eb42 0303 	adc.w	r3, r2, r3
 8007a98:	647b      	str	r3, [r7, #68]	; 0x44
 8007a9a:	e9d7 2310 	ldrd	r2, r3, [r7, #64]	; 0x40
 8007a9e:	e9d7 0132 	ldrd	r0, r1, [r7, #200]	; 0xc8
 8007aa2:	f7f8 ffaf 	bl	8000a04 <__aeabi_uldivmod>
 8007aa6:	4602      	mov	r2, r0
 8007aa8:	460b      	mov	r3, r1
 8007aaa:	4611      	mov	r1, r2
 8007aac:	4b3b      	ldr	r3, [pc, #236]	; (8007b9c <UART_SetConfig+0x2d4>)
 8007aae:	fba3 2301 	umull	r2, r3, r3, r1
 8007ab2:	095b      	lsrs	r3, r3, #5
 8007ab4:	2264      	movs	r2, #100	; 0x64
 8007ab6:	fb02 f303 	mul.w	r3, r2, r3
 8007aba:	1acb      	subs	r3, r1, r3
 8007abc:	00db      	lsls	r3, r3, #3
 8007abe:	f103 0232 	add.w	r2, r3, #50	; 0x32
 8007ac2:	4b36      	ldr	r3, [pc, #216]	; (8007b9c <UART_SetConfig+0x2d4>)
 8007ac4:	fba3 2302 	umull	r2, r3, r3, r2
 8007ac8:	095b      	lsrs	r3, r3, #5
 8007aca:	005b      	lsls	r3, r3, #1
 8007acc:	f403 73f8 	and.w	r3, r3, #496	; 0x1f0
 8007ad0:	441c      	add	r4, r3
 8007ad2:	f8d7 30fc 	ldr.w	r3, [r7, #252]	; 0xfc
 8007ad6:	2200      	movs	r2, #0
 8007ad8:	f8c7 30b8 	str.w	r3, [r7, #184]	; 0xb8
 8007adc:	f8c7 20bc 	str.w	r2, [r7, #188]	; 0xbc
 8007ae0:	e9d7 892e 	ldrd	r8, r9, [r7, #184]	; 0xb8
 8007ae4:	4642      	mov	r2, r8
 8007ae6:	464b      	mov	r3, r9
 8007ae8:	1891      	adds	r1, r2, r2
 8007aea:	63b9      	str	r1, [r7, #56]	; 0x38
 8007aec:	415b      	adcs	r3, r3
 8007aee:	63fb      	str	r3, [r7, #60]	; 0x3c
 8007af0:	e9d7 230e 	ldrd	r2, r3, [r7, #56]	; 0x38
 8007af4:	4641      	mov	r1, r8
 8007af6:	1851      	adds	r1, r2, r1
 8007af8:	6339      	str	r1, [r7, #48]	; 0x30
 8007afa:	4649      	mov	r1, r9
 8007afc:	414b      	adcs	r3, r1
 8007afe:	637b      	str	r3, [r7, #52]	; 0x34
 8007b00:	f04f 0200 	mov.w	r2, #0
 8007b04:	f04f 0300 	mov.w	r3, #0
 8007b08:	e9d7 ab0c 	ldrd	sl, fp, [r7, #48]	; 0x30
 8007b0c:	4659      	mov	r1, fp
 8007b0e:	00cb      	lsls	r3, r1, #3
 8007b10:	4651      	mov	r1, sl
 8007b12:	ea43 7351 	orr.w	r3, r3, r1, lsr #29
 8007b16:	4651      	mov	r1, sl
 8007b18:	00ca      	lsls	r2, r1, #3
 8007b1a:	4610      	mov	r0, r2
 8007b1c:	4619      	mov	r1, r3
 8007b1e:	4603      	mov	r3, r0
 8007b20:	4642      	mov	r2, r8
 8007b22:	189b      	adds	r3, r3, r2
 8007b24:	f8c7 30b0 	str.w	r3, [r7, #176]	; 0xb0
 8007b28:	464b      	mov	r3, r9
 8007b2a:	460a      	mov	r2, r1
 8007b2c:	eb42 0303 	adc.w	r3, r2, r3
 8007b30:	f8c7 30b4 	str.w	r3, [r7, #180]	; 0xb4
 8007b34:	f8d7 30f4 	ldr.w	r3, [r7, #244]	; 0xf4
 8007b38:	685b      	ldr	r3, [r3, #4]
 8007b3a:	2200      	movs	r2, #0
 8007b3c:	f8c7 30a8 	str.w	r3, [r7, #168]	; 0xa8
 8007b40:	f8c7 20ac 	str.w	r2, [r7, #172]	; 0xac
 8007b44:	e9d7 122a 	ldrd	r1, r2, [r7, #168]	; 0xa8
 8007b48:	460b      	mov	r3, r1
 8007b4a:	18db      	adds	r3, r3, r3
 8007b4c:	62bb      	str	r3, [r7, #40]	; 0x28
 8007b4e:	4613      	mov	r3, r2
 8007b50:	eb42 0303 	adc.w	r3, r2, r3
 8007b54:	62fb      	str	r3, [r7, #44]	; 0x2c
 8007b56:	e9d7 230a 	ldrd	r2, r3, [r7, #40]	; 0x28
 8007b5a:	e9d7 012c 	ldrd	r0, r1, [r7, #176]	; 0xb0
 8007b5e:	f7f8 ff51 	bl	8000a04 <__aeabi_uldivmod>
 8007b62:	4602      	mov	r2, r0
 8007b64:	460b      	mov	r3, r1
 8007b66:	4b0d      	ldr	r3, [pc, #52]	; (8007b9c <UART_SetConfig+0x2d4>)
 8007b68:	fba3 1302 	umull	r1, r3, r3, r2
 8007b6c:	095b      	lsrs	r3, r3, #5
 8007b6e:	2164      	movs	r1, #100	; 0x64
 8007b70:	fb01 f303 	mul.w	r3, r1, r3
 8007b74:	1ad3      	subs	r3, r2, r3
 8007b76:	00db      	lsls	r3, r3, #3
 8007b78:	3332      	adds	r3, #50	; 0x32
 8007b7a:	4a08      	ldr	r2, [pc, #32]	; (8007b9c <UART_SetConfig+0x2d4>)
 8007b7c:	fba2 2303 	umull	r2, r3, r2, r3
 8007b80:	095b      	lsrs	r3, r3, #5
 8007b82:	f003 0207 	and.w	r2, r3, #7
 8007b86:	f8d7 30f4 	ldr.w	r3, [r7, #244]	; 0xf4
 8007b8a:	681b      	ldr	r3, [r3, #0]
 8007b8c:	4422      	add	r2, r4
 8007b8e:	609a      	str	r2, [r3, #8]
 8007b90:	e106      	b.n	8007da0 <UART_SetConfig+0x4d8>
 8007b92:	bf00      	nop
 8007b94:	40011000 	.word	0x40011000
 8007b98:	40011400 	.word	0x40011400
 8007b9c:	51eb851f 	.word	0x51eb851f
 8007ba0:	f8d7 30fc 	ldr.w	r3, [r7, #252]	; 0xfc
 8007ba4:	2200      	movs	r2, #0
 8007ba6:	f8c7 30a0 	str.w	r3, [r7, #160]	; 0xa0
 8007baa:	f8c7 20a4 	str.w	r2, [r7, #164]	; 0xa4
 8007bae:	e9d7 8928 	ldrd	r8, r9, [r7, #160]	; 0xa0
 8007bb2:	4642      	mov	r2, r8
 8007bb4:	464b      	mov	r3, r9
 8007bb6:	1891      	adds	r1, r2, r2
 8007bb8:	6239      	str	r1, [r7, #32]
 8007bba:	415b      	adcs	r3, r3
 8007bbc:	627b      	str	r3, [r7, #36]	; 0x24
 8007bbe:	e9d7 2308 	ldrd	r2, r3, [r7, #32]
 8007bc2:	4641      	mov	r1, r8
 8007bc4:	1854      	adds	r4, r2, r1
 8007bc6:	4649      	mov	r1, r9
 8007bc8:	eb43 0501 	adc.w	r5, r3, r1
 8007bcc:	f04f 0200 	mov.w	r2, #0
 8007bd0:	f04f 0300 	mov.w	r3, #0
 8007bd4:	00eb      	lsls	r3, r5, #3
 8007bd6:	ea43 7354 	orr.w	r3, r3, r4, lsr #29
 8007bda:	00e2      	lsls	r2, r4, #3
 8007bdc:	4614      	mov	r4, r2
 8007bde:	461d      	mov	r5, r3
 8007be0:	4643      	mov	r3, r8
 8007be2:	18e3      	adds	r3, r4, r3
 8007be4:	f8c7 3098 	str.w	r3, [r7, #152]	; 0x98
 8007be8:	464b      	mov	r3, r9
 8007bea:	eb45 0303 	adc.w	r3, r5, r3
 8007bee:	f8c7 309c 	str.w	r3, [r7, #156]	; 0x9c
 8007bf2:	f8d7 30f4 	ldr.w	r3, [r7, #244]	; 0xf4
 8007bf6:	685b      	ldr	r3, [r3, #4]
 8007bf8:	2200      	movs	r2, #0
 8007bfa:	f8c7 3090 	str.w	r3, [r7, #144]	; 0x90
 8007bfe:	f8c7 2094 	str.w	r2, [r7, #148]	; 0x94
 8007c02:	f04f 0200 	mov.w	r2, #0
 8007c06:	f04f 0300 	mov.w	r3, #0
 8007c0a:	e9d7 4524 	ldrd	r4, r5, [r7, #144]	; 0x90
 8007c0e:	4629      	mov	r1, r5
 8007c10:	008b      	lsls	r3, r1, #2
 8007c12:	4621      	mov	r1, r4
 8007c14:	ea43 7391 	orr.w	r3, r3, r1, lsr #30
 8007c18:	4621      	mov	r1, r4
 8007c1a:	008a      	lsls	r2, r1, #2
 8007c1c:	e9d7 0126 	ldrd	r0, r1, [r7, #152]	; 0x98
 8007c20:	f7f8 fef0 	bl	8000a04 <__aeabi_uldivmod>
 8007c24:	4602      	mov	r2, r0
 8007c26:	460b      	mov	r3, r1
 8007c28:	4b60      	ldr	r3, [pc, #384]	; (8007dac <UART_SetConfig+0x4e4>)
 8007c2a:	fba3 2302 	umull	r2, r3, r3, r2
 8007c2e:	095b      	lsrs	r3, r3, #5
 8007c30:	011c      	lsls	r4, r3, #4
 8007c32:	f8d7 30fc 	ldr.w	r3, [r7, #252]	; 0xfc
 8007c36:	2200      	movs	r2, #0
 8007c38:	f8c7 3088 	str.w	r3, [r7, #136]	; 0x88
 8007c3c:	f8c7 208c 	str.w	r2, [r7, #140]	; 0x8c
 8007c40:	e9d7 8922 	ldrd	r8, r9, [r7, #136]	; 0x88
 8007c44:	4642      	mov	r2, r8
 8007c46:	464b      	mov	r3, r9
 8007c48:	1891      	adds	r1, r2, r2
 8007c4a:	61b9      	str	r1, [r7, #24]
 8007c4c:	415b      	adcs	r3, r3
 8007c4e:	61fb      	str	r3, [r7, #28]
 8007c50:	e9d7 2306 	ldrd	r2, r3, [r7, #24]
 8007c54:	4641      	mov	r1, r8
 8007c56:	1851      	adds	r1, r2, r1
 8007c58:	6139      	str	r1, [r7, #16]
 8007c5a:	4649      	mov	r1, r9
 8007c5c:	414b      	adcs	r3, r1
 8007c5e:	617b      	str	r3, [r7, #20]
 8007c60:	f04f 0200 	mov.w	r2, #0
 8007c64:	f04f 0300 	mov.w	r3, #0
 8007c68:	e9d7 ab04 	ldrd	sl, fp, [r7, #16]
 8007c6c:	4659      	mov	r1, fp
 8007c6e:	00cb      	lsls	r3, r1, #3
 8007c70:	4651      	mov	r1, sl
 8007c72:	ea43 7351 	orr.w	r3, r3, r1, lsr #29
 8007c76:	4651      	mov	r1, sl
 8007c78:	00ca      	lsls	r2, r1, #3
 8007c7a:	4610      	mov	r0, r2
 8007c7c:	4619      	mov	r1, r3
 8007c7e:	4603      	mov	r3, r0
 8007c80:	4642      	mov	r2, r8
 8007c82:	189b      	adds	r3, r3, r2
 8007c84:	f8c7 3080 	str.w	r3, [r7, #128]	; 0x80
 8007c88:	464b      	mov	r3, r9
 8007c8a:	460a      	mov	r2, r1
 8007c8c:	eb42 0303 	adc.w	r3, r2, r3
 8007c90:	f8c7 3084 	str.w	r3, [r7, #132]	; 0x84
 8007c94:	f8d7 30f4 	ldr.w	r3, [r7, #244]	; 0xf4
 8007c98:	685b      	ldr	r3, [r3, #4]
 8007c9a:	2200      	movs	r2, #0
 8007c9c:	67bb      	str	r3, [r7, #120]	; 0x78
 8007c9e:	67fa      	str	r2, [r7, #124]	; 0x7c
 8007ca0:	f04f 0200 	mov.w	r2, #0
 8007ca4:	f04f 0300 	mov.w	r3, #0
 8007ca8:	e9d7 891e 	ldrd	r8, r9, [r7, #120]	; 0x78
 8007cac:	4649      	mov	r1, r9
 8007cae:	008b      	lsls	r3, r1, #2
 8007cb0:	4641      	mov	r1, r8
 8007cb2:	ea43 7391 	orr.w	r3, r3, r1, lsr #30
 8007cb6:	4641      	mov	r1, r8
 8007cb8:	008a      	lsls	r2, r1, #2
 8007cba:	e9d7 0120 	ldrd	r0, r1, [r7, #128]	; 0x80
 8007cbe:	f7f8 fea1 	bl	8000a04 <__aeabi_uldivmod>
 8007cc2:	4602      	mov	r2, r0
 8007cc4:	460b      	mov	r3, r1
 8007cc6:	4611      	mov	r1, r2
 8007cc8:	4b38      	ldr	r3, [pc, #224]	; (8007dac <UART_SetConfig+0x4e4>)
 8007cca:	fba3 2301 	umull	r2, r3, r3, r1
 8007cce:	095b      	lsrs	r3, r3, #5
 8007cd0:	2264      	movs	r2, #100	; 0x64
 8007cd2:	fb02 f303 	mul.w	r3, r2, r3
 8007cd6:	1acb      	subs	r3, r1, r3
 8007cd8:	011b      	lsls	r3, r3, #4
 8007cda:	3332      	adds	r3, #50	; 0x32
 8007cdc:	4a33      	ldr	r2, [pc, #204]	; (8007dac <UART_SetConfig+0x4e4>)
 8007cde:	fba2 2303 	umull	r2, r3, r2, r3
 8007ce2:	095b      	lsrs	r3, r3, #5
 8007ce4:	f003 03f0 	and.w	r3, r3, #240	; 0xf0
 8007ce8:	441c      	add	r4, r3
 8007cea:	f8d7 30fc 	ldr.w	r3, [r7, #252]	; 0xfc
 8007cee:	2200      	movs	r2, #0
 8007cf0:	673b      	str	r3, [r7, #112]	; 0x70
 8007cf2:	677a      	str	r2, [r7, #116]	; 0x74
 8007cf4:	e9d7 891c 	ldrd	r8, r9, [r7, #112]	; 0x70
 8007cf8:	4642      	mov	r2, r8
 8007cfa:	464b      	mov	r3, r9
 8007cfc:	1891      	adds	r1, r2, r2
 8007cfe:	60b9      	str	r1, [r7, #8]
 8007d00:	415b      	adcs	r3, r3
 8007d02:	60fb      	str	r3, [r7, #12]
 8007d04:	e9d7 2302 	ldrd	r2, r3, [r7, #8]
 8007d08:	4641      	mov	r1, r8
 8007d0a:	1851      	adds	r1, r2, r1
 8007d0c:	6039      	str	r1, [r7, #0]
 8007d0e:	4649      	mov	r1, r9
 8007d10:	414b      	adcs	r3, r1
 8007d12:	607b      	str	r3, [r7, #4]
 8007d14:	f04f 0200 	mov.w	r2, #0
 8007d18:	f04f 0300 	mov.w	r3, #0
 8007d1c:	e9d7 ab00 	ldrd	sl, fp, [r7]
 8007d20:	4659      	mov	r1, fp
 8007d22:	00cb      	lsls	r3, r1, #3
 8007d24:	4651      	mov	r1, sl
 8007d26:	ea43 7351 	orr.w	r3, r3, r1, lsr #29
 8007d2a:	4651      	mov	r1, sl
 8007d2c:	00ca      	lsls	r2, r1, #3
 8007d2e:	4610      	mov	r0, r2
 8007d30:	4619      	mov	r1, r3
 8007d32:	4603      	mov	r3, r0
 8007d34:	4642      	mov	r2, r8
 8007d36:	189b      	adds	r3, r3, r2
 8007d38:	66bb      	str	r3, [r7, #104]	; 0x68
 8007d3a:	464b      	mov	r3, r9
 8007d3c:	460a      	mov	r2, r1
 8007d3e:	eb42 0303 	adc.w	r3, r2, r3
 8007d42:	66fb      	str	r3, [r7, #108]	; 0x6c
 8007d44:	f8d7 30f4 	ldr.w	r3, [r7, #244]	; 0xf4
 8007d48:	685b      	ldr	r3, [r3, #4]
 8007d4a:	2200      	movs	r2, #0
 8007d4c:	663b      	str	r3, [r7, #96]	; 0x60
 8007d4e:	667a      	str	r2, [r7, #100]	; 0x64
 8007d50:	f04f 0200 	mov.w	r2, #0
 8007d54:	f04f 0300 	mov.w	r3, #0
 8007d58:	e9d7 8918 	ldrd	r8, r9, [r7, #96]	; 0x60
 8007d5c:	4649      	mov	r1, r9
 8007d5e:	008b      	lsls	r3, r1, #2
 8007d60:	4641      	mov	r1, r8
 8007d62:	ea43 7391 	orr.w	r3, r3, r1, lsr #30
 8007d66:	4641      	mov	r1, r8
 8007d68:	008a      	lsls	r2, r1, #2
 8007d6a:	e9d7 011a 	ldrd	r0, r1, [r7, #104]	; 0x68
 8007d6e:	f7f8 fe49 	bl	8000a04 <__aeabi_uldivmod>
 8007d72:	4602      	mov	r2, r0
 8007d74:	460b      	mov	r3, r1
 8007d76:	4b0d      	ldr	r3, [pc, #52]	; (8007dac <UART_SetConfig+0x4e4>)
 8007d78:	fba3 1302 	umull	r1, r3, r3, r2
 8007d7c:	095b      	lsrs	r3, r3, #5
 8007d7e:	2164      	movs	r1, #100	; 0x64
 8007d80:	fb01 f303 	mul.w	r3, r1, r3
 8007d84:	1ad3      	subs	r3, r2, r3
 8007d86:	011b      	lsls	r3, r3, #4
 8007d88:	3332      	adds	r3, #50	; 0x32
 8007d8a:	4a08      	ldr	r2, [pc, #32]	; (8007dac <UART_SetConfig+0x4e4>)
 8007d8c:	fba2 2303 	umull	r2, r3, r2, r3
 8007d90:	095b      	lsrs	r3, r3, #5
 8007d92:	f003 020f 	and.w	r2, r3, #15
 8007d96:	f8d7 30f4 	ldr.w	r3, [r7, #244]	; 0xf4
 8007d9a:	681b      	ldr	r3, [r3, #0]
 8007d9c:	4422      	add	r2, r4
 8007d9e:	609a      	str	r2, [r3, #8]
 8007da0:	bf00      	nop
 8007da2:	f507 7780 	add.w	r7, r7, #256	; 0x100
 8007da6:	46bd      	mov	sp, r7
 8007da8:	e8bd 8fb0 	ldmia.w	sp!, {r4, r5, r7, r8, r9, sl, fp, pc}
 8007dac:	51eb851f 	.word	0x51eb851f

08007db0 <FSMC_NORSRAM_Init>:
 8007db0:	b480      	push	{r7}
 8007db2:	b087      	sub	sp, #28
 8007db4:	af00      	add	r7, sp, #0
 8007db6:	6078      	str	r0, [r7, #4]
 8007db8:	6039      	str	r1, [r7, #0]
 8007dba:	683b      	ldr	r3, [r7, #0]
 8007dbc:	681a      	ldr	r2, [r3, #0]
 8007dbe:	687b      	ldr	r3, [r7, #4]
 8007dc0:	f853 3022 	ldr.w	r3, [r3, r2, lsl #2]
 8007dc4:	683a      	ldr	r2, [r7, #0]
 8007dc6:	6812      	ldr	r2, [r2, #0]
 8007dc8:	f023 0101 	bic.w	r1, r3, #1
 8007dcc:	687b      	ldr	r3, [r7, #4]
 8007dce:	f843 1022 	str.w	r1, [r3, r2, lsl #2]
 8007dd2:	683b      	ldr	r3, [r7, #0]
 8007dd4:	689b      	ldr	r3, [r3, #8]
 8007dd6:	2b08      	cmp	r3, #8
 8007dd8:	d102      	bne.n	8007de0 <FSMC_NORSRAM_Init+0x30>
 8007dda:	2340      	movs	r3, #64	; 0x40
 8007ddc:	617b      	str	r3, [r7, #20]
 8007dde:	e001      	b.n	8007de4 <FSMC_NORSRAM_Init+0x34>
 8007de0:	2300      	movs	r3, #0
 8007de2:	617b      	str	r3, [r7, #20]
 8007de4:	683b      	ldr	r3, [r7, #0]
 8007de6:	685a      	ldr	r2, [r3, #4]
 8007de8:	697b      	ldr	r3, [r7, #20]
 8007dea:	431a      	orrs	r2, r3
 8007dec:	683b      	ldr	r3, [r7, #0]
 8007dee:	689b      	ldr	r3, [r3, #8]
 8007df0:	431a      	orrs	r2, r3
 8007df2:	683b      	ldr	r3, [r7, #0]
 8007df4:	68db      	ldr	r3, [r3, #12]
 8007df6:	431a      	orrs	r2, r3
 8007df8:	683b      	ldr	r3, [r7, #0]
 8007dfa:	691b      	ldr	r3, [r3, #16]
 8007dfc:	431a      	orrs	r2, r3
 8007dfe:	683b      	ldr	r3, [r7, #0]
 8007e00:	695b      	ldr	r3, [r3, #20]
 8007e02:	431a      	orrs	r2, r3
 8007e04:	683b      	ldr	r3, [r7, #0]
 8007e06:	69db      	ldr	r3, [r3, #28]
 8007e08:	431a      	orrs	r2, r3
 8007e0a:	683b      	ldr	r3, [r7, #0]
 8007e0c:	6a1b      	ldr	r3, [r3, #32]
 8007e0e:	431a      	orrs	r2, r3
 8007e10:	683b      	ldr	r3, [r7, #0]
 8007e12:	6a5b      	ldr	r3, [r3, #36]	; 0x24
 8007e14:	431a      	orrs	r2, r3
 8007e16:	683b      	ldr	r3, [r7, #0]
 8007e18:	6a9b      	ldr	r3, [r3, #40]	; 0x28
 8007e1a:	431a      	orrs	r2, r3
 8007e1c:	683b      	ldr	r3, [r7, #0]
 8007e1e:	6adb      	ldr	r3, [r3, #44]	; 0x2c
 8007e20:	431a      	orrs	r2, r3
 8007e22:	683b      	ldr	r3, [r7, #0]
 8007e24:	6b1b      	ldr	r3, [r3, #48]	; 0x30
 8007e26:	4313      	orrs	r3, r2
 8007e28:	613b      	str	r3, [r7, #16]
 8007e2a:	683b      	ldr	r3, [r7, #0]
 8007e2c:	699b      	ldr	r3, [r3, #24]
 8007e2e:	693a      	ldr	r2, [r7, #16]
 8007e30:	4313      	orrs	r3, r2
 8007e32:	613b      	str	r3, [r7, #16]
 8007e34:	683b      	ldr	r3, [r7, #0]
 8007e36:	6bdb      	ldr	r3, [r3, #60]	; 0x3c
 8007e38:	693a      	ldr	r2, [r7, #16]
 8007e3a:	4313      	orrs	r3, r2
 8007e3c:	613b      	str	r3, [r7, #16]
 8007e3e:	4b10      	ldr	r3, [pc, #64]	; (8007e80 <FSMC_NORSRAM_Init+0xd0>)
 8007e40:	60fb      	str	r3, [r7, #12]
 8007e42:	68fb      	ldr	r3, [r7, #12]
 8007e44:	f443 6380 	orr.w	r3, r3, #1024	; 0x400
 8007e48:	60fb      	str	r3, [r7, #12]
 8007e4a:	68fb      	ldr	r3, [r7, #12]
 8007e4c:	f443 23e0 	orr.w	r3, r3, #458752	; 0x70000
 8007e50:	60fb      	str	r3, [r7, #12]
 8007e52:	683b      	ldr	r3, [r7, #0]
 8007e54:	681a      	ldr	r2, [r3, #0]
 8007e56:	687b      	ldr	r3, [r7, #4]
 8007e58:	f853 2022 	ldr.w	r2, [r3, r2, lsl #2]
 8007e5c:	68fb      	ldr	r3, [r7, #12]
 8007e5e:	43db      	mvns	r3, r3
 8007e60:	ea02 0103 	and.w	r1, r2, r3
 8007e64:	683b      	ldr	r3, [r7, #0]
 8007e66:	681a      	ldr	r2, [r3, #0]
 8007e68:	693b      	ldr	r3, [r7, #16]
 8007e6a:	4319      	orrs	r1, r3
 8007e6c:	687b      	ldr	r3, [r7, #4]
 8007e6e:	f843 1022 	str.w	r1, [r3, r2, lsl #2]
 8007e72:	2300      	movs	r3, #0
 8007e74:	4618      	mov	r0, r3
 8007e76:	371c      	adds	r7, #28
 8007e78:	46bd      	mov	sp, r7
 8007e7a:	f85d 7b04 	ldr.w	r7, [sp], #4
 8007e7e:	4770      	bx	lr
 8007e80:	0008fb7f 	.word	0x0008fb7f

08007e84 <FSMC_NORSRAM_Timing_Init>:
 8007e84:	b480      	push	{r7}
 8007e86:	b085      	sub	sp, #20
 8007e88:	af00      	add	r7, sp, #0
 8007e8a:	60f8      	str	r0, [r7, #12]
 8007e8c:	60b9      	str	r1, [r7, #8]
 8007e8e:	607a      	str	r2, [r7, #4]
 8007e90:	687b      	ldr	r3, [r7, #4]
 8007e92:	1c5a      	adds	r2, r3, #1
 8007e94:	68fb      	ldr	r3, [r7, #12]
 8007e96:	f853 3022 	ldr.w	r3, [r3, r2, lsl #2]
 8007e9a:	f003 4140 	and.w	r1, r3, #3221225472	; 0xc0000000
 8007e9e:	68bb      	ldr	r3, [r7, #8]
 8007ea0:	681a      	ldr	r2, [r3, #0]
 8007ea2:	68bb      	ldr	r3, [r7, #8]
 8007ea4:	685b      	ldr	r3, [r3, #4]
 8007ea6:	011b      	lsls	r3, r3, #4
 8007ea8:	431a      	orrs	r2, r3
 8007eaa:	68bb      	ldr	r3, [r7, #8]
 8007eac:	689b      	ldr	r3, [r3, #8]
 8007eae:	021b      	lsls	r3, r3, #8
 8007eb0:	431a      	orrs	r2, r3
 8007eb2:	68bb      	ldr	r3, [r7, #8]
 8007eb4:	68db      	ldr	r3, [r3, #12]
 8007eb6:	041b      	lsls	r3, r3, #16
 8007eb8:	431a      	orrs	r2, r3
 8007eba:	68bb      	ldr	r3, [r7, #8]
 8007ebc:	691b      	ldr	r3, [r3, #16]
 8007ebe:	3b01      	subs	r3, #1
 8007ec0:	051b      	lsls	r3, r3, #20
 8007ec2:	431a      	orrs	r2, r3
 8007ec4:	68bb      	ldr	r3, [r7, #8]
 8007ec6:	695b      	ldr	r3, [r3, #20]
 8007ec8:	3b02      	subs	r3, #2
 8007eca:	061b      	lsls	r3, r3, #24
 8007ecc:	431a      	orrs	r2, r3
 8007ece:	68bb      	ldr	r3, [r7, #8]
 8007ed0:	699b      	ldr	r3, [r3, #24]
 8007ed2:	4313      	orrs	r3, r2
 8007ed4:	687a      	ldr	r2, [r7, #4]
 8007ed6:	3201      	adds	r2, #1
 8007ed8:	4319      	orrs	r1, r3
 8007eda:	68fb      	ldr	r3, [r7, #12]
 8007edc:	f843 1022 	str.w	r1, [r3, r2, lsl #2]
 8007ee0:	2300      	movs	r3, #0
 8007ee2:	4618      	mov	r0, r3
 8007ee4:	3714      	adds	r7, #20
 8007ee6:	46bd      	mov	sp, r7
 8007ee8:	f85d 7b04 	ldr.w	r7, [sp], #4
 8007eec:	4770      	bx	lr
	...

08007ef0 <FSMC_NORSRAM_Extended_Timing_Init>:
 8007ef0:	b480      	push	{r7}
 8007ef2:	b085      	sub	sp, #20
 8007ef4:	af00      	add	r7, sp, #0
 8007ef6:	60f8      	str	r0, [r7, #12]
 8007ef8:	60b9      	str	r1, [r7, #8]
 8007efa:	607a      	str	r2, [r7, #4]
 8007efc:	603b      	str	r3, [r7, #0]
 8007efe:	683b      	ldr	r3, [r7, #0]
 8007f00:	f5b3 4f80 	cmp.w	r3, #16384	; 0x4000
 8007f04:	d11d      	bne.n	8007f42 <FSMC_NORSRAM_Extended_Timing_Init+0x52>
 8007f06:	68fb      	ldr	r3, [r7, #12]
 8007f08:	687a      	ldr	r2, [r7, #4]
 8007f0a:	f853 2022 	ldr.w	r2, [r3, r2, lsl #2]
 8007f0e:	4b13      	ldr	r3, [pc, #76]	; (8007f5c <FSMC_NORSRAM_Extended_Timing_Init+0x6c>)
 8007f10:	4013      	ands	r3, r2
 8007f12:	68ba      	ldr	r2, [r7, #8]
 8007f14:	6811      	ldr	r1, [r2, #0]
 8007f16:	68ba      	ldr	r2, [r7, #8]
 8007f18:	6852      	ldr	r2, [r2, #4]
 8007f1a:	0112      	lsls	r2, r2, #4
 8007f1c:	4311      	orrs	r1, r2
 8007f1e:	68ba      	ldr	r2, [r7, #8]
 8007f20:	6892      	ldr	r2, [r2, #8]
 8007f22:	0212      	lsls	r2, r2, #8
 8007f24:	4311      	orrs	r1, r2
 8007f26:	68ba      	ldr	r2, [r7, #8]
 8007f28:	6992      	ldr	r2, [r2, #24]
 8007f2a:	4311      	orrs	r1, r2
 8007f2c:	68ba      	ldr	r2, [r7, #8]
 8007f2e:	68d2      	ldr	r2, [r2, #12]
 8007f30:	0412      	lsls	r2, r2, #16
 8007f32:	430a      	orrs	r2, r1
 8007f34:	ea43 0102 	orr.w	r1, r3, r2
 8007f38:	68fb      	ldr	r3, [r7, #12]
 8007f3a:	687a      	ldr	r2, [r7, #4]
 8007f3c:	f843 1022 	str.w	r1, [r3, r2, lsl #2]
 8007f40:	e005      	b.n	8007f4e <FSMC_NORSRAM_Extended_Timing_Init+0x5e>
 8007f42:	68fb      	ldr	r3, [r7, #12]
 8007f44:	687a      	ldr	r2, [r7, #4]
 8007f46:	f06f 4170 	mvn.w	r1, #4026531840	; 0xf0000000
 8007f4a:	f843 1022 	str.w	r1, [r3, r2, lsl #2]
 8007f4e:	2300      	movs	r3, #0
 8007f50:	4618      	mov	r0, r3
 8007f52:	3714      	adds	r7, #20
 8007f54:	46bd      	mov	sp, r7
 8007f56:	f85d 7b04 	ldr.w	r7, [sp], #4
 8007f5a:	4770      	bx	lr
 8007f5c:	cff00000 	.word	0xcff00000

08007f60 <memset>:
 8007f60:	4402      	add	r2, r0
 8007f62:	4603      	mov	r3, r0
 8007f64:	4293      	cmp	r3, r2
 8007f66:	d100      	bne.n	8007f6a <memset+0xa>
 8007f68:	4770      	bx	lr
 8007f6a:	f803 1b01 	strb.w	r1, [r3], #1
 8007f6e:	e7f9      	b.n	8007f64 <memset+0x4>

08007f70 <__libc_init_array>:
 8007f70:	b570      	push	{r4, r5, r6, lr}
 8007f72:	4d0d      	ldr	r5, [pc, #52]	; (8007fa8 <__libc_init_array+0x38>)
 8007f74:	4c0d      	ldr	r4, [pc, #52]	; (8007fac <__libc_init_array+0x3c>)
 8007f76:	1b64      	subs	r4, r4, r5
 8007f78:	10a4      	asrs	r4, r4, #2
 8007f7a:	2600      	movs	r6, #0
 8007f7c:	42a6      	cmp	r6, r4
 8007f7e:	d109      	bne.n	8007f94 <__libc_init_array+0x24>
 8007f80:	4d0b      	ldr	r5, [pc, #44]	; (8007fb0 <__libc_init_array+0x40>)
 8007f82:	4c0c      	ldr	r4, [pc, #48]	; (8007fb4 <__libc_init_array+0x44>)
 8007f84:	f000 f818 	bl	8007fb8 <_init>
 8007f88:	1b64      	subs	r4, r4, r5
 8007f8a:	10a4      	asrs	r4, r4, #2
 8007f8c:	2600      	movs	r6, #0
 8007f8e:	42a6      	cmp	r6, r4
 8007f90:	d105      	bne.n	8007f9e <__libc_init_array+0x2e>
 8007f92:	bd70      	pop	{r4, r5, r6, pc}
 8007f94:	f855 3b04 	ldr.w	r3, [r5], #4
 8007f98:	4798      	blx	r3
 8007f9a:	3601      	adds	r6, #1
 8007f9c:	e7ee      	b.n	8007f7c <__libc_init_array+0xc>
 8007f9e:	f855 3b04 	ldr.w	r3, [r5], #4
 8007fa2:	4798      	blx	r3
 8007fa4:	3601      	adds	r6, #1
 8007fa6:	e7f2      	b.n	8007f8e <__libc_init_array+0x1e>
 8007fa8:	0800aff8 	.word	0x0800aff8
 8007fac:	0800aff8 	.word	0x0800aff8
 8007fb0:	0800aff8 	.word	0x0800aff8
 8007fb4:	0800affc 	.word	0x0800affc

08007fb8 <_init>:
 8007fb8:	b5f8      	push	{r3, r4, r5, r6, r7, lr}
 8007fba:	bf00      	nop
 8007fbc:	bcf8      	pop	{r3, r4, r5, r6, r7}
 8007fbe:	bc08      	pop	{r3}
 8007fc0:	469e      	mov	lr, r3
 8007fc2:	4770      	bx	lr

08007fc4 <_fini>:
 8007fc4:	b5f8      	push	{r3, r4, r5, r6, r7, lr}
 8007fc6:	bf00      	nop
 8007fc8:	bcf8      	pop	{r3, r4, r5, r6, r7}
 8007fca:	bc08      	pop	{r3}
 8007fcc:	469e      	mov	lr, r3
 8007fce:	4770      	bx	lr
